ccopy_reg
_reconstructor
p0
(cdebian_linux.config
ConfigCore
p1
c__builtin__
dict
p2
(dp3
(Vdescription
p4
tp5
(dp6
Vpart-long-up
p7
VThis kernel is not suitable for SMP (multi-processor,\u000amulti-core or hyper-threaded) systems.
p8
sVpart-long-xen
p9
VThis kernel also runs on a Xen hypervisor.\u000aIt supports both privileged (dom0) and unprivileged (domU) operation.
p10
ss(Vbase
p11
tp12
(dp13
Varches
p14
(lp15
Vamd64
p16
asVfeaturesets
p17
(lp18
Vnone
p19
asVcompiler
p20
Vgcc-7
p21
ss(Vdescription
p22
Vamd64
p23
Vnone
p24
Vsiduction-amd64
p25
tp26
(dp27
Vparts
p28
(lp29
Vxen
p30
ass(Vbase
p31
g23
tp32
(dp33
Vfeaturesets
p34
(lp35
Vnone
p36
ag24
asVkernel-arch
p37
Vx86
p38
ss(Vdescription
p39
g23
NVsiduction-amd64
p40
tp41
(dp42
Vhardware-long
p43
VPCs with AMD64 or Intel 64 processors
p44
sVhardware
p45
V64-bit PCs
p46
ss(Vbuild
p47
g23
tp48
(dp49
Vimage-file
p50
Varch/x86/boot/bzImage
p51
sVdebug-info
p52
I00
ss(Vabi
p53
tp54
(dp55
Vabiname
p56
Vtowo.1
p57
ss(Vimage
p58
g23
tp59
(dp60
Vsuggests
p61
Vcrda
p62
sVinstall-stem
p63
Vvmlinuz
p64
sVbreaks
p65
Vxserver-xorg-input-vmmouse (<< 1:13.0.99)
p66
sVbootloaders
p67
(lp68
Vgrub-pc
p69
aVextlinux
p70
aVgrub-efi-amd64
p71
ass(Vversion
p72
tp73
(dp74
Vupstream
p75
V4.14-rc3
p76
sVabiname
p77
V4.14.0-rc3
p78
sVsource
p79
V4.14~rc3-1~exp2
p80
sVabiname_base
p81
g78
ss(Vrelations
p82
tp83
(dp84
Vinitramfs-tools
p85
Vinitramfs-tools (>= 0.121~)
p86
sVinitramfs-fallback
p87
Vlinux-initramfs-tool
p88
sVgcc-7
p89
Vgcc-7
p90
ss(Vimage
p91
tp92
(dp93
Vinitramfs-generators
p94
(lp95
Vinitramfs-tools
p96
aVinitramfs-fallback
p97
ass(Vbase
p98
g23
g24
tp99
(dp100
Vflavours
p101
(lp102
Vsiduction-amd64
p103
asVimplicit-flavour
p104
I01
sstp105
Rp106
.