ccopy_reg
_reconstructor
p0
(cdebian_linux.config
ConfigCore
p1
c__builtin__
dict
p2
(dp3
(Vversion
p4
tp5
(dp6
Vupstream
p7
V4.14-rc6
p8
sVabiname_base
p9
V4.14.0-rc6
p10
sVabiname
p11
g10
sVsource
p12
V4.14~rc6-1~exp1
p13
ss(Vimage
p14
tp15
(dp16
Vinitramfs-generators
p17
(lp18
Vinitramfs-tools
p19
aVinitramfs-fallback
p20
ass(Vimage
p21
Vamd64
p22
tp23
(dp24
Vsuggests
p25
Vcrda
p26
sVbootloaders
p27
(lp28
Vgrub-pc
p29
aVextlinux
p30
aVgrub-efi-amd64
p31
asVbreaks
p32
Vxserver-xorg-input-vmmouse (<< 1:13.0.99)
p33
sVinstall-stem
p34
Vvmlinuz
p35
ss(Vdescription
p36
g22
NVsiduction-amd64
p37
tp38
(dp39
Vhardware
p40
V64-bit PCs
p41
sVhardware-long
p42
VPCs with AMD64 or Intel 64 processors
p43
ss(Vrelations
p44
tp45
(dp46
Vinitramfs-fallback
p47
Vlinux-initramfs-tool
p48
sVgcc-7
p49
Vgcc-7
p50
sVinitramfs-tools
p51
Vinitramfs-tools (>= 0.121~)
p52
ss(Vbase
p53
g22
Vnone
p54
tp55
(dp56
Vflavours
p57
(lp58
Vsiduction-amd64
p59
asVimplicit-flavour
p60
I01
ss(Vabi
p61
tp62
(dp63
Vabiname
p64
Vtowo.1
p65
ss(Vbuild
p66
g22
tp67
(dp68
Vdebug-info
p69
I00
sVimage-file
p70
Varch/x86/boot/bzImage
p71
ss(Vbase
p72
g22
tp73
(dp74
Vkernel-arch
p75
Vx86
p76
sVfeaturesets
p77
(lp78
Vnone
p79
ag54
ass(Vdescription
p80
g22
g54
Vsiduction-amd64
p81
tp82
(dp83
Vparts
p84
(lp85
Vxen
p86
ass(Vdescription
p87
tp88
(dp89
Vpart-long-up
p90
VThis kernel is not suitable for SMP (multi-processor,\u000amulti-core or hyper-threaded) systems.
p91
sVpart-long-xen
p92
VThis kernel also runs on a Xen hypervisor.\u000aIt supports both privileged (dom0) and unprivileged (domU) operation.
p93
ss(Vbase
p94
tp95
(dp96
Varches
p97
(lp98
Vamd64
p99
asVcompiler
p100
Vgcc-7
p101
sVfeaturesets
p102
(lp103
Vnone
p104
asstp105
Rp106
.