ccopy_reg
_reconstructor
p0
(cdebian_linux.config
ConfigCore
p1
c__builtin__
dict
p2
(dp3
(Vbase
p4
tp5
(dp6
Vcompiler
p7
Vgcc-7
p8
sVfeaturesets
p9
(lp10
Vnone
p11
asVarches
p12
(lp13
Vamd64
p14
ass(Vbuild
p15
Vamd64
p16
tp17
(dp18
Vdebug-info
p19
I00
sVimage-file
p20
Varch/x86/boot/bzImage
p21
ss(Vbase
p22
g16
Vnone
p23
tp24
(dp25
Vflavours
p26
(lp27
Vsiduction-amd64
p28
asVimplicit-flavour
p29
I01
ss(Vrelations
p30
tp31
(dp32
Vgcc-7
p33
Vgcc-7
p34
sVinitramfs-tools
p35
Vinitramfs-tools (>= 0.121~)
p36
sVinitramfs-fallback
p37
Vlinux-initramfs-tool
p38
ss(Vdescription
p39
tp40
(dp41
Vpart-long-up
p42
VThis kernel is not suitable for SMP (multi-processor,\u000amulti-core or hyper-threaded) systems.
p43
sVpart-long-xen
p44
VThis kernel also runs on a Xen hypervisor.\u000aIt supports both privileged (dom0) and unprivileged (domU) operation.
p45
ss(Vdescription
p46
g16
g23
Vsiduction-amd64
p47
tp48
(dp49
Vparts
p50
(lp51
Vxen
p52
ass(Vversion
p53
tp54
(dp55
Vsource
p56
V4.14~rc5-1~exp1
p57
sVupstream
p58
V4.14-rc5
p59
sVabiname
p60
V4.14.0-rc5
p61
sVabiname_base
p62
g61
ss(Vabi
p63
tp64
(dp65
Vabiname
p66
Vtowo.1
p67
ss(Vbase
p68
g16
tp69
(dp70
Vfeaturesets
p71
(lp72
Vnone
p73
ag23
asVkernel-arch
p74
Vx86
p75
ss(Vimage
p76
tp77
(dp78
Vinitramfs-generators
p79
(lp80
Vinitramfs-tools
p81
aVinitramfs-fallback
p82
ass(Vimage
p83
g16
tp84
(dp85
Vbreaks
p86
Vxserver-xorg-input-vmmouse (<< 1:13.0.99)
p87
sVsuggests
p88
Vcrda
p89
sVinstall-stem
p90
Vvmlinuz
p91
sVbootloaders
p92
(lp93
Vgrub-pc
p94
aVextlinux
p95
aVgrub-efi-amd64
p96
ass(Vdescription
p97
g16
NVsiduction-amd64
p98
tp99
(dp100
Vhardware-long
p101
VPCs with AMD64 or Intel 64 processors
p102
sVhardware
p103
V64-bit PCs
p104
sstp105
Rp106
.