ccopy_reg
_reconstructor
p0
(cdebian_linux.config
ConfigCore
p1
c__builtin__
dict
p2
(dp3
(Vimage
p4
Vamd64
p5
tp6
(dp7
Vbootloaders
p8
(lp9
Vgrub-pc
p10
aVextlinux
p11
aVgrub-efi-amd64
p12
asVinstall-stem
p13
Vvmlinuz
p14
sVsuggests
p15
Vcrda
p16
sVbreaks
p17
Vxserver-xorg-input-vmmouse (<< 1:13.0.99)
p18
ss(Vdescription
p19
tp20
(dp21
Vpart-long-up
p22
VThis kernel is not suitable for SMP (multi-processor,\u000amulti-core or hyper-threaded) systems.
p23
sVpart-long-xen
p24
VThis kernel also runs on a Xen hypervisor.\u000aIt supports both privileged (dom0) and unprivileged (domU) operation.
p25
ss(Vbase
p26
g5
tp27
(dp28
Vfeaturesets
p29
(lp30
Vnone
p31
aVnone
p32
asVkernel-arch
p33
Vx86
p34
ss(Vbase
p35
tp36
(dp37
Vcompiler
p38
Vgcc-7
p39
sVfeaturesets
p40
(lp41
Vnone
p42
asVarches
p43
(lp44
Vamd64
p45
ass(Vbuild
p46
g5
tp47
(dp48
Vdebug-info
p49
I00
sVimage-file
p50
Varch/x86/boot/bzImage
p51
ss(Vabi
p52
tp53
(dp54
Vabiname
p55
Vtowo.1
p56
ss(Vrelations
p57
tp58
(dp59
Vgcc-7
p60
Vgcc-7
p61
sVinitramfs-fallback
p62
Vlinux-initramfs-tool
p63
sVinitramfs-tools
p64
Vinitramfs-tools (>= 0.121~)
p65
ss(Vdescription
p66
g5
g32
Vsiduction-amd64
p67
tp68
(dp69
Vparts
p70
(lp71
Vxen
p72
ass(Vdescription
p73
g5
NVsiduction-amd64
p74
tp75
(dp76
Vhardware
p77
V64-bit PCs
p78
sVhardware-long
p79
VPCs with AMD64 or Intel 64 processors
p80
ss(Vversion
p81
tp82
(dp83
Vupstream
p84
V4.14-rc4
p85
sVabiname_base
p86
V4.14.0-rc4
p87
sVsource
p88
V4.14~rc4-1~exp1
p89
sVabiname
p90
g87
ss(Vimage
p91
tp92
(dp93
Vinitramfs-generators
p94
(lp95
Vinitramfs-tools
p96
aVinitramfs-fallback
p97
ass(Vbase
p98
g5
g32
tp99
(dp100
Vimplicit-flavour
p101
I01
sVflavours
p102
(lp103
Vsiduction-amd64
p104
asstp105
Rp106
.