ccopy_reg
_reconstructor
p0
(cdebian_linux.config
ConfigCore
p1
c__builtin__
dict
p2
(dp3
(Vbase
p4
Vamd64
p5
Vnone
p6
tp7
(dp8
Vflavours
p9
(lp10
Vsiduction-amd64
p11
asVimplicit-flavour
p12
I01
ss(Vdescription
p13
g5
NVsiduction-amd64
p14
tp15
(dp16
Vhardware-long
p17
VPCs with AMD64 or Intel 64 processors
p18
sVhardware
p19
V64-bit PCs
p20
ss(Vimage
p21
g5
tp22
(dp23
Vinstall-stem
p24
Vvmlinuz
p25
sVbootloaders
p26
(lp27
Vgrub-pc
p28
aVextlinux
p29
aVgrub-efi-amd64
p30
asVsuggests
p31
Vcrda
p32
sVbreaks
p33
Vxserver-xorg-input-vmmouse (<< 1:13.0.99)
p34
ss(Vdescription
p35
g5
g6
Vsiduction-amd64
p36
tp37
(dp38
Vparts
p39
(lp40
Vxen
p41
ass(Vbase
p42
tp43
(dp44
Vcompiler
p45
Vgcc-7
p46
sVfeaturesets
p47
(lp48
Vnone
p49
asVarches
p50
(lp51
Vamd64
p52
ass(Vabi
p53
tp54
(dp55
Vabiname
p56
Vtowo.1
p57
ss(Vversion
p58
tp59
(dp60
Vsource
p61
V4.14~rc3-1~exp1
p62
sVupstream
p63
V4.14-rc3
p64
sVabiname_base
p65
V4.14.0-rc3
p66
sVabiname
p67
g66
ss(Vdescription
p68
tp69
(dp70
Vpart-long-xen
p71
VThis kernel also runs on a Xen hypervisor.\u000aIt supports both privileged (dom0) and unprivileged (domU) operation.
p72
sVpart-long-up
p73
VThis kernel is not suitable for SMP (multi-processor,\u000amulti-core or hyper-threaded) systems.
p74
ss(Vbuild
p75
g5
tp76
(dp77
Vdebug-info
p78
I00
sVimage-file
p79
Varch/x86/boot/bzImage
p80
ss(Vbase
p81
g5
tp82
(dp83
Vfeaturesets
p84
(lp85
Vnone
p86
ag6
asVkernel-arch
p87
Vx86
p88
ss(Vimage
p89
tp90
(dp91
Vinitramfs-generators
p92
(lp93
Vinitramfs-tools
p94
aVinitramfs-fallback
p95
ass(Vrelations
p96
tp97
(dp98
Vinitramfs-fallback
p99
Vlinux-initramfs-tool
p100
sVgcc-7
p101
Vgcc-7
p102
sVinitramfs-tools
p103
Vinitramfs-tools (>= 0.121~)
p104
sstp105
Rp106
.