ccopy_reg
_reconstructor
p1
(cdebian_linux.config
ConfigCore
p2
c__builtin__
dict
p3
(dp4
(S'image'
S'amd64'
p5
tp6
(dp7
S'suggests'
p8
S'crda'
p9
sS'configs'
p10
(lp11
S'kernelarch-x86/config'
p12
asS'bootloaders'
p13
(lp14
S'grub-pc'
p15
aS'extlinux'
p16
aS'grub-efi-amd64'
p17
ass(S'siduction-686_image-dbg'
p18
S'i386'
p19
tp20
(dp21
S'enabled'
p22
S'false'
p23
ss(S'base'
p24
g5
S'none'
p25
tp26
(dp27
S'implicit-flavour'
p28
I01
sS'flavours'
p29
(lp30
S'siduction-amd64'
p31
ass(S'description'
g19
NS'siduction-686'
tp32
(dp33
S'hardware'
p34
S'modern PCs'
p35
sS'hardware-long'
p36
S'PCs with Intel Pentium Pro/II/III/4/4M/D/M, Xeon, Celeron, Core or Atom; AMD Geode LX/NX, Athlon (K7), Duron, Opteron, Sempron, Turion or Phenom; Transmeta Efficeon; VIA C3 "Nehemiah" or C7 processors'
p37
ss(S'base'
g5
tp38
(dp39
S'kernel-arch'
p40
S'x86'
p41
sS'featuresets'
p42
(lp43
g25
ass(S'image'
p44
tp45
(dp46
S'initramfs-generators'
p47
(lp48
S'initramfs-tools'
p49
aS'initramfs-fallback'
p50
asS'type'
p51
S'plain'
p52
ss(S'image'
g5
NS'siduction-amd64'
tp53
(dp54
S'configs'
p55
(lp56
S'kernelarch-x86/config-arch-64'
p57
ass(S'version'
p58
tp59
(dp60
S'abiname'
p61
S'3.4-3.towo.2'
p62
sS'source'
p63
V3.4-12
p64
ss(S'base'
p65
g19
tp66
(dp67
S'kernel-arch'
p68
S'x86'
p69
sg42
(lp70
g25
ass(S'image'
g19
NS'siduction-686'
tp71
(dp72
S'configs'
p73
(lp74
S'kernelarch-x86/config-arch-32'
p75
asS'recommends'
p76
S'libc6-i686'
p77
ss(S'description'
g5
NS'siduction-amd64'
tp78
(dp79
S'hardware'
p80
S'64-bit PCs'
p81
sS'hardware-long'
p82
S'PCs with AMD64 or Intel 64 processors'
p83
ss(S'siduction-amd64-dbg'
g5
tp84
(dp85
S'enabled'
p86
S'false'
p87
ss(S'abi'
p88
tp89
(dp90
S'abiname'
p91
S'3.towo.2'
p92
ss(S'image'
p93
g19
tp94
(dp95
S'suggests'
p96
S'crda'
p97
sS'configs'
p98
(lp99
S'kernelarch-x86/config'
p100
asS'bootloaders'
p101
(lp102
S'grub-pc'
p103
aS'extlinux'
p104
ass(g24
g19
g25
tp105
(dp106
g28
I01
sg29
(lp107
S'siduction-686'
p108
ass(S'base'
p109
tp110
(dp111
S'arches'
p112
(lp113
S'amd64'
p114
aS'i386'
p115
asS'featuresets'
p116
(lp117
S'none'
p118
asS'compiler'
p119
S'gcc-4.7'
p120
ss(S'relations'
p121
tp122
(dp123
S'initramfs-fallback'
p124
S'linux-initramfs-tool'
p125
sS'lilo'
p126
S'lilo (>= 22.8-8.2~)'
p127
sS'gcc-4.7'
p128
S'gcc-4.7'
p129
sS'initramfs-tools'
p130
S'initramfs-tools (>= 0.99~)'
p131
sS'elilo'
p132
S'elilo (>= 3.12-3.1~)'
p133
sstRp134
.