ccopy_reg
_reconstructor
p1
(cdebian_linux.config
ConfigCore
p2
c__builtin__
dict
p3
(dp4
(S'image'
S'amd64'
p5
tp6
(dp7
S'suggests'
p8
S'crda'
p9
sS'configs'
p10
(lp11
S'kernelarch-x86/config'
p12
asS'bootloaders'
p13
(lp14
S'grub-pc'
p15
aS'extlinux'
p16
aS'grub-efi-amd64'
p17
ass(S'siduction-686_image-dbg'
p18
S'i386'
p19
tp20
(dp21
S'enabled'
p22
S'false'
p23
ss(S'base'
p24
g5
S'none'
p25
tp26
(dp27
S'implicit-flavour'
p28
I01
sS'flavours'
p29
(lp30
S'siduction-amd64'
p31
ass(S'description'
g19
NS'siduction-686'
tp32
(dp33
S'hardware'
p34
S'modern PCs'
p35
sS'hardware-long'
p36
S'PCs with Intel Pentium Pro/II/III/4/4M/D/M, Xeon, Celeron, Core or Atom; AMD Geode LX/NX, Athlon (K7), Duron, Opteron, Sempron, Turion or Phenom; Transmeta Efficeon; VIA C3 "Nehemiah" or C7 processors'
p37
ss(S'base'
g5
tp38
(dp39
S'kernel-arch'
p40
S'x86'
p41
sS'featuresets'
p42
(lp43
g25
ass(S'image'
p44
tp45
(dp46
S'initramfs-generators'
p47
(lp48
S'initramfs-tools'
p49
aS'initramfs-fallback'
p50
asS'type'
p51
S'plain'
p52
ss(S'image'
g19
NS'siduction-686'
tp53
(dp54
S'configs'
p55
(lp56
S'kernelarch-x86/config-arch-32'
p57
asS'recommends'
p58
S'libc6-i686'
p59
ss(S'version'
p60
tp61
(dp62
S'abiname'
p63
S'3.4-2.towo.2'
p64
sS'source'
p65
V3.4-11
p66
ss(S'base'
p67
g19
tp68
(dp69
S'kernel-arch'
p70
S'x86'
p71
sg42
(lp72
g25
ass(S'siduction-amd64-dbg'
g5
tp73
(dp74
S'enabled'
p75
S'false'
p76
ss(S'abi'
p77
tp78
(dp79
S'abiname'
p80
S'2.towo.2'
p81
ss(S'image'
p82
g19
tp83
(dp84
S'suggests'
p85
S'crda'
p86
sS'configs'
p87
(lp88
S'kernelarch-x86/config'
p89
asS'bootloaders'
p90
(lp91
S'grub-pc'
p92
aS'extlinux'
p93
ass(g24
g19
g25
tp94
(dp95
g28
I01
sg29
(lp96
S'siduction-686'
p97
ass(S'image'
g5
NS'siduction-amd64'
tp98
(dp99
S'configs'
p100
(lp101
S'kernelarch-x86/config-arch-64'
p102
ass(S'base'
p103
tp104
(dp105
S'arches'
p106
(lp107
S'amd64'
p108
aS'i386'
p109
asS'featuresets'
p110
(lp111
S'none'
p112
asS'compiler'
p113
S'gcc-4.7'
p114
ss(S'relations'
p115
tp116
(dp117
S'initramfs-fallback'
p118
S'linux-initramfs-tool'
p119
sS'lilo'
p120
S'lilo (>= 22.8-8.2~)'
p121
sS'gcc-4.7'
p122
S'gcc-4.7'
p123
sS'initramfs-tools'
p124
S'initramfs-tools (>= 0.99~)'
p125
sS'elilo'
p126
S'elilo (>= 3.12-3.1~)'
p127
ss(S'description'
g5
NS'siduction-amd64'
tp128
(dp129
S'hardware'
p130
S'64-bit PCs'
p131
sS'hardware-long'
p132
S'PCs with AMD64 or Intel 64 processors'
p133
sstRp134
.