ccopy_reg
_reconstructor
p1
(cdebian_linux.config
ConfigCore
p2
c__builtin__
dict
p3
(dp4
(S'image'
S'amd64'
p5
tp6
(dp7
S'suggests'
p8
S'crda'
p9
sS'configs'
p10
(lp11
S'kernelarch-x86/config'
p12
asS'bootloaders'
p13
(lp14
S'grub-pc'
p15
aS'extlinux'
p16
aS'grub-efi-amd64'
p17
ass(S'siduction-686_image-dbg'
p18
S'i386'
p19
tp20
(dp21
S'enabled'
p22
S'false'
p23
ss(S'base'
p24
g5
S'none'
p25
tp26
(dp27
S'implicit-flavour'
p28
I01
sS'flavours'
p29
(lp30
S'siduction-amd64'
p31
ass(S'description'
g19
NS'siduction-686'
tp32
(dp33
S'hardware'
p34
S'modern PCs'
p35
sS'hardware-long'
p36
S'PCs with Intel Pentium Pro/II/III/4/4M/D/M, Xeon, Celeron, Core or Atom; AMD Geode LX/NX, Athlon (K7), Duron, Opteron, Sempron, Turion or Phenom; Transmeta Efficeon; VIA C3 "Nehemiah" or C7 processors'
p37
ss(S'base'
g5
tp38
(dp39
S'kernel-arch'
p40
S'x86'
p41
sS'featuresets'
p42
(lp43
g25
ass(S'image'
p44
tp45
(dp46
S'initramfs-generators'
p47
(lp48
S'initramfs-tools'
p49
aS'initramfs-fallback'
p50
asS'type'
p51
S'plain'
p52
ss(S'image'
g5
NS'siduction-amd64'
tp53
(dp54
S'configs'
p55
(lp56
S'kernelarch-x86/config-arch-64'
p57
ass(S'image'
g19
S'none'
p58
S'siduction-686-pae'
tp59
(dp60
S'configs'
p61
(lp62
S'kernelarch-x86/config-arch-32'
p63
aS'kernelarch-x86/config-arch-32-pae'
p64
asS'recommends'
p65
S'libc6-i686'
p66
ss(S'version'
p67
tp68
(dp69
S'abiname'
p70
S'3.4-4.towo'
p71
sS'source'
p72
V3.4-14
p73
ss(S'description'
g19
g58
S'siduction-686-pae'
tp74
(dp75
S'hardware'
p76
S'modern PCs with pae support'
p77
sS'hardware-long'
p78
S'PCs with Intel Xeon, Core or Atom; AMD Geode LX/NX, Athlon (K7), Opteron, Sempron, Turion or Phenom; Transmeta Efficeon; C7 processors'
p79
ss(S'base'
p80
g19
tp81
(dp82
S'kernel-arch'
p83
S'x86'
p84
sS'featuresets'
p85
(lp86
S'none'
p87
ass(S'image'
g19
NS'siduction-686'
tp88
(dp89
S'configs'
p90
(lp91
S'kernelarch-x86/config-arch-32'
p92
asS'recommends'
p93
S'libc6-i686'
p94
ss(S'description'
g5
NS'siduction-amd64'
tp95
(dp96
S'hardware'
p97
S'64-bit PCs'
p98
sS'hardware-long'
p99
S'PCs with AMD64 or Intel 64 processors'
p100
ss(S'siduction-amd64-dbg'
g5
tp101
(dp102
S'enabled'
p103
S'false'
p104
ss(S'base'
g19
g58
tp105
(dp106
S'flavours'
p107
(lp108
S'siduction-686'
p109
aS'siduction-686-pae'
p110
ass(S'abi'
p111
tp112
(dp113
S'abiname'
p114
S'4.towo'
p115
ss(S'image'
p116
g19
tp117
(dp118
S'suggests'
p119
S'crda'
p120
sS'configs'
p121
(lp122
S'kernelarch-x86/config'
p123
asS'bootloaders'
p124
(lp125
S'grub-pc'
p126
aS'extlinux'
p127
ass(S'siduction-686-pae_image-dbg'
g19
g58
tp128
(dp129
S'enabled'
p130
S'false'
p131
ss(S'base'
p132
tp133
(dp134
S'arches'
p135
(lp136
S'amd64'
p137
aS'i386'
p138
asS'featuresets'
p139
(lp140
S'none'
p141
asS'compiler'
p142
S'gcc-4.7'
p143
ss(S'relations'
p144
tp145
(dp146
S'initramfs-fallback'
p147
S'linux-initramfs-tool'
p148
sS'lilo'
p149
S'lilo (>= 22.8-8.2~)'
p150
sS'gcc-4.7'
p151
S'gcc-4.7'
p152
sS'initramfs-tools'
p153
S'initramfs-tools (>= 0.99~)'
p154
sS'elilo'
p155
S'elilo (>= 3.12-3.1~)'
p156
sstRp157
.