ccopy_reg
_reconstructor
p0
(cdebian_linux.config
ConfigCore
p1
c__builtin__
dict
p2
(dp3
(Vdescription
p4
Vamd64
p5
Vnone
p6
Vsiduction-amd64
p7
tp8
(dp9
Vparts
p10
(lp11
Vxen
p12
ass(Vbase
p13
g5
tp14
(dp15
Vfeaturesets
p16
(lp17
Vnone
p18
ag6
asVkernel-arch
p19
Vx86
p20
ss(Vbase
p21
Vi386
p22
Vnone
p23
tp24
(dp25
Vflavours
p26
(lp27
Vsiduction-686
p28
aVsiduction-686-pae
p29
ass(Vimage
p30
tp31
(dp32
Vinitramfs-generators
p33
(lp34
Vinitramfs-tools
p35
aVinitramfs-fallback
p36
asVtype
p37
Vplain
p38
ss(Vimage
p39
g5
tp40
(dp41
Vbootloaders
p42
(lp43
Vgrub-pc
p44
aVextlinux
p45
aVgrub-efi-amd64
p46
asVsuggests
p47
Vcrda
p48
sVconfigs
p49
(lp50
sVinstall-stem
p51
Vvmlinuz
p52
ss(Vimage
p53
g22
NVsiduction-686-pae
p54
tp55
(dp56
Vrecommends
p57
Vlibc6-i686
p58
sVconfigs
p59
(lp60
Vkernelarch-x86/config-arch-32
p61
aVkernelarch-x86/config-arch-32-pae
p62
ass(Vbase
p63
g22
tp64
(dp65
Vfeaturesets
p66
(lp67
Vnone
p68
asVkernel-arch
p69
Vx86
p70
ss(Vdescription
p71
g22
NVsiduction-686
p72
tp73
(dp74
Vhardware
p75
Vmodern PCs
p76
sVhardware-long
p77
VPCs with Intel Pentium Pro/II/III/4/4M/D/M, Xeon, Celeron, Core or Atom; AMD Geode LX/NX, Athlon (K7), Duron, Opteron, Sempron, Turion or Phenom; Transmeta Efficeon; VIA C3 "Nehemiah" or C7 processors
p78
ss(Vbuild
p79
g22
tp80
(dp81
Vdebug-info
p82
I00
sVimage-file
p83
Varch/x86/boot/bzImage
p84
ss(Vdescription
p85
g22
tp86
(dp87
Vpart-long-pae
p88
VThis kernel requires PAE (Physical Address Extension)\u000aThis feature is supported by the Intel Pentium Pro/II/III/4/4M/D, Xeon,\u000aCore and Atom; AMD Geode NX, Athlon (K7), Duron, Opteron, Sempron,\u000aTurion or Phenom; Transmeta Efficeon; VIA C7; and some other processors.
p89
ss(Vversion
p90
tp91
(dp92
Vupstream
p93
V4.7-rc7
p94
sVabiname_base
p95
V4.7.0-rc7
p96
sVsource
p97
V4.7~rc7-1~exp1
p98
sVabiname
p99
g96
ss(Vimage
p100
g22
NVsiduction-686
p101
tp102
(dp103
Vrecommends
p104
Vlibc6-i686
p105
sVconfigs
p106
(lp107
Vkernelarch-x86/config-arch-32
p108
ass(Vdescription
p109
tp110
(dp111
Vpart-long-xen
p112
VThis kernel also runs on a Xen hypervisor.\u000aIt supports both privileged (dom0) and unprivileged (domU) operation.
p113
sVpart-long-up
p114
VThis kernel is not suitable for SMP (multi-processor,\u000amulti-core or hyper-threaded) systems.
p115
ss(Vdescription
p116
g22
NVsiduction-686-pae
p117
tp118
(dp119
Vhardware
p120
Vmodern PCs
p121
sVparts
p122
(lp123
Vpae
p124
asVhardware-long
p125
VPCs with one or more processors supporting PAE
p126
ss(Vdescription
p127
g22
g23
V686-pae
p128
tp129
(dp130
Vparts
p131
(lp132
Vxen
p133
ass(Vimage
p134
g22
tp135
(dp136
Vbootloaders
p137
(lp138
Vgrub-pc
p139
aVextlinux
p140
aVgrub-efi-ia32
p141
asVsuggests
p142
Vcrda
p143
sVconfigs
p144
(lp145
sVinstall-stem
p146
Vvmlinuz
p147
ss(Vbuild
p148
g5
tp149
(dp150
Vdebug-info
p151
I00
sVimage-file
p152
Varch/x86/boot/bzImage
p153
ss(Vxen
p154
g5
g6
Vsiduction-amd64
p155
tp156
(dp157
Vflavours
p158
(lp159
Vsiduction-amd64
p160
ass(Vbase
p161
tp162
(dp163
Vcompiler
p164
Vgcc-6
p165
sVarches
p166
(lp167
Vamd64
p168
aVi386
p169
asVfeaturesets
p170
(lp171
Vnone
p172
ass(Vabi
p173
tp174
(dp175
Vabiname
p176
Vtowo.1
p177
ss(Vbuild
p178
g22
NVsiduction-686-pae
p179
tp180
(dp181
Vdebug-info
p182
I00
ss(Vrelations
p183
tp184
(dp185
Vinitramfs-fallback
p186
Vlinux-initramfs-tool
p187
sVinitramfs-tools
p188
Vinitramfs-tools (>= 0.110~)
p189
sVgcc-6
p190
Vgcc-6
p191
ss(Vbase
p192
g5
g6
tp193
(dp194
Vimplicit-flavour
p195
I01
sVflavours
p196
(lp197
Vsiduction-amd64
p198
ass(Vimage
p199
g5
NVsiduction-amd64
p200
tp201
(dp202
Vconfigs
p203
(lp204
Vkernelarch-x86/config-arch-64
p205
ass(Vdescription
p206
g5
NVsiduction-amd64
p207
tp208
(dp209
Vhardware
p210
V64-bit PCs
p211
sVhardware-long
p212
VPCs with AMD64 or Intel 64 processors
p213
sstp214
Rp215
.