ccopy_reg
_reconstructor
p0
(cdebian_linux.config
ConfigCore
p1
c__builtin__
dict
p2
(dp3
(Vdescription
p4
Vi386
p5
NVsiduction-686
p6
tp7
(dp8
Vhardware-long
p9
VPCs with Intel Pentium Pro/II/III/4/4M/D/M, Xeon, Celeron, Core or Atom; AMD Geode LX/NX, Athlon (K7), Duron, Opteron, Sempron, Turion or Phenom; Transmeta Efficeon; VIA C3 "Nehemiah" or C7 processors
p10
sVhardware
p11
Vmodern PCs
p12
ss(Vbase
p13
g5
Vnone
p14
tp15
(dp16
Vflavours
p17
(lp18
Vsiduction-686
p19
aVsiduction-686-pae
p20
ass(Vimage
p21
Vamd64
p22
NVsiduction-amd64
p23
tp24
(dp25
Vconfigs
p26
(lp27
Vkernelarch-x86/config-arch-64
p28
ass(Vbuild
p29
g22
tp30
(dp31
Vimage-file
p32
Varch/x86/boot/bzImage
p33
sVdebug-info
p34
I00
ss(Vxen
p35
g22
Vnone
p36
Vsiduction-amd64
p37
tp38
(dp39
Vflavours
p40
(lp41
Vsiduction-amd64
p42
ass(Vdescription
p43
g22
g36
Vsiduction-amd64
p44
tp45
(dp46
Vparts
p47
(lp48
Vxen
p49
ass(Vimage
p50
g5
NVsiduction-686
p51
tp52
(dp53
Vconfigs
p54
(lp55
Vkernelarch-x86/config-arch-32
p56
asVrecommends
p57
Vlibc6-i686
p58
ss(Vbase
p59
g22
g36
tp60
(dp61
Vflavours
p62
(lp63
Vsiduction-amd64
p64
asVimplicit-flavour
p65
I01
ss(Vbuild
p66
g5
NVsiduction-686-pae
p67
tp68
(dp69
Vdebug-info
p70
I00
ss(Vbase
p71
tp72
(dp73
Vfeaturesets
p74
(lp75
Vnone
p76
asVcompiler
p77
Vgcc-6
p78
sVarches
p79
(lp80
Vamd64
p81
aVi386
p82
ass(Vdescription
p83
tp84
(dp85
Vpart-long-xen
p86
VThis kernel also runs on a Xen hypervisor.\u000aIt supports both privileged (dom0) and unprivileged (domU) operation.
p87
sVpart-long-up
p88
VThis kernel is not suitable for SMP (multi-processor,\u000amulti-core or hyper-threaded) systems.
p89
ss(Vdescription
p90
g22
NVsiduction-amd64
p91
tp92
(dp93
Vhardware-long
p94
VPCs with AMD64 or Intel 64 processors
p95
sVhardware
p96
V64-bit PCs
p97
ss(Vbase
p98
g22
tp99
(dp100
Vfeaturesets
p101
(lp102
Vnone
p103
ag36
asVkernel-arch
p104
Vx86
p105
ss(Vimage
p106
g5
tp107
(dp108
Vconfigs
p109
(lp110
sVinstall-stem
p111
Vvmlinuz
p112
sVbootloaders
p113
(lp114
Vgrub-pc
p115
aVextlinux
p116
aVgrub-efi-ia32
p117
asVsuggests
p118
Vcrda
p119
ss(Vbuild
p120
g5
tp121
(dp122
Vimage-file
p123
Varch/x86/boot/bzImage
p124
sVdebug-info
p125
I00
ss(Vabi
p126
tp127
(dp128
Vabiname
p129
Vtowo.1
p130
ss(Vversion
p131
tp132
(dp133
Vabiname
p134
V4.7.0-rc6
p135
sVsource
p136
V4.7~rc6-1~exp1
p137
sVupstream
p138
V4.7-rc6
p139
sVabiname_base
p140
g135
ss(Vdescription
p141
g5
NVsiduction-686-pae
p142
tp143
(dp144
Vparts
p145
(lp146
Vpae
p147
asVhardware-long
p148
VPCs with one or more processors supporting PAE
p149
sVhardware
p150
Vmodern PCs
p151
ss(Vbase
p152
g5
tp153
(dp154
Vfeaturesets
p155
(lp156
Vnone
p157
asVkernel-arch
p158
Vx86
p159
ss(Vdescription
p160
g5
g14
V686-pae
p161
tp162
(dp163
Vparts
p164
(lp165
Vxen
p166
ass(Vrelations
p167
tp168
(dp169
Vinitramfs-fallback
p170
Vlinux-initramfs-tool
p171
sVinitramfs-tools
p172
Vinitramfs-tools (>= 0.110~)
p173
sVgcc-6
p174
Vgcc-6
p175
ss(Vdescription
p176
g5
tp177
(dp178
Vpart-long-pae
p179
VThis kernel requires PAE (Physical Address Extension)\u000aThis feature is supported by the Intel Pentium Pro/II/III/4/4M/D, Xeon,\u000aCore and Atom; AMD Geode NX, Athlon (K7), Duron, Opteron, Sempron,\u000aTurion or Phenom; Transmeta Efficeon; VIA C7; and some other processors.
p180
ss(Vimage
p181
tp182
(dp183
Vtype
p184
Vplain
p185
sVinitramfs-generators
p186
(lp187
Vinitramfs-tools
p188
aVinitramfs-fallback
p189
ass(Vimage
p190
g22
tp191
(dp192
Vconfigs
p193
(lp194
sVinstall-stem
p195
Vvmlinuz
p196
sVbootloaders
p197
(lp198
Vgrub-pc
p199
aVextlinux
p200
aVgrub-efi-amd64
p201
asVsuggests
p202
Vcrda
p203
ss(Vimage
p204
g5
NVsiduction-686-pae
p205
tp206
(dp207
Vconfigs
p208
(lp209
Vkernelarch-x86/config-arch-32
p210
aVkernelarch-x86/config-arch-32-pae
p211
asVrecommends
p212
Vlibc6-i686
p213
sstp214
Rp215
.