ccopy_reg
_reconstructor
p0
(cdebian_linux.config
ConfigCore
p1
c__builtin__
dict
p2
(dp3
(Vbuild
p4
Vi386
p5
NVsiduction-686-pae
p6
tp7
(dp8
Vdebug-info
p9
I00
ss(Vabi
p10
tp11
(dp12
Vabiname
p13
Vtowo.1
p14
ss(Vimage
p15
Vamd64
p16
tp17
(dp18
Vbootloaders
p19
(lp20
Vgrub-pc
p21
aVextlinux
p22
aVgrub-efi-amd64
p23
asVsuggests
p24
Vcrda
p25
sVinstall-stem
p26
Vvmlinuz
p27
sVconfigs
p28
(lp29
ss(Vdescription
p30
g16
Vnone
p31
Vsiduction-amd64
p32
tp33
(dp34
Vparts
p35
(lp36
Vxen
p37
ass(Vbuild
p38
g5
tp39
(dp40
Vimage-file
p41
Varch/x86/boot/bzImage
p42
sVdebug-info
p43
I00
ss(Vimage
p44
g5
tp45
(dp46
Vbootloaders
p47
(lp48
Vgrub-pc
p49
aVextlinux
p50
aVgrub-efi-ia32
p51
asVsuggests
p52
Vcrda
p53
sVinstall-stem
p54
Vvmlinuz
p55
sVconfigs
p56
(lp57
ss(Vdescription
p58
tp59
(dp60
Vpart-long-xen
p61
VThis kernel also runs on a Xen hypervisor.\u000aIt supports both privileged (dom0) and unprivileged (domU) operation.
p62
sVpart-long-up
p63
VThis kernel is not suitable for SMP (multi-processor,\u000amulti-core or hyper-threaded) systems.
p64
ss(Vdescription
p65
g16
NVsiduction-amd64
p66
tp67
(dp68
Vhardware-long
p69
VPCs with AMD64 or Intel 64 processors
p70
sVhardware
p71
V64-bit PCs
p72
ss(Vdescription
p73
g5
NVsiduction-686
p74
tp75
(dp76
Vhardware-long
p77
VPCs with Intel Pentium Pro/II/III/4/4M/D/M, Xeon, Celeron, Core or Atom; AMD Geode LX/NX, Athlon (K7), Duron, Opteron, Sempron, Turion or Phenom; Transmeta Efficeon; VIA C3 "Nehemiah" or C7 processors
p78
sVhardware
p79
Vmodern PCs
p80
ss(Vdescription
p81
g5
tp82
(dp83
Vpart-long-pae
p84
VThis kernel requires PAE (Physical Address Extension)\u000aThis feature is supported by the Intel Pentium Pro/II/III/4/4M/D, Xeon,\u000aCore and Atom; AMD Geode NX, Athlon (K7), Duron, Opteron, Sempron,\u000aTurion or Phenom; Transmeta Efficeon; VIA C7; and some other processors.
p85
ss(Vimage
p86
g5
NVsiduction-686-pae
p87
tp88
(dp89
Vrecommends
p90
Vlibc6-i686
p91
sVconfigs
p92
(lp93
Vkernelarch-x86/config-arch-32
p94
aVkernelarch-x86/config-arch-32-pae
p95
ass(Vbuild
p96
g16
tp97
(dp98
Vimage-file
p99
Varch/x86/boot/bzImage
p100
sVdebug-info
p101
I00
ss(Vimage
p102
g5
NVsiduction-686
p103
tp104
(dp105
Vrecommends
p106
Vlibc6-i686
p107
sVconfigs
p108
(lp109
Vkernelarch-x86/config-arch-32
p110
ass(Vbase
p111
g5
tp112
(dp113
Vfeaturesets
p114
(lp115
Vnone
p116
asVkernel-arch
p117
Vx86
p118
ss(Vbase
p119
tp120
(dp121
Vfeaturesets
p122
(lp123
Vnone
p124
asVarches
p125
(lp126
Vamd64
p127
aVi386
p128
asVcompiler
p129
Vgcc-6
p130
ss(Vimage
p131
tp132
(dp133
Vinitramfs-generators
p134
(lp135
Vinitramfs-tools
p136
aVinitramfs-fallback
p137
asVtype
p138
Vplain
p139
ss(Vversion
p140
tp141
(dp142
Vabiname_base
p143
V4.7.0-rc5
p144
sVsource
p145
V4.7~rc5-1~exp1
p146
sVabiname
p147
g144
sVupstream
p148
V4.7-rc5
p149
ss(Vxen
p150
g16
g31
Vsiduction-amd64
p151
tp152
(dp153
Vflavours
p154
(lp155
Vsiduction-amd64
p156
ass(Vbase
p157
g5
Vnone
p158
tp159
(dp160
Vflavours
p161
(lp162
Vsiduction-686
p163
aVsiduction-686-pae
p164
ass(Vimage
p165
g16
NVsiduction-amd64
p166
tp167
(dp168
Vconfigs
p169
(lp170
Vkernelarch-x86/config-arch-64
p171
ass(Vbase
p172
g16
g31
tp173
(dp174
Vimplicit-flavour
p175
I01
sVflavours
p176
(lp177
Vsiduction-amd64
p178
ass(Vbase
p179
g16
tp180
(dp181
Vfeaturesets
p182
(lp183
Vnone
p184
ag31
asVkernel-arch
p185
Vx86
p186
ss(Vdescription
p187
g5
NVsiduction-686-pae
p188
tp189
(dp190
Vhardware-long
p191
VPCs with one or more processors supporting PAE
p192
sVhardware
p193
Vmodern PCs
p194
sVparts
p195
(lp196
Vpae
p197
ass(Vdescription
p198
g5
g158
V686-pae
p199
tp200
(dp201
Vparts
p202
(lp203
Vxen
p204
ass(Vrelations
p205
tp206
(dp207
Vgcc-6
p208
Vgcc-6
p209
sVinitramfs-fallback
p210
Vlinux-initramfs-tool
p211
sVinitramfs-tools
p212
Vinitramfs-tools (>= 0.110~)
p213
sstp214
Rp215
.