ccopy_reg
_reconstructor
p0
(cdebian_linux.config
ConfigCore
p1
c__builtin__
dict
p2
(dp3
(Vimage
p4
Vi386
p5
tp6
(dp7
Vconfigs
p8
(lp9
sVsuggests
p10
Vcrda
p11
sVinstall-stem
p12
Vvmlinuz
p13
sVbootloaders
p14
(lp15
Vgrub-pc
p16
aVextlinux
p17
aVgrub-efi-ia32
p18
ass(Vbase
p19
Vamd64
p20
Vnone
p21
tp22
(dp23
Vimplicit-flavour
p24
I01
sVflavours
p25
(lp26
Vsiduction-amd64
p27
ass(Vbase
p28
g5
Vnone
p29
tp30
(dp31
Vflavours
p32
(lp33
Vsiduction-686
p34
aVsiduction-686-pae
p35
ass(Vbase
p36
tp37
(dp38
Varches
p39
(lp40
Vamd64
p41
aVi386
p42
asVfeaturesets
p43
(lp44
Vnone
p45
asVcompiler
p46
Vgcc-6
p47
ss(Vdescription
p48
g20
NVsiduction-amd64
p49
tp50
(dp51
Vhardware-long
p52
VPCs with AMD64 or Intel 64 processors
p53
sVhardware
p54
V64-bit PCs
p55
ss(Vdescription
p56
g20
g21
Vsiduction-amd64
p57
tp58
(dp59
Vparts
p60
(lp61
Vxen
p62
ass(Vrelations
p63
tp64
(dp65
Vgcc-6
p66
Vgcc-6
p67
sVinitramfs-fallback
p68
Vlinux-initramfs-tool
p69
sVinitramfs-tools
p70
Vinitramfs-tools (>= 0.110~)
p71
ss(Vimage
p72
g5
NVsiduction-686-pae
p73
tp74
(dp75
Vconfigs
p76
(lp77
Vkernelarch-x86/config-arch-32
p78
aVkernelarch-x86/config-arch-32-pae
p79
asVrecommends
p80
Vlibc6-i686
p81
ss(Vdescription
p82
g5
g29
V686-pae
p83
tp84
(dp85
Vparts
p86
(lp87
Vxen
p88
ass(Vdescription
p89
g5
tp90
(dp91
Vpart-long-pae
p92
VThis kernel requires PAE (Physical Address Extension)\u000aThis feature is supported by the Intel Pentium Pro/II/III/4/4M/D, Xeon,\u000aCore and Atom; AMD Geode NX, Athlon (K7), Duron, Opteron, Sempron,\u000aTurion or Phenom; Transmeta Efficeon; VIA C7; and some other processors.
p93
ss(Vabi
p94
tp95
(dp96
Vabiname
p97
Vtowo.2
p98
ss(Vbase
p99
g5
tp100
(dp101
Vkernel-arch
p102
Vx86
p103
sVfeaturesets
p104
(lp105
Vnone
p106
ass(Vimage
p107
g20
NVsiduction-amd64
p108
tp109
(dp110
Vconfigs
p111
(lp112
Vkernelarch-x86/config-arch-64
p113
ass(Vversion
p114
tp115
(dp116
Vabiname_base
p117
V4.7.1
p118
sVupstream
p119
V4.7
p120
sVsource
p121
V4.7-3
p122
sVabiname
p123
V4.7.1-towo.2
p124
ss(Vdescription
p125
g5
NVsiduction-686-pae
p126
tp127
(dp128
Vhardware-long
p129
VPCs with one or more processors supporting PAE
p130
sVparts
p131
(lp132
Vpae
p133
asVhardware
p134
Vmodern PCs
p135
ss(Vimage
p136
tp137
(dp138
Vinitramfs-generators
p139
(lp140
Vinitramfs-tools
p141
aVinitramfs-fallback
p142
asVtype
p143
Vplain
p144
ss(Vbuild
p145
g20
tp146
(dp147
Vdebug-info
p148
I00
sVimage-file
p149
Varch/x86/boot/bzImage
p150
ss(Vbuild
p151
g5
tp152
(dp153
Vdebug-info
p154
I00
sVimage-file
p155
Varch/x86/boot/bzImage
p156
ss(Vbuild
p157
g5
NVsiduction-686-pae
p158
tp159
(dp160
Vdebug-info
p161
I00
ss(Vimage
p162
g5
NVsiduction-686
p163
tp164
(dp165
Vconfigs
p166
(lp167
Vkernelarch-x86/config-arch-32
p168
asVrecommends
p169
Vlibc6-i686
p170
ss(Vxen
p171
g20
g21
Vsiduction-amd64
p172
tp173
(dp174
Vflavours
p175
(lp176
Vsiduction-amd64
p177
ass(Vdescription
p178
g5
NVsiduction-686
p179
tp180
(dp181
Vhardware-long
p182
VPCs with Intel Pentium Pro/II/III/4/4M/D/M, Xeon, Celeron, Core or Atom; AMD Geode LX/NX, Athlon (K7), Duron, Opteron, Sempron, Turion or Phenom; Transmeta Efficeon; VIA C3 "Nehemiah" or C7 processors
p183
sVhardware
p184
Vmodern PCs
p185
ss(Vdescription
p186
tp187
(dp188
Vpart-long-xen
p189
VThis kernel also runs on a Xen hypervisor.\u000aIt supports both privileged (dom0) and unprivileged (domU) operation.
p190
sVpart-long-up
p191
VThis kernel is not suitable for SMP (multi-processor,\u000amulti-core or hyper-threaded) systems.
p192
ss(Vimage
p193
g20
tp194
(dp195
Vconfigs
p196
(lp197
sVsuggests
p198
Vcrda
p199
sVinstall-stem
p200
Vvmlinuz
p201
sVbootloaders
p202
(lp203
Vgrub-pc
p204
aVextlinux
p205
aVgrub-efi-amd64
p206
ass(Vbase
p207
g20
tp208
(dp209
Vkernel-arch
p210
Vx86
p211
sVfeaturesets
p212
(lp213
Vnone
p214
ag21
asstp215
Rp216
.