ccopy_reg
_reconstructor
p0
(cdebian_linux.config
ConfigCore
p1
c__builtin__
dict
p2
(dp3
(Vbuild
p4
Vamd64
p5
tp6
(dp7
Vdebug-info
p8
I00
sVimage-file
p9
Varch/x86/boot/bzImage
p10
ss(Vrelations
p11
tp12
(dp13
Vgcc-6
p14
Vgcc-6
p15
sVinitramfs-fallback
p16
Vlinux-initramfs-tool
p17
sVinitramfs-tools
p18
Vinitramfs-tools (>= 0.110~)
p19
ss(Vbuild
p20
Vi386
p21
NVsiduction-686-pae
p22
tp23
(dp24
Vdebug-info
p25
I00
ss(Vimage
p26
g21
NVsiduction-686-pae
p27
tp28
(dp29
Vrecommends
p30
Vlibc6-i686
p31
sVconfigs
p32
(lp33
Vkernelarch-x86/config-arch-32
p34
aVkernelarch-x86/config-arch-32-pae
p35
ass(Vbuild
p36
g21
tp37
(dp38
Vdebug-info
p39
I00
sVimage-file
p40
Varch/x86/boot/bzImage
p41
ss(Vversion
p42
tp43
(dp44
Vupstream
p45
V4.7
p46
sVabiname
p47
V4.7.0-towo.1
p48
sVsource
p49
V4.7-1
p50
sVabiname_base
p51
V4.7.0
p52
ss(Vabi
p53
tp54
(dp55
Vabiname
p56
Vtowo.1
p57
ss(Vxen
p58
g5
Vnone
p59
Vsiduction-amd64
p60
tp61
(dp62
Vflavours
p63
(lp64
Vsiduction-amd64
p65
ass(Vdescription
p66
g21
Vnone
p67
V686-pae
p68
tp69
(dp70
Vparts
p71
(lp72
Vxen
p73
ass(Vdescription
p74
tp75
(dp76
Vpart-long-xen
p77
VThis kernel also runs on a Xen hypervisor.\u000aIt supports both privileged (dom0) and unprivileged (domU) operation.
p78
sVpart-long-up
p79
VThis kernel is not suitable for SMP (multi-processor,\u000amulti-core or hyper-threaded) systems.
p80
ss(Vdescription
p81
g5
NVsiduction-amd64
p82
tp83
(dp84
Vhardware-long
p85
VPCs with AMD64 or Intel 64 processors
p86
sVhardware
p87
V64-bit PCs
p88
ss(Vimage
p89
g21
tp90
(dp91
Vinstall-stem
p92
Vvmlinuz
p93
sVconfigs
p94
(lp95
sVbootloaders
p96
(lp97
Vgrub-pc
p98
aVextlinux
p99
aVgrub-efi-ia32
p100
asVsuggests
p101
Vcrda
p102
ss(Vimage
p103
g5
NVsiduction-amd64
p104
tp105
(dp106
Vconfigs
p107
(lp108
Vkernelarch-x86/config-arch-64
p109
ass(Vbase
p110
g5
tp111
(dp112
Vfeaturesets
p113
(lp114
Vnone
p115
ag59
asVkernel-arch
p116
Vx86
p117
ss(Vimage
p118
g5
tp119
(dp120
Vinstall-stem
p121
Vvmlinuz
p122
sVconfigs
p123
(lp124
sVbootloaders
p125
(lp126
Vgrub-pc
p127
aVextlinux
p128
aVgrub-efi-amd64
p129
asVsuggests
p130
Vcrda
p131
ss(Vbase
p132
g21
tp133
(dp134
Vfeaturesets
p135
(lp136
Vnone
p137
asVkernel-arch
p138
Vx86
p139
ss(Vbase
p140
tp141
(dp142
Varches
p143
(lp144
Vamd64
p145
aVi386
p146
asVcompiler
p147
Vgcc-6
p148
sVfeaturesets
p149
(lp150
Vnone
p151
ass(Vdescription
p152
g21
tp153
(dp154
Vpart-long-pae
p155
VThis kernel requires PAE (Physical Address Extension)\u000aThis feature is supported by the Intel Pentium Pro/II/III/4/4M/D, Xeon,\u000aCore and Atom; AMD Geode NX, Athlon (K7), Duron, Opteron, Sempron,\u000aTurion or Phenom; Transmeta Efficeon; VIA C7; and some other processors.
p156
ss(Vbase
p157
g21
g67
tp158
(dp159
Vflavours
p160
(lp161
Vsiduction-686
p162
aVsiduction-686-pae
p163
ass(Vdescription
p164
g21
NVsiduction-686-pae
p165
tp166
(dp167
Vhardware-long
p168
VPCs with one or more processors supporting PAE
p169
sVparts
p170
(lp171
Vpae
p172
asVhardware
p173
Vmodern PCs
p174
ss(Vdescription
p175
g5
g59
Vsiduction-amd64
p176
tp177
(dp178
Vparts
p179
(lp180
Vxen
p181
ass(Vimage
p182
tp183
(dp184
Vinitramfs-generators
p185
(lp186
Vinitramfs-tools
p187
aVinitramfs-fallback
p188
asVtype
p189
Vplain
p190
ss(Vdescription
p191
g21
NVsiduction-686
p192
tp193
(dp194
Vhardware-long
p195
VPCs with Intel Pentium Pro/II/III/4/4M/D/M, Xeon, Celeron, Core or Atom; AMD Geode LX/NX, Athlon (K7), Duron, Opteron, Sempron, Turion or Phenom; Transmeta Efficeon; VIA C3 "Nehemiah" or C7 processors
p196
sVhardware
p197
Vmodern PCs
p198
ss(Vbase
p199
g5
g59
tp200
(dp201
Vflavours
p202
(lp203
Vsiduction-amd64
p204
asVimplicit-flavour
p205
I01
ss(Vimage
p206
g21
NVsiduction-686
p207
tp208
(dp209
Vrecommends
p210
Vlibc6-i686
p211
sVconfigs
p212
(lp213
Vkernelarch-x86/config-arch-32
p214
asstp215
Rp216
.