ccopy_reg
_reconstructor
p0
(cdebian_linux.config
ConfigCore
p1
c__builtin__
dict
p2
(dp3
(Vimage
p4
Vamd64
p5
tp6
(dp7
Vinstall-stem
p8
Vvmlinuz
p9
sVconfigs
p10
(lp11
sVbootloaders
p12
(lp13
Vgrub-pc
p14
aVextlinux
p15
aVgrub-efi-amd64
p16
asVsuggests
p17
Vcrda
p18
ss(Vdescription
p19
tp20
(dp21
Vpart-long-up
p22
VThis kernel is not suitable for SMP (multi-processor,\u000amulti-core or hyper-threaded) systems.
p23
sVpart-long-xen
p24
VThis kernel also runs on a Xen hypervisor.\u000aIt supports both privileged (dom0) and unprivileged (domU) operation.
p25
ss(Vdescription
p26
Vi386
p27
tp28
(dp29
Vpart-long-pae
p30
VThis kernel requires PAE (Physical Address Extension)\u000aThis feature is supported by the Intel Pentium Pro/II/III/4/4M/D, Xeon,\u000aCore and Atom; AMD Geode NX, Athlon (K7), Duron, Opteron, Sempron,\u000aTurion or Phenom; Transmeta Efficeon; VIA C7; and some other processors.
p31
ss(Vxen
p32
g5
Vnone
p33
Vsiduction-amd64
p34
tp35
(dp36
Vflavours
p37
(lp38
Vsiduction-amd64
p39
ass(Vbase
p40
g5
g33
tp41
(dp42
Vimplicit-flavour
p43
I01
sVflavours
p44
(lp45
Vsiduction-amd64
p46
ass(Vbuild
p47
g5
tp48
(dp49
Vimage-file
p50
Varch/x86/boot/bzImage
p51
sVdebug-info
p52
I00
ss(Vdescription
p53
g5
g33
Vsiduction-amd64
p54
tp55
(dp56
Vparts
p57
(lp58
Vxen
p59
ass(Vdescription
p60
g27
NVsiduction-686-pae
p61
tp62
(dp63
Vhardware
p64
Vmodern PCs
p65
sVparts
p66
(lp67
Vpae
p68
asVhardware-long
p69
VPCs with one or more processors supporting PAE
p70
ss(Vbase
p71
g5
tp72
(dp73
Vfeaturesets
p74
(lp75
Vnone
p76
ag33
asVkernel-arch
p77
Vx86
p78
ss(Vabi
p79
tp80
(dp81
Vabiname
p82
Vtowo.2
p83
ss(Vbuild
p84
g27
NVsiduction-686-pae
p85
tp86
(dp87
Vdebug-info
p88
I00
ss(Vimage
p89
tp90
(dp91
Vtype
p92
Vplain
p93
sVinitramfs-generators
p94
(lp95
Vinitramfs-tools
p96
aVinitramfs-fallback
p97
ass(Vdescription
p98
g27
NVsiduction-686
p99
tp100
(dp101
Vhardware
p102
Vmodern PCs
p103
sVhardware-long
p104
VPCs with Intel Pentium Pro/II/III/4/4M/D/M, Xeon, Celeron, Core or Atom; AMD Geode LX/NX, Athlon (K7), Duron, Opteron, Sempron, Turion or Phenom; Transmeta Efficeon; VIA C3 "Nehemiah" or C7 processors
p105
ss(Vbase
p106
g27
tp107
(dp108
Vkernel-arch
p109
Vx86
p110
sVfeaturesets
p111
(lp112
Vnone
p113
ass(Vdescription
p114
g27
Vnone
p115
V686-pae
p116
tp117
(dp118
Vparts
p119
(lp120
Vxen
p121
ass(Vimage
p122
g27
tp123
(dp124
Vinstall-stem
p125
Vvmlinuz
p126
sVconfigs
p127
(lp128
sVbootloaders
p129
(lp130
Vgrub-pc
p131
aVextlinux
p132
aVgrub-efi-ia32
p133
asVsuggests
p134
Vcrda
p135
ss(Vbuild
p136
g27
tp137
(dp138
Vimage-file
p139
Varch/x86/boot/bzImage
p140
sVdebug-info
p141
I00
ss(Vversion
p142
tp143
(dp144
Vabiname_base
p145
V4.7.6
p146
sVsource
p147
V4.7-14
p148
sVabiname
p149
V4.7.6-towo.2
p150
sVupstream
p151
V4.7
p152
ss(Vimage
p153
g27
NVsiduction-686
p154
tp155
(dp156
Vconfigs
p157
(lp158
Vkernelarch-x86/config-arch-32
p159
asVrecommends
p160
Vlibc6-i686
p161
ss(Vbase
p162
tp163
(dp164
Varches
p165
(lp166
Vamd64
p167
aVi386
p168
asVcompiler
p169
Vgcc-6
p170
sVfeaturesets
p171
(lp172
Vnone
p173
ass(Vimage
p174
g5
NVsiduction-amd64
p175
tp176
(dp177
Vconfigs
p178
(lp179
Vkernelarch-x86/config-arch-64
p180
ass(Vdescription
p181
g5
NVsiduction-amd64
p182
tp183
(dp184
Vhardware
p185
V64-bit PCs
p186
sVhardware-long
p187
VPCs with AMD64 or Intel 64 processors
p188
ss(Vimage
p189
g27
NVsiduction-686-pae
p190
tp191
(dp192
Vconfigs
p193
(lp194
Vkernelarch-x86/config-arch-32
p195
aVkernelarch-x86/config-arch-32-pae
p196
asVrecommends
p197
Vlibc6-i686
p198
ss(Vrelations
p199
tp200
(dp201
Vgcc-6
p202
Vgcc-6
p203
sVinitramfs-tools
p204
Vinitramfs-tools (>= 0.110~)
p205
sVinitramfs-fallback
p206
Vlinux-initramfs-tool
p207
ss(Vbase
p208
g27
g115
tp209
(dp210
Vflavours
p211
(lp212
Vsiduction-686
p213
aVsiduction-686-pae
p214
asstp215
Rp216
.