ccopy_reg
_reconstructor
p0
(cdebian_linux.config
ConfigCore
p1
c__builtin__
dict
p2
(dp3
(Vbase
p4
Vamd64
p5
Vnone
p6
tp7
(dp8
Vimplicit-flavour
p9
I01
sVflavours
p10
(lp11
Vsiduction-amd64
p12
ass(Vxen
p13
g5
g6
Vsiduction-amd64
p14
tp15
(dp16
Vflavours
p17
(lp18
Vsiduction-amd64
p19
ass(Vdescription
p20
Vi386
p21
Vnone
p22
V686-pae
p23
tp24
(dp25
Vparts
p26
(lp27
Vxen
p28
ass(Vbuild
p29
g21
tp30
(dp31
Vdebug-info
p32
I00
sVimage-file
p33
Varch/x86/boot/bzImage
p34
ss(Vimage
p35
g5
NVsiduction-amd64
p36
tp37
(dp38
Vconfigs
p39
(lp40
Vkernelarch-x86/config-arch-64
p41
ass(Vbase
p42
g21
tp43
(dp44
Vfeaturesets
p45
(lp46
Vnone
p47
asVkernel-arch
p48
Vx86
p49
ss(Vbuild
p50
g21
NVsiduction-686-pae
p51
tp52
(dp53
Vdebug-info
p54
I00
ss(Vdescription
p55
tp56
(dp57
Vpart-long-up
p58
VThis kernel is not suitable for SMP (multi-processor,\u000amulti-core or hyper-threaded) systems.
p59
sVpart-long-xen
p60
VThis kernel also runs on a Xen hypervisor.\u000aIt supports both privileged (dom0) and unprivileged (domU) operation.
p61
ss(Vimage
p62
tp63
(dp64
Vinitramfs-generators
p65
(lp66
Vinitramfs-tools
p67
aVinitramfs-fallback
p68
asVtype
p69
Vplain
p70
ss(Vabi
p71
tp72
(dp73
Vabiname
p74
Vtowo.2
p75
ss(Vdescription
p76
g21
NVsiduction-686-pae
p77
tp78
(dp79
Vhardware-long
p80
VPCs with one or more processors supporting PAE
p81
sVparts
p82
(lp83
Vpae
p84
asVhardware
p85
Vmodern PCs
p86
ss(Vbase
p87
g21
g22
tp88
(dp89
Vflavours
p90
(lp91
Vsiduction-686
p92
aVsiduction-686-pae
p93
ass(Vbase
p94
tp95
(dp96
Varches
p97
(lp98
Vamd64
p99
aVi386
p100
asVcompiler
p101
Vgcc-6
p102
sVfeaturesets
p103
(lp104
Vnone
p105
ass(Vversion
p106
tp107
(dp108
Vabiname_base
p109
V4.7.2
p110
sVabiname
p111
V4.7.2-towo.2
p112
sVsource
p113
V4.7-6
p114
sVupstream
p115
V4.7
p116
ss(Vdescription
p117
g5
g6
Vsiduction-amd64
p118
tp119
(dp120
Vparts
p121
(lp122
Vxen
p123
ass(Vdescription
p124
g21
NVsiduction-686
p125
tp126
(dp127
Vhardware-long
p128
VPCs with Intel Pentium Pro/II/III/4/4M/D/M, Xeon, Celeron, Core or Atom; AMD Geode LX/NX, Athlon (K7), Duron, Opteron, Sempron, Turion or Phenom; Transmeta Efficeon; VIA C3 "Nehemiah" or C7 processors
p129
sVhardware
p130
Vmodern PCs
p131
ss(Vimage
p132
g21
NVsiduction-686-pae
p133
tp134
(dp135
Vconfigs
p136
(lp137
Vkernelarch-x86/config-arch-32
p138
aVkernelarch-x86/config-arch-32-pae
p139
asVrecommends
p140
Vlibc6-i686
p141
ss(Vdescription
p142
g21
tp143
(dp144
Vpart-long-pae
p145
VThis kernel requires PAE (Physical Address Extension)\u000aThis feature is supported by the Intel Pentium Pro/II/III/4/4M/D, Xeon,\u000aCore and Atom; AMD Geode NX, Athlon (K7), Duron, Opteron, Sempron,\u000aTurion or Phenom; Transmeta Efficeon; VIA C7; and some other processors.
p146
ss(Vbuild
p147
g5
tp148
(dp149
Vdebug-info
p150
I00
sVimage-file
p151
Varch/x86/boot/bzImage
p152
ss(Vimage
p153
g21
NVsiduction-686
p154
tp155
(dp156
Vconfigs
p157
(lp158
Vkernelarch-x86/config-arch-32
p159
asVrecommends
p160
Vlibc6-i686
p161
ss(Vimage
p162
g21
tp163
(dp164
Vconfigs
p165
(lp166
sVsuggests
p167
Vcrda
p168
sVinstall-stem
p169
Vvmlinuz
p170
sVbootloaders
p171
(lp172
Vgrub-pc
p173
aVextlinux
p174
aVgrub-efi-ia32
p175
ass(Vrelations
p176
tp177
(dp178
Vinitramfs-fallback
p179
Vlinux-initramfs-tool
p180
sVgcc-6
p181
Vgcc-6
p182
sVinitramfs-tools
p183
Vinitramfs-tools (>= 0.110~)
p184
ss(Vbase
p185
g5
tp186
(dp187
Vfeaturesets
p188
(lp189
Vnone
p190
ag6
asVkernel-arch
p191
Vx86
p192
ss(Vimage
p193
g5
tp194
(dp195
Vconfigs
p196
(lp197
sVsuggests
p198
Vcrda
p199
sVinstall-stem
p200
Vvmlinuz
p201
sVbootloaders
p202
(lp203
Vgrub-pc
p204
aVextlinux
p205
aVgrub-efi-amd64
p206
ass(Vdescription
p207
g5
NVsiduction-amd64
p208
tp209
(dp210
Vhardware-long
p211
VPCs with AMD64 or Intel 64 processors
p212
sVhardware
p213
V64-bit PCs
p214
sstp215
Rp216
.