ccopy_reg
_reconstructor
p0
(cdebian_linux.config
ConfigCore
p1
c__builtin__
dict
p2
(dp3
(Vdescription
p4
Vi386
p5
tp6
(dp7
Vpart-long-pae
p8
VThis kernel requires PAE (Physical Address Extension)\u000aThis feature is supported by the Intel Pentium Pro/II/III/4/4M/D, Xeon,\u000aCore and Atom; AMD Geode NX, Athlon (K7), Duron, Opteron, Sempron,\u000aTurion or Phenom; Transmeta Efficeon; VIA C7; and some other processors.
p9
ss(Vbuild
p10
g5
tp11
(dp12
Vimage-file
p13
Varch/x86/boot/bzImage
p14
sVdebug-info
p15
I00
ss(Vimage
p16
tp17
(dp18
Vinitramfs-generators
p19
(lp20
Vinitramfs-tools
p21
aVinitramfs-fallback
p22
asVtype
p23
Vplain
p24
ss(Vimage
p25
Vamd64
p26
NVsiduction-amd64
p27
tp28
(dp29
Vconfigs
p30
(lp31
Vkernelarch-x86/config-arch-64
p32
ass(Vdescription
p33
g26
Vnone
p34
Vsiduction-amd64
p35
tp36
(dp37
Vparts
p38
(lp39
Vxen
p40
ass(Vdescription
p41
tp42
(dp43
Vpart-long-xen
p44
VThis kernel also runs on a Xen hypervisor.\u000aIt supports both privileged (dom0) and unprivileged (domU) operation.
p45
sVpart-long-up
p46
VThis kernel is not suitable for SMP (multi-processor,\u000amulti-core or hyper-threaded) systems.
p47
ss(Vbase
p48
g26
g34
tp49
(dp50
Vimplicit-flavour
p51
I01
sVflavours
p52
(lp53
Vsiduction-amd64
p54
ass(Vimage
p55
g5
tp56
(dp57
Vsuggests
p58
Vcrda
p59
sVbootloaders
p60
(lp61
Vgrub-pc
p62
aVextlinux
p63
aVgrub-efi-ia32
p64
asVconfigs
p65
(lp66
sVinstall-stem
p67
Vvmlinuz
p68
ss(Vabi
p69
tp70
(dp71
Vabiname
p72
Vtowo.1
p73
ss(Vbase
p74
g26
tp75
(dp76
Vfeaturesets
p77
(lp78
Vnone
p79
ag34
asVkernel-arch
p80
Vx86
p81
ss(Vxen
p82
g26
g34
Vsiduction-amd64
p83
tp84
(dp85
Vflavours
p86
(lp87
Vsiduction-amd64
p88
ass(Vdescription
p89
g26
NVsiduction-amd64
p90
tp91
(dp92
Vhardware
p93
V64-bit PCs
p94
sVhardware-long
p95
VPCs with AMD64 or Intel 64 processors
p96
ss(Vbuild
p97
g5
NVsiduction-686-pae
p98
tp99
(dp100
Vdebug-info
p101
I00
ss(Vdescription
p102
g5
NVsiduction-686
p103
tp104
(dp105
Vhardware
p106
Vmodern PCs
p107
sVhardware-long
p108
VPCs with Intel Pentium Pro/II/III/4/4M/D/M, Xeon, Celeron, Core or Atom; AMD Geode LX/NX, Athlon (K7), Duron, Opteron, Sempron, Turion or Phenom; Transmeta Efficeon; VIA C3 "Nehemiah" or C7 processors
p109
ss(Vbase
p110
g5
Vnone
p111
tp112
(dp113
Vflavours
p114
(lp115
Vsiduction-686
p116
aVsiduction-686-pae
p117
ass(Vbuild
p118
g26
tp119
(dp120
Vimage-file
p121
Varch/x86/boot/bzImage
p122
sVdebug-info
p123
I00
ss(Vimage
p124
g5
NVsiduction-686-pae
p125
tp126
(dp127
Vrecommends
p128
Vlibc6-i686
p129
sVconfigs
p130
(lp131
Vkernelarch-x86/config-arch-32
p132
aVkernelarch-x86/config-arch-32-pae
p133
ass(Vrelations
p134
tp135
(dp136
Vinitramfs-tools
p137
Vinitramfs-tools (>= 0.110~)
p138
sVgcc-6
p139
Vgcc-6
p140
sVinitramfs-fallback
p141
Vlinux-initramfs-tool
p142
ss(Vimage
p143
g26
tp144
(dp145
Vsuggests
p146
Vcrda
p147
sVbootloaders
p148
(lp149
Vgrub-pc
p150
aVextlinux
p151
aVgrub-efi-amd64
p152
asVconfigs
p153
(lp154
sVinstall-stem
p155
Vvmlinuz
p156
ss(Vimage
p157
g5
NVsiduction-686
p158
tp159
(dp160
Vrecommends
p161
Vlibc6-i686
p162
sVconfigs
p163
(lp164
Vkernelarch-x86/config-arch-32
p165
ass(Vbase
p166
tp167
(dp168
Vcompiler
p169
Vgcc-6
p170
sVarches
p171
(lp172
Vamd64
p173
aVi386
p174
asVfeaturesets
p175
(lp176
Vnone
p177
ass(Vversion
p178
tp179
(dp180
Vsource
p181
V4.7-11
p182
sVabiname
p183
V4.7.5-towo.1
p184
sVupstream
p185
V4.7
p186
sVabiname_base
p187
V4.7.5
p188
ss(Vdescription
p189
g5
g111
V686-pae
p190
tp191
(dp192
Vparts
p193
(lp194
Vxen
p195
ass(Vdescription
p196
g5
NVsiduction-686-pae
p197
tp198
(dp199
Vhardware
p200
Vmodern PCs
p201
sVparts
p202
(lp203
Vpae
p204
asVhardware-long
p205
VPCs with one or more processors supporting PAE
p206
ss(Vbase
p207
g5
tp208
(dp209
Vfeaturesets
p210
(lp211
Vnone
p212
asVkernel-arch
p213
Vx86
p214
sstp215
Rp216
.