ccopy_reg
_reconstructor
p0
(cdebian_linux.config
ConfigCore
p1
c__builtin__
dict
p2
(dp3
(Vdescription
p4
Vi386
p5
Vnone
p6
V686-pae
p7
tp8
(dp9
Vparts
p10
(lp11
Vxen
p12
ass(Vbase
p13
g5
tp14
(dp15
Vkernel-arch
p16
Vx86
p17
sVfeaturesets
p18
(lp19
Vnone
p20
ass(Vdescription
p21
g5
tp22
(dp23
Vpart-long-pae
p24
VThis kernel requires PAE (Physical Address Extension)\u000aThis feature is supported by the Intel Pentium Pro/II/III/4/4M/D, Xeon,\u000aCore and Atom; AMD Geode NX, Athlon (K7), Duron, Opteron, Sempron,\u000aTurion or Phenom; Transmeta Efficeon; VIA C7; and some other processors.
p25
ss(Vrelations
p26
tp27
(dp28
Vinitramfs-fallback
p29
Vlinux-initramfs-tool
p30
sVgcc-6
p31
Vgcc-6
p32
sVinitramfs-tools
p33
Vinitramfs-tools (>= 0.110~)
p34
ss(Vbase
p35
tp36
(dp37
Varches
p38
(lp39
Vamd64
p40
aVi386
p41
asVfeaturesets
p42
(lp43
Vnone
p44
asVcompiler
p45
Vgcc-6
p46
ss(Vimage
p47
g5
NVsiduction-686-pae
p48
tp49
(dp50
Vconfigs
p51
(lp52
Vkernelarch-x86/config-arch-32
p53
aVkernelarch-x86/config-arch-32-pae
p54
asVrecommends
p55
Vlibc6-i686
p56
ss(Vdescription
p57
Vamd64
p58
Vnone
p59
Vsiduction-amd64
p60
tp61
(dp62
Vparts
p63
(lp64
Vxen
p65
ass(Vxen
p66
g58
g59
Vsiduction-amd64
p67
tp68
(dp69
Vflavours
p70
(lp71
Vsiduction-amd64
p72
ass(Vimage
p73
g5
NVsiduction-686
p74
tp75
(dp76
Vconfigs
p77
(lp78
Vkernelarch-x86/config-arch-32
p79
asVrecommends
p80
Vlibc6-i686
p81
ss(Vimage
p82
tp83
(dp84
Vtype
p85
Vplain
p86
sVinitramfs-generators
p87
(lp88
Vinitramfs-tools
p89
aVinitramfs-fallback
p90
ass(Vimage
p91
g5
tp92
(dp93
Vsuggests
p94
Vcrda
p95
sVconfigs
p96
(lp97
sVinstall-stem
p98
Vvmlinuz
p99
sVbootloaders
p100
(lp101
Vgrub-pc
p102
aVextlinux
p103
aVgrub-efi-ia32
p104
ass(Vbuild
p105
g5
tp106
(dp107
Vdebug-info
p108
I00
sVimage-file
p109
Varch/x86/boot/bzImage
p110
ss(Vdescription
p111
tp112
(dp113
Vpart-long-up
p114
VThis kernel is not suitable for SMP (multi-processor,\u000amulti-core or hyper-threaded) systems.
p115
sVpart-long-xen
p116
VThis kernel also runs on a Xen hypervisor.\u000aIt supports both privileged (dom0) and unprivileged (domU) operation.
p117
ss(Vbuild
p118
g5
NVsiduction-686-pae
p119
tp120
(dp121
Vdebug-info
p122
I00
ss(Vbase
p123
g5
g6
tp124
(dp125
Vflavours
p126
(lp127
Vsiduction-686
p128
aVsiduction-686-pae
p129
ass(Vimage
p130
g58
tp131
(dp132
Vsuggests
p133
Vcrda
p134
sVconfigs
p135
(lp136
sVinstall-stem
p137
Vvmlinuz
p138
sVbootloaders
p139
(lp140
Vgrub-pc
p141
aVextlinux
p142
aVgrub-efi-amd64
p143
ass(Vdescription
p144
g58
NVsiduction-amd64
p145
tp146
(dp147
Vhardware
p148
V64-bit PCs
p149
sVhardware-long
p150
VPCs with AMD64 or Intel 64 processors
p151
ss(Vbuild
p152
g58
tp153
(dp154
Vdebug-info
p155
I00
sVimage-file
p156
Varch/x86/boot/bzImage
p157
ss(Vabi
p158
tp159
(dp160
Vabiname
p161
Vtowo.1
p162
ss(Vdescription
p163
g5
NVsiduction-686
p164
tp165
(dp166
Vhardware
p167
Vmodern PCs
p168
sVhardware-long
p169
VPCs with Intel Pentium Pro/II/III/4/4M/D/M, Xeon, Celeron, Core or Atom; AMD Geode LX/NX, Athlon (K7), Duron, Opteron, Sempron, Turion or Phenom; Transmeta Efficeon; VIA C3 "Nehemiah" or C7 processors
p170
ss(Vdescription
p171
g5
NVsiduction-686-pae
p172
tp173
(dp174
Vhardware
p175
Vmodern PCs
p176
sVhardware-long
p177
VPCs with one or more processors supporting PAE
p178
sVparts
p179
(lp180
Vpae
p181
ass(Vbase
p182
g58
tp183
(dp184
Vkernel-arch
p185
Vx86
p186
sVfeaturesets
p187
(lp188
Vnone
p189
ag59
ass(Vversion
p190
tp191
(dp192
Vupstream
p193
V4.7
p194
sVsource
p195
V4.7-2
p196
sVabiname
p197
V4.7.1-towo.1
p198
sVabiname_base
p199
V4.7.1
p200
ss(Vbase
p201
g58
g59
tp202
(dp203
Vflavours
p204
(lp205
Vsiduction-amd64
p206
asVimplicit-flavour
p207
I01
ss(Vimage
p208
g58
NVsiduction-amd64
p209
tp210
(dp211
Vconfigs
p212
(lp213
Vkernelarch-x86/config-arch-64
p214
asstp215
Rp216
.