ccopy_reg
_reconstructor
p0
(cdebian_linux.config
ConfigCore
p1
c__builtin__
dict
p2
(dp3
(Vdescription
p4
Vi386
p5
NVsiduction-686-pae
p6
tp7
(dp8
Vparts
p9
(lp10
Vpae
p11
asVhardware
p12
Vmodern PCs
p13
sVhardware-long
p14
VPCs with one or more processors supporting PAE
p15
ss(Vimage
p16
g5
NVsiduction-686-pae
p17
tp18
(dp19
Vconfigs
p20
(lp21
Vkernelarch-x86/config-arch-32
p22
aVkernelarch-x86/config-arch-32-pae
p23
asVrecommends
p24
Vlibc6-i686
p25
ss(Vimage
p26
tp27
(dp28
Vinitramfs-generators
p29
(lp30
Vinitramfs-tools
p31
aVinitramfs-fallback
p32
asVtype
p33
Vplain
p34
ss(Vbuild
p35
Vamd64
p36
tp37
(dp38
Vdebug-info
p39
I00
sVimage-file
p40
Varch/x86/boot/bzImage
p41
ss(Vbase
p42
g5
tp43
(dp44
Vkernel-arch
p45
Vx86
p46
sVfeaturesets
p47
(lp48
Vnone
p49
ass(Vbuild
p50
g5
tp51
(dp52
Vdebug-info
p53
I00
sVimage-file
p54
Varch/x86/boot/bzImage
p55
ss(Vdescription
p56
g36
Vnone
p57
Vsiduction-amd64
p58
tp59
(dp60
Vparts
p61
(lp62
Vxen
p63
ass(Vdescription
p64
tp65
(dp66
Vpart-long-xen
p67
VThis kernel also runs on a Xen hypervisor.\u000aIt supports both privileged (dom0) and unprivileged (domU) operation.
p68
sVpart-long-up
p69
VThis kernel is not suitable for SMP (multi-processor,\u000amulti-core or hyper-threaded) systems.
p70
ss(Vbase
p71
g36
tp72
(dp73
Vkernel-arch
p74
Vx86
p75
sVfeaturesets
p76
(lp77
Vnone
p78
ag57
ass(Vdescription
p79
g5
NVsiduction-686
p80
tp81
(dp82
Vhardware
p83
Vmodern PCs
p84
sVhardware-long
p85
VPCs with Intel Pentium Pro/II/III/4/4M/D/M, Xeon, Celeron, Core or Atom; AMD Geode LX/NX, Athlon (K7), Duron, Opteron, Sempron, Turion or Phenom; Transmeta Efficeon; VIA C3 "Nehemiah" or C7 processors
p86
ss(Vimage
p87
g36
tp88
(dp89
Vbootloaders
p90
(lp91
Vgrub-pc
p92
aVextlinux
p93
aVgrub-efi-amd64
p94
asVinstall-stem
p95
Vvmlinuz
p96
sVconfigs
p97
(lp98
sVsuggests
p99
Vcrda
p100
ss(Vbase
p101
tp102
(dp103
Varches
p104
(lp105
Vamd64
p106
aVi386
p107
asVfeaturesets
p108
(lp109
Vnone
p110
asVcompiler
p111
Vgcc-6
p112
ss(Vimage
p113
g36
NVsiduction-amd64
p114
tp115
(dp116
Vconfigs
p117
(lp118
Vkernelarch-x86/config-arch-64
p119
ass(Vrelations
p120
tp121
(dp122
Vinitramfs-fallback
p123
Vlinux-initramfs-tool
p124
sVinitramfs-tools
p125
Vinitramfs-tools (>= 0.110~)
p126
sVgcc-6
p127
Vgcc-6
p128
ss(Vdescription
p129
g36
NVsiduction-amd64
p130
tp131
(dp132
Vhardware
p133
V64-bit PCs
p134
sVhardware-long
p135
VPCs with AMD64 or Intel 64 processors
p136
ss(Vdescription
p137
g5
Vnone
p138
V686-pae
p139
tp140
(dp141
Vparts
p142
(lp143
Vxen
p144
ass(Vabi
p145
tp146
(dp147
Vabiname
p148
Vtowo.1
p149
ss(Vxen
p150
g36
g57
Vsiduction-amd64
p151
tp152
(dp153
Vflavours
p154
(lp155
Vsiduction-amd64
p156
ass(Vbuild
p157
g5
NVsiduction-686-pae
p158
tp159
(dp160
Vdebug-info
p161
I00
ss(Vbase
p162
g36
g57
tp163
(dp164
Vimplicit-flavour
p165
I01
sVflavours
p166
(lp167
Vsiduction-amd64
p168
ass(Vversion
p169
tp170
(dp171
Vabiname_base
p172
V4.7.4
p173
sVsource
p174
V4.7-9
p175
sVabiname
p176
V4.7.4-towo.1
p177
sVupstream
p178
V4.7
p179
ss(Vimage
p180
g5
tp181
(dp182
Vbootloaders
p183
(lp184
Vgrub-pc
p185
aVextlinux
p186
aVgrub-efi-ia32
p187
asVinstall-stem
p188
Vvmlinuz
p189
sVconfigs
p190
(lp191
sVsuggests
p192
Vcrda
p193
ss(Vdescription
p194
g5
tp195
(dp196
Vpart-long-pae
p197
VThis kernel requires PAE (Physical Address Extension)\u000aThis feature is supported by the Intel Pentium Pro/II/III/4/4M/D, Xeon,\u000aCore and Atom; AMD Geode NX, Athlon (K7), Duron, Opteron, Sempron,\u000aTurion or Phenom; Transmeta Efficeon; VIA C7; and some other processors.
p198
ss(Vbase
p199
g5
g138
tp200
(dp201
Vflavours
p202
(lp203
Vsiduction-686
p204
aVsiduction-686-pae
p205
ass(Vimage
p206
g5
NVsiduction-686
p207
tp208
(dp209
Vconfigs
p210
(lp211
Vkernelarch-x86/config-arch-32
p212
asVrecommends
p213
Vlibc6-i686
p214
sstp215
Rp216
.