ccopy_reg
_reconstructor
p0
(cdebian_linux.config
ConfigCore
p1
c__builtin__
dict
p2
(dp3
(Vimage
p4
Vi386
p5
NVsiduction-686-pae
p6
tp7
(dp8
Vconfigs
p9
(lp10
Vkernelarch-x86/config-arch-32
p11
aVkernelarch-x86/config-arch-32-pae
p12
asVrecommends
p13
Vlibc6-i686
p14
ss(Vbase
p15
Vamd64
p16
tp17
(dp18
Vkernel-arch
p19
Vx86
p20
sVfeaturesets
p21
(lp22
Vnone
p23
aVnone
p24
ass(Vdescription
p25
g5
NVsiduction-686-pae
p26
tp27
(dp28
Vhardware-long
p29
VPCs with one or more processors supporting PAE
p30
sVhardware
p31
Vmodern PCs
p32
sVparts
p33
(lp34
Vpae
p35
ass(Vrelations
p36
tp37
(dp38
Vinitramfs-tools
p39
Vinitramfs-tools (>= 0.110~)
p40
sVgcc-6
p41
Vgcc-6
p42
sVinitramfs-fallback
p43
Vlinux-initramfs-tool
p44
ss(Vabi
p45
tp46
(dp47
Vabiname
p48
Vtowo.1
p49
ss(Vbase
p50
g16
g24
tp51
(dp52
Vflavours
p53
(lp54
Vsiduction-amd64
p55
asVimplicit-flavour
p56
I01
ss(Vversion
p57
tp58
(dp59
Vsource
p60
V4.7-7
p61
sVabiname_base
p62
V4.7.3
p63
sVabiname
p64
V4.7.3-towo.1
p65
sVupstream
p66
V4.7
p67
ss(Vdescription
p68
g5
tp69
(dp70
Vpart-long-pae
p71
VThis kernel requires PAE (Physical Address Extension)\u000aThis feature is supported by the Intel Pentium Pro/II/III/4/4M/D, Xeon,\u000aCore and Atom; AMD Geode NX, Athlon (K7), Duron, Opteron, Sempron,\u000aTurion or Phenom; Transmeta Efficeon; VIA C7; and some other processors.
p72
ss(Vimage
p73
g5
tp74
(dp75
Vbootloaders
p76
(lp77
Vgrub-pc
p78
aVextlinux
p79
aVgrub-efi-ia32
p80
asVconfigs
p81
(lp82
sVinstall-stem
p83
Vvmlinuz
p84
sVsuggests
p85
Vcrda
p86
ss(Vdescription
p87
g5
NVsiduction-686
p88
tp89
(dp90
Vhardware-long
p91
VPCs with Intel Pentium Pro/II/III/4/4M/D/M, Xeon, Celeron, Core or Atom; AMD Geode LX/NX, Athlon (K7), Duron, Opteron, Sempron, Turion or Phenom; Transmeta Efficeon; VIA C3 "Nehemiah" or C7 processors
p92
sVhardware
p93
Vmodern PCs
p94
ss(Vdescription
p95
tp96
(dp97
Vpart-long-up
p98
VThis kernel is not suitable for SMP (multi-processor,\u000amulti-core or hyper-threaded) systems.
p99
sVpart-long-xen
p100
VThis kernel also runs on a Xen hypervisor.\u000aIt supports both privileged (dom0) and unprivileged (domU) operation.
p101
ss(Vbuild
p102
g16
tp103
(dp104
Vdebug-info
p105
I00
sVimage-file
p106
Varch/x86/boot/bzImage
p107
ss(Vdescription
p108
g16
NVsiduction-amd64
p109
tp110
(dp111
Vhardware-long
p112
VPCs with AMD64 or Intel 64 processors
p113
sVhardware
p114
V64-bit PCs
p115
ss(Vimage
p116
g5
NVsiduction-686
p117
tp118
(dp119
Vconfigs
p120
(lp121
Vkernelarch-x86/config-arch-32
p122
asVrecommends
p123
Vlibc6-i686
p124
ss(Vbase
p125
g5
Vnone
p126
tp127
(dp128
Vflavours
p129
(lp130
Vsiduction-686
p131
aVsiduction-686-pae
p132
ass(Vbuild
p133
g5
NVsiduction-686-pae
p134
tp135
(dp136
Vdebug-info
p137
I00
ss(Vimage
p138
tp139
(dp140
Vtype
p141
Vplain
p142
sVinitramfs-generators
p143
(lp144
Vinitramfs-tools
p145
aVinitramfs-fallback
p146
ass(Vimage
p147
g16
NVsiduction-amd64
p148
tp149
(dp150
Vconfigs
p151
(lp152
Vkernelarch-x86/config-arch-64
p153
ass(Vbase
p154
g5
tp155
(dp156
Vkernel-arch
p157
Vx86
p158
sVfeaturesets
p159
(lp160
Vnone
p161
ass(Vdescription
p162
g16
g24
Vsiduction-amd64
p163
tp164
(dp165
Vparts
p166
(lp167
Vxen
p168
ass(Vbuild
p169
g5
tp170
(dp171
Vdebug-info
p172
I00
sVimage-file
p173
Varch/x86/boot/bzImage
p174
ss(Vbase
p175
tp176
(dp177
Vcompiler
p178
Vgcc-6
p179
sVfeaturesets
p180
(lp181
Vnone
p182
asVarches
p183
(lp184
Vamd64
p185
aVi386
p186
ass(Vimage
p187
g16
tp188
(dp189
Vbootloaders
p190
(lp191
Vgrub-pc
p192
aVextlinux
p193
aVgrub-efi-amd64
p194
asVconfigs
p195
(lp196
sVinstall-stem
p197
Vvmlinuz
p198
sVsuggests
p199
Vcrda
p200
ss(Vxen
p201
g16
g24
Vsiduction-amd64
p202
tp203
(dp204
Vflavours
p205
(lp206
Vsiduction-amd64
p207
ass(Vdescription
p208
g5
g126
V686-pae
p209
tp210
(dp211
Vparts
p212
(lp213
Vxen
p214
asstp215
Rp216
.