ccopy_reg
_reconstructor
p0
(cdebian_linux.config
ConfigCore
p1
c__builtin__
dict
p2
(dp3
(Vdescription
p4
Vi386
p5
Vnone
p6
V686-pae
p7
tp8
(dp9
Vparts
p10
(lp11
Vxen
p12
ass(Vdescription
p13
tp14
(dp15
Vpart-long-up
p16
VThis kernel is not suitable for SMP (multi-processor,\u000amulti-core or hyper-threaded) systems.
p17
sVpart-long-xen
p18
VThis kernel also runs on a Xen hypervisor.\u000aIt supports both privileged (dom0) and unprivileged (domU) operation.
p19
ss(Vbase
p20
g5
tp21
(dp22
Vfeaturesets
p23
(lp24
Vnone
p25
asVkernel-arch
p26
Vx86
p27
ss(Vdescription
p28
Vamd64
p29
NVsiduction-amd64
p30
tp31
(dp32
Vhardware
p33
V64-bit PCs
p34
sVhardware-long
p35
VPCs with AMD64 or Intel 64 processors
p36
ss(Vrelations
p37
tp38
(dp39
Vinitramfs-fallback
p40
Vlinux-initramfs-tool
p41
sVinitramfs-tools
p42
Vinitramfs-tools (>= 0.110~)
p43
sVgcc-6
p44
Vgcc-6
p45
ss(Vimage
p46
g29
NVsiduction-amd64
p47
tp48
(dp49
Vconfigs
p50
(lp51
Vkernelarch-x86/config-arch-64
p52
ass(Vxen
p53
g29
Vnone
p54
Vsiduction-amd64
p55
tp56
(dp57
Vflavours
p58
(lp59
Vsiduction-amd64
p60
ass(Vbuild
p61
g5
tp62
(dp63
Vdebug-info
p64
I00
sVimage-file
p65
Varch/x86/boot/bzImage
p66
ss(Vdescription
p67
g5
NVsiduction-686-pae
p68
tp69
(dp70
Vparts
p71
(lp72
Vpae
p73
asVhardware
p74
Vmodern PCs
p75
sVhardware-long
p76
VPCs with one or more processors supporting PAE
p77
ss(Vbuild
p78
g29
tp79
(dp80
Vdebug-info
p81
I00
sVimage-file
p82
Varch/x86/boot/bzImage
p83
ss(Vbase
p84
tp85
(dp86
Vcompiler
p87
Vgcc-6
p88
sVarches
p89
(lp90
Vamd64
p91
aVi386
p92
asVfeaturesets
p93
(lp94
Vnone
p95
ass(Vimage
p96
tp97
(dp98
Vtype
p99
Vplain
p100
sVinitramfs-generators
p101
(lp102
Vinitramfs-tools
p103
aVinitramfs-fallback
p104
ass(Vversion
p105
tp106
(dp107
Vupstream
p108
V4.7
p109
sVabiname_base
p110
V4.7.2
p111
sVabiname
p112
V4.7.2-towo.1
p113
sVsource
p114
V4.7-4
p115
ss(Vbase
p116
g29
tp117
(dp118
Vfeaturesets
p119
(lp120
Vnone
p121
ag54
asVkernel-arch
p122
Vx86
p123
ss(Vdescription
p124
g5
NVsiduction-686
p125
tp126
(dp127
Vhardware
p128
Vmodern PCs
p129
sVhardware-long
p130
VPCs with Intel Pentium Pro/II/III/4/4M/D/M, Xeon, Celeron, Core or Atom; AMD Geode LX/NX, Athlon (K7), Duron, Opteron, Sempron, Turion or Phenom; Transmeta Efficeon; VIA C3 "Nehemiah" or C7 processors
p131
ss(Vbuild
p132
g5
NVsiduction-686-pae
p133
tp134
(dp135
Vdebug-info
p136
I00
ss(Vabi
p137
tp138
(dp139
Vabiname
p140
Vtowo.1
p141
ss(Vimage
p142
g5
NVsiduction-686
p143
tp144
(dp145
Vconfigs
p146
(lp147
Vkernelarch-x86/config-arch-32
p148
asVrecommends
p149
Vlibc6-i686
p150
ss(Vbase
p151
g5
g6
tp152
(dp153
Vflavours
p154
(lp155
Vsiduction-686
p156
aVsiduction-686-pae
p157
ass(Vimage
p158
g5
tp159
(dp160
Vsuggests
p161
Vcrda
p162
sVinstall-stem
p163
Vvmlinuz
p164
sVbootloaders
p165
(lp166
Vgrub-pc
p167
aVextlinux
p168
aVgrub-efi-ia32
p169
asVconfigs
p170
(lp171
ss(Vdescription
p172
g29
g54
Vsiduction-amd64
p173
tp174
(dp175
Vparts
p176
(lp177
Vxen
p178
ass(Vbase
p179
g29
g54
tp180
(dp181
Vflavours
p182
(lp183
Vsiduction-amd64
p184
asVimplicit-flavour
p185
I01
ss(Vimage
p186
g29
tp187
(dp188
Vsuggests
p189
Vcrda
p190
sVinstall-stem
p191
Vvmlinuz
p192
sVbootloaders
p193
(lp194
Vgrub-pc
p195
aVextlinux
p196
aVgrub-efi-amd64
p197
asVconfigs
p198
(lp199
ss(Vdescription
p200
g5
tp201
(dp202
Vpart-long-pae
p203
VThis kernel requires PAE (Physical Address Extension)\u000aThis feature is supported by the Intel Pentium Pro/II/III/4/4M/D, Xeon,\u000aCore and Atom; AMD Geode NX, Athlon (K7), Duron, Opteron, Sempron,\u000aTurion or Phenom; Transmeta Efficeon; VIA C7; and some other processors.
p204
ss(Vimage
p205
g5
NVsiduction-686-pae
p206
tp207
(dp208
Vconfigs
p209
(lp210
Vkernelarch-x86/config-arch-32
p211
aVkernelarch-x86/config-arch-32-pae
p212
asVrecommends
p213
Vlibc6-i686
p214
sstp215
Rp216
.