ccopy_reg
_reconstructor
p0
(cdebian_linux.config
ConfigCore
p1
c__builtin__
dict
p2
(dp3
(Vbuild
p4
Vi386
p5
NVsiduction-686-pae
p6
tp7
(dp8
Vdebug-info
p9
I00
ss(Vimage
p10
Vamd64
p11
tp12
(dp13
Vbootloaders
p14
(lp15
Vgrub-pc
p16
aVextlinux
p17
aVgrub-efi-amd64
p18
asVsuggests
p19
Vcrda
p20
sVconfigs
p21
(lp22
sVinstall-stem
p23
Vvmlinuz
p24
ss(Vdescription
p25
g5
tp26
(dp27
Vpart-long-pae
p28
VThis kernel requires PAE (Physical Address Extension)\u000aThis feature is supported by the Intel Pentium Pro/II/III/4/4M/D, Xeon,\u000aCore and Atom; AMD Geode NX, Athlon (K7), Duron, Opteron, Sempron,\u000aTurion or Phenom; Transmeta Efficeon; VIA C7; and some other processors.
p29
ss(Vbuild
p30
g11
tp31
(dp32
Vimage-file
p33
Varch/x86/boot/bzImage
p34
sVdebug-info
p35
I00
ss(Vbase
p36
g5
tp37
(dp38
Vfeaturesets
p39
(lp40
Vnone
p41
asVkernel-arch
p42
Vx86
p43
ss(Vxen
p44
g11
Vnone
p45
Vsiduction-amd64
p46
tp47
(dp48
Vflavours
p49
(lp50
Vsiduction-amd64
p51
ass(Vimage
p52
g5
NVsiduction-686
p53
tp54
(dp55
Vconfigs
p56
(lp57
Vkernelarch-x86/config-arch-32
p58
asVrecommends
p59
Vlibc6-i686
p60
ss(Vimage
p61
g11
NVsiduction-amd64
p62
tp63
(dp64
Vconfigs
p65
(lp66
Vkernelarch-x86/config-arch-64
p67
ass(Vimage
p68
g5
NVsiduction-686-pae
p69
tp70
(dp71
Vconfigs
p72
(lp73
Vkernelarch-x86/config-arch-32
p74
aVkernelarch-x86/config-arch-32-pae
p75
asVrecommends
p76
Vlibc6-i686
p77
ss(Vdescription
p78
g5
Vnone
p79
V686-pae
p80
tp81
(dp82
Vparts
p83
(lp84
Vxen
p85
ass(Vdescription
p86
g11
g45
Vsiduction-amd64
p87
tp88
(dp89
Vparts
p90
(lp91
Vxen
p92
ass(Vdescription
p93
g11
NVsiduction-amd64
p94
tp95
(dp96
Vhardware
p97
V64-bit PCs
p98
sVhardware-long
p99
VPCs with AMD64 or Intel 64 processors
p100
ss(Vbase
p101
g11
g45
tp102
(dp103
Vimplicit-flavour
p104
I01
sVflavours
p105
(lp106
Vsiduction-amd64
p107
ass(Vrelations
p108
tp109
(dp110
Vinitramfs-fallback
p111
Vlinux-initramfs-tool
p112
sVgcc-6
p113
Vgcc-6
p114
sVinitramfs-tools
p115
Vinitramfs-tools (>= 0.110~)
p116
ss(Vimage
p117
tp118
(dp119
Vtype
p120
Vplain
p121
sVinitramfs-generators
p122
(lp123
Vinitramfs-tools
p124
aVinitramfs-fallback
p125
ass(Vbase
p126
g11
tp127
(dp128
Vfeaturesets
p129
(lp130
Vnone
p131
ag45
asVkernel-arch
p132
Vx86
p133
ss(Vbase
p134
g5
g79
tp135
(dp136
Vflavours
p137
(lp138
Vsiduction-686
p139
aVsiduction-686-pae
p140
ass(Vabi
p141
tp142
(dp143
Vabiname
p144
Vtowo.2
p145
ss(Vbuild
p146
g5
tp147
(dp148
Vimage-file
p149
Varch/x86/boot/bzImage
p150
sVdebug-info
p151
I00
ss(Vdescription
p152
g5
NVsiduction-686-pae
p153
tp154
(dp155
Vhardware
p156
Vmodern PCs
p157
sVhardware-long
p158
VPCs with one or more processors supporting PAE
p159
sVparts
p160
(lp161
Vpae
p162
ass(Vdescription
p163
tp164
(dp165
Vpart-long-xen
p166
VThis kernel also runs on a Xen hypervisor.\u000aIt supports both privileged (dom0) and unprivileged (domU) operation.
p167
sVpart-long-up
p168
VThis kernel is not suitable for SMP (multi-processor,\u000amulti-core or hyper-threaded) systems.
p169
ss(Vdescription
p170
g5
NVsiduction-686
p171
tp172
(dp173
Vhardware
p174
Vmodern PCs
p175
sVhardware-long
p176
VPCs with Intel Pentium Pro/II/III/4/4M/D/M, Xeon, Celeron, Core or Atom; AMD Geode LX/NX, Athlon (K7), Duron, Opteron, Sempron, Turion or Phenom; Transmeta Efficeon; VIA C3 "Nehemiah" or C7 processors
p177
ss(Vimage
p178
g5
tp179
(dp180
Vbootloaders
p181
(lp182
Vgrub-pc
p183
aVextlinux
p184
aVgrub-efi-ia32
p185
asVsuggests
p186
Vcrda
p187
sVconfigs
p188
(lp189
sVinstall-stem
p190
Vvmlinuz
p191
ss(Vbase
p192
tp193
(dp194
Varches
p195
(lp196
Vamd64
p197
aVi386
p198
asVcompiler
p199
Vgcc-6
p200
sVfeaturesets
p201
(lp202
Vnone
p203
ass(Vversion
p204
tp205
(dp206
Vsource
p207
V4.7-8
p208
sVabiname_base
p209
V4.7.3
p210
sVupstream
p211
V4.7
p212
sVabiname
p213
V4.7.3-towo.2
p214
sstp215
Rp216
.