ccopy_reg
_reconstructor
p1
(cdebian_linux.config
ConfigCore
p2
c__builtin__
dict
p3
(dp4
(S'image'
S'amd64'
p5
tp6
(dp7
S'suggests'
p8
S'crda'
p9
sS'configs'
p10
(lp11
S'kernelarch-x86/config'
p12
asS'bootloaders'
p13
(lp14
S'grub-pc'
p15
aS'extlinux'
p16
aS'grub-efi-amd64'
p17
ass(S'description'
g5
NS'siduction-amd64'
tp18
(dp19
S'hardware'
p20
S'64-bit PCs'
p21
sS'hardware-long'
p22
S'PCs with AMD64 or Intel 64 processors'
p23
ss(S'siduction-686_image-dbg'
p24
S'i386'
p25
tp26
(dp27
S'enabled'
p28
S'false'
p29
ss(S'base'
p30
g5
S'none'
p31
tp32
(dp33
S'implicit-flavour'
p34
I01
sS'flavours'
p35
(lp36
S'siduction-amd64'
p37
ass(S'base'
g5
tp38
(dp39
S'kernel-arch'
p40
S'x86'
p41
sS'featuresets'
p42
(lp43
g31
ass(S'image'
p44
tp45
(dp46
S'initramfs-generators'
p47
(lp48
S'initramfs-tools'
p49
aS'initramfs-fallback'
p50
asS'type'
p51
S'plain'
p52
ss(S'image'
g25
NS'siduction-686'
tp53
(dp54
S'configs'
p55
(lp56
S'kernelarch-x86/config-arch-32'
p57
asS'recommends'
p58
S'libc6-i686'
p59
ss(S'description'
g25
NS'siduction-686'
tp60
(dp61
S'hardware'
p62
S'modern PCs'
p63
sS'hardware-long'
p64
S'PCs with Intel Pentium Pro/II/III/4/4M/D/M, Xeon, Celeron, Core or Atom; AMD Geode LX/NX, Athlon (K7), Duron, Opteron, Sempron, Turion or Phenom; Transmeta Efficeon; VIA C3 "Nehemiah" or C7 processors'
p65
ss(S'image'
g25
S'none'
p66
S'siduction-686-pae'
tp67
(dp68
S'configs'
p69
(lp70
S'kernelarch-x86/config-arch-32'
p71
aS'kernelarch-x86/config-arch-32-pae'
p72
asS'recommends'
p73
S'libc6-i686'
p74
ss(S'image'
g5
NS'siduction-amd64'
tp75
(dp76
S'configs'
p77
(lp78
S'kernelarch-x86/config-arch-64'
p79
ass(S'version'
p80
tp81
(dp82
S'abiname'
p83
S'3.9-3.towo'
p84
sS'source'
p85
V3.9-7
p86
ss(S'description'
g25
g66
S'siduction-686-pae'
tp87
(dp88
S'hardware'
p89
S'modern PCs with pae support'
p90
sS'hardware-long'
p91
S'PCs with Intel Xeon, Core or Atom; AMD Geode LX/NX, Athlon (K7), Opteron, Sempron, Turion or Phenom; Transmeta Efficeon; C7 processors'
p92
ss(S'base'
p93
g25
tp94
(dp95
S'kernel-arch'
p96
S'x86'
p97
sS'featuresets'
p98
(lp99
S'none'
p100
ass(S'siduction-amd64-dbg'
g5
tp101
(dp102
S'enabled'
p103
S'false'
p104
ss(S'base'
g25
g66
tp105
(dp106
S'flavours'
p107
(lp108
S'siduction-686'
p109
aS'siduction-686-pae'
p110
ass(S'abi'
p111
tp112
(dp113
S'abiname'
p114
S'3.towo'
p115
ss(S'image'
p116
g25
tp117
(dp118
S'suggests'
p119
S'crda'
p120
sS'configs'
p121
(lp122
S'kernelarch-x86/config'
p123
asS'bootloaders'
p124
(lp125
S'grub-pc'
p126
aS'extlinux'
p127
ass(S'siduction-686-pae_image-dbg'
g25
g66
tp128
(dp129
S'enabled'
p130
S'false'
p131
ss(S'base'
p132
tp133
(dp134
S'arches'
p135
(lp136
S'amd64'
p137
aS'i386'
p138
asS'featuresets'
p139
(lp140
S'none'
p141
asS'compiler'
p142
S'gcc-4.7'
p143
ss(S'relations'
p144
tp145
(dp146
S'initramfs-fallback'
p147
S'linux-initramfs-tool'
p148
sS'lilo'
p149
S'lilo (>= 22.8-8.2~)'
p150
sS'gcc-4.7'
p151
S'gcc-4.7'
p152
sS'initramfs-tools'
p153
S'initramfs-tools (>= 0.110~)'
p154
sS'elilo'
p155
S'elilo (>= 3.12-3.1~)'
p156
sstRp157
.