ccopy_reg
_reconstructor
p1
(cdebian_linux.config
ConfigCore
p2
c__builtin__
dict
p3
(dp4
(S'image'
S'amd64'
p5
tp6
(dp7
S'suggests'
p8
S'crda'
p9
sS'configs'
p10
(lp11
S'kernelarch-x86/config'
p12
asS'bootloaders'
p13
(lp14
S'grub-pc'
p15
aS'extlinux'
p16
aS'grub-efi-amd64'
p17
ass(S'siduction-686_image-dbg'
p18
S'i386'
p19
tp20
(dp21
S'enabled'
p22
S'false'
p23
ss(S'base'
g19
S'none'
p24
tp25
(dp26
S'flavours'
p27
(lp28
S'siduction-686'
p29
aS'siduction-686-pae'
p30
ass(S'base'
g5
tp31
(dp32
S'kernel-arch'
p33
S'x86'
p34
sS'featuresets'
p35
(lp36
S'none'
p37
ass(S'image'
p38
tp39
(dp40
S'initramfs-generators'
p41
(lp42
S'initramfs-tools'
p43
aS'initramfs-fallback'
p44
asS'type'
p45
S'plain'
p46
ss(S'image'
g19
g24
S'siduction-686-pae'
tp47
(dp48
S'configs'
p49
(lp50
S'kernelarch-x86/config-arch-32'
p51
aS'kernelarch-x86/config-arch-32-pae'
p52
asS'recommends'
p53
S'libc6-i686'
p54
ss(S'version'
p55
tp56
(dp57
S'abiname'
p58
S'3.9-4.towo.1'
p59
sS'source'
p60
V3.9-9
p61
ss(S'description'
g19
g24
S'siduction-686-pae'
tp62
(dp63
S'hardware'
p64
S'modern PCs with pae support'
p65
sS'hardware-long'
p66
S'PCs with Intel Xeon, Core or Atom; AMD Geode LX/NX, Athlon (K7), Opteron, Sempron, Turion or Phenom; Transmeta Efficeon; C7 processors'
p67
ss(S'base'
p68
g19
tp69
(dp70
S'kernel-arch'
p71
S'x86'
p72
sS'featuresets'
p73
(lp74
S'none'
p75
ass(S'image'
g19
NS'siduction-686'
tp76
(dp77
S'configs'
p78
(lp79
S'kernelarch-x86/config-arch-32'
p80
asS'recommends'
p81
S'libc6-i686'
p82
ss(S'description'
g5
NS'siduction-amd64'
tp83
(dp84
S'hardware'
p85
S'64-bit PCs'
p86
sS'hardware-long'
p87
S'PCs with AMD64 or Intel 64 processors'
p88
ss(S'siduction-amd64-dbg'
g5
tp89
(dp90
S'enabled'
p91
S'false'
p92
ss(S'description'
g19
NS'siduction-686'
tp93
(dp94
S'hardware'
p95
S'modern PCs'
p96
sS'hardware-long'
p97
S'PCs with Intel Pentium Pro/II/III/4/4M/D/M, Xeon, Celeron, Core or Atom; AMD Geode LX/NX, Athlon (K7), Duron, Opteron, Sempron, Turion or Phenom; Transmeta Efficeon; VIA C3 "Nehemiah" or C7 processors'
p98
ss(S'abi'
p99
tp100
(dp101
S'abiname'
p102
S'4.towo.1'
p103
ss(S'image'
p104
g19
tp105
(dp106
S'suggests'
p107
S'crda'
p108
sS'configs'
p109
(lp110
S'kernelarch-x86/config'
p111
asS'bootloaders'
p112
(lp113
S'grub-pc'
p114
aS'extlinux'
p115
ass(S'image'
g5
NS'siduction-amd64'
tp116
(dp117
S'configs'
p118
(lp119
S'kernelarch-x86/config-arch-64'
p120
ass(S'siduction-686-pae_image-dbg'
g19
g24
tp121
(dp122
S'enabled'
p123
S'false'
p124
ss(S'base'
p125
g5
g37
tp126
(dp127
S'implicit-flavour'
p128
I01
sS'flavours'
p129
(lp130
S'siduction-amd64'
p131
ass(S'base'
p132
tp133
(dp134
S'arches'
p135
(lp136
S'amd64'
p137
aS'i386'
p138
asS'featuresets'
p139
(lp140
S'none'
p141
asS'compiler'
p142
S'gcc-4.7'
p143
ss(S'relations'
p144
tp145
(dp146
S'initramfs-fallback'
p147
S'linux-initramfs-tool'
p148
sS'lilo'
p149
S'lilo (>= 22.8-8.2~)'
p150
sS'gcc-4.7'
p151
S'gcc-4.7'
p152
sS'initramfs-tools'
p153
S'initramfs-tools (>= 0.110~)'
p154
sS'elilo'
p155
S'elilo (>= 3.12-3.1~)'
p156
sstRp157
.