ccopy_reg
_reconstructor
p1
(cdebian_linux.config
ConfigCore
p2
c__builtin__
dict
p3
(dp4
(S'image'
S'amd64'
p5
tp6
(dp7
S'suggests'
p8
S'crda'
p9
sS'configs'
p10
(lp11
S'kernelarch-x86/config'
p12
asS'bootloaders'
p13
(lp14
S'grub-pc'
p15
aS'extlinux'
p16
aS'grub-efi-amd64'
p17
ass(S'image'
S'i386'
p18
NS'siduction-686'
tp19
(dp20
S'configs'
p21
(lp22
S'kernelarch-x86/config-arch-32'
p23
asS'recommends'
p24
S'libc6-i686'
p25
ss(S'siduction-686_image-dbg'
p26
g18
tp27
(dp28
S'enabled'
p29
S'false'
p30
ss(S'base'
p31
g5
S'none'
p32
tp33
(dp34
S'implicit-flavour'
p35
I01
sS'flavours'
p36
(lp37
S'siduction-amd64'
p38
ass(S'base'
g5
tp39
(dp40
S'kernel-arch'
p41
S'x86'
p42
sS'featuresets'
p43
(lp44
g32
ass(S'description'
g5
NS'siduction-amd64'
tp45
(dp46
S'hardware'
p47
S'64-bit PCs'
p48
sS'hardware-long'
p49
S'PCs with AMD64 or Intel 64 processors'
p50
ss(S'image'
p51
tp52
(dp53
S'initramfs-generators'
p54
(lp55
S'initramfs-tools'
p56
aS'initramfs-fallback'
p57
asS'type'
p58
S'plain'
p59
ss(S'image'
g5
NS'siduction-amd64'
tp60
(dp61
S'configs'
p62
(lp63
S'kernelarch-x86/config-arch-64'
p64
ass(S'image'
g18
S'none'
p65
S'siduction-686-pae'
tp66
(dp67
S'configs'
p68
(lp69
S'kernelarch-x86/config-arch-32'
p70
aS'kernelarch-x86/config-arch-32-pae'
p71
asS'recommends'
p72
S'libc6-i686'
p73
ss(S'version'
p74
tp75
(dp76
S'abiname'
p77
S'3.9-8.towo'
p78
sS'source'
p79
V3.9-15
p80
ss(S'description'
g18
g65
S'siduction-686-pae'
tp81
(dp82
S'hardware'
p83
S'modern PCs with pae support'
p84
sS'hardware-long'
p85
S'PCs with Intel Xeon, Core or Atom; AMD Geode LX/NX, Athlon (K7), Opteron, Sempron, Turion or Phenom; Transmeta Efficeon; C7 processors'
p86
ss(S'base'
p87
g18
tp88
(dp89
S'kernel-arch'
p90
S'x86'
p91
sS'featuresets'
p92
(lp93
S'none'
p94
ass(S'description'
g18
NS'siduction-686'
tp95
(dp96
S'hardware'
p97
S'modern PCs'
p98
sS'hardware-long'
p99
S'PCs with Intel Pentium Pro/II/III/4/4M/D/M, Xeon, Celeron, Core or Atom; AMD Geode LX/NX, Athlon (K7), Duron, Opteron, Sempron, Turion or Phenom; Transmeta Efficeon; VIA C3 "Nehemiah" or C7 processors'
p100
ss(S'siduction-amd64-dbg'
g5
tp101
(dp102
S'enabled'
p103
S'false'
p104
ss(S'base'
g18
g65
tp105
(dp106
S'flavours'
p107
(lp108
S'siduction-686'
p109
aS'siduction-686-pae'
p110
ass(S'abi'
p111
tp112
(dp113
S'abiname'
p114
S'8.towo'
p115
ss(S'image'
p116
g18
tp117
(dp118
S'suggests'
p119
S'crda'
p120
sS'configs'
p121
(lp122
S'kernelarch-x86/config'
p123
asS'bootloaders'
p124
(lp125
S'grub-pc'
p126
aS'extlinux'
p127
ass(S'siduction-686-pae_image-dbg'
g18
g65
tp128
(dp129
S'enabled'
p130
S'false'
p131
ss(S'base'
p132
tp133
(dp134
S'arches'
p135
(lp136
S'amd64'
p137
aS'i386'
p138
asS'featuresets'
p139
(lp140
S'none'
p141
asS'compiler'
p142
S'gcc-4.7'
p143
ss(S'relations'
p144
tp145
(dp146
S'initramfs-fallback'
p147
S'linux-initramfs-tool'
p148
sS'lilo'
p149
S'lilo (>= 22.8-8.2~)'
p150
sS'gcc-4.7'
p151
S'gcc-4.7'
p152
sS'initramfs-tools'
p153
S'initramfs-tools (>= 0.110~)'
p154
sS'elilo'
p155
S'elilo (>= 3.12-3.1~)'
p156
sstRp157
.