ccopy_reg
_reconstructor
p0
(cdebian_linux.config
ConfigCore
p1
c__builtin__
dict
p2
(dp3
(S'image'
p4
S'amd64'
p5
tp6
(dp7
S'install-stem'
p8
S'vmlinuz'
p9
sS'configs'
p10
(lp11
sS'bootloaders'
p12
(lp13
S'grub-pc'
p14
aS'extlinux'
p15
aS'grub-efi-amd64'
p16
asS'suggests'
p17
S'crda'
p18
ss(S'description'
p19
g5
NS'siduction-clearlinux-amd64'
p20
tp21
(dp22
S'hardware'
p23
S'64-bit PCs'
p24
sS'hardware-long'
p25
S'PCs with AMD64 or Intel 64 processors'
p26
ss(S'description'
p27
S'i386'
p28
NS'siduction-clearlinux-686'
p29
tp30
(dp31
S'hardware'
p32
S'modern PCs'
p33
sS'hardware-long'
p34
S'PCs with Intel Pentium Pro/II/III/4/4M/D/M, Xeon, Celeron, Core or Atom; AMD Geode LX/NX, Athlon (K7), Duron, Opteron, Sempron, Turion or Phenom; Transmeta Efficeon; VIA C3 "Nehemiah" or C7 processors'
p35
ss(S'base'
p36
g5
S'none'
p37
tp38
(dp39
S'implicit-flavour'
p40
I01
sS'flavours'
p41
(lp42
S'siduction-clearlinux-amd64'
p43
ass(S'description'
p44
g28
NS'siduction-clearlinux-686-pae'
p45
tp46
(dp47
S'hardware'
p48
S'modern PCs'
p49
sS'parts'
p50
(lp51
S'pae'
p52
asS'hardware-long'
p53
S'PCs with one or more processors supporting PAE'
p54
ss(S'base'
p55
g5
tp56
(dp57
S'kernel-arch'
p58
S'x86'
p59
sS'featuresets'
p60
(lp61
S'none'
p62
ag37
ass(S'image'
p63
tp64
(dp65
S'initramfs-generators'
p66
(lp67
S'initramfs-tools'
p68
aS'initramfs-fallback'
p69
asS'type'
p70
S'plain'
p71
ss(S'build'
p72
g28
NS'siduction-clearlinux-686-pae'
p73
tp74
(dp75
S'debug-info'
p76
I00
ss(S'version'
p77
tp78
(dp79
S'abiname'
p80
S'4.5.2-to.1'
p81
sS'source'
p82
V4.5-1
p83
sS'upstream'
p84
S'4.5'
p85
ss(S'base'
p86
g28
tp87
(dp88
S'kernel-arch'
p89
S'x86'
p90
sS'featuresets'
p91
(lp92
S'none'
p93
ass(S'image'
p94
g28
NS'siduction-clearlinux-686-pae'
p95
tp96
(dp97
S'configs'
p98
(lp99
S'kernelarch-x86/config-arch-32'
p100
aS'kernelarch-x86/config-arch-32-pae'
p101
asS'recommends'
p102
S'libc6-i686'
p103
ss(S'xen'
p104
g5
g37
S'siduction-clearlinux-amd64'
p105
tp106
(dp107
S'flavours'
p108
(lp109
S'siduction-clearlinux-amd64'
p110
ass(S'build'
p111
g28
tp112
(dp113
S'debug-info'
p114
I00
sS'image-file'
p115
S'arch/x86/boot/bzImage'
p116
ss(S'description'
p117
g5
g37
S'siduction-clearlinux-amd64'
p118
tp119
(dp120
S'parts'
p121
(lp122
S'xen'
p123
ass(S'image'
p124
g28
NS'siduction-clearlinux-686'
p125
tp126
(dp127
S'configs'
p128
(lp129
S'kernelarch-x86/config-arch-32'
p130
asS'recommends'
p131
S'libc6-i686'
p132
ss(S'description'
p133
g28
tp134
(dp135
S'part-long-pae'
p136
S'This kernel requires PAE (Physical Address Extension)\nThis feature is supported by the Intel Pentium Pro/II/III/4/4M/D, Xeon,\nCore and Atom; AMD Geode NX, Athlon (K7), Duron, Opteron, Sempron,\nTurion or Phenom; Transmeta Efficeon; VIA C7; and some other processors.'
p137
ss(S'description'
p138
tp139
(dp140
S'part-long-up'
p141
S'This kernel is not suitable for SMP (multi-processor,\nmulti-core or hyper-threaded) systems.'
p142
sS'part-long-xen'
p143
S'This kernel also runs on a Xen hypervisor.\nIt supports both privileged (dom0) and unprivileged (domU) operation.'
p144
ss(S'abi'
p145
tp146
(dp147
S'abiname'
p148
S'to.1'
p149
ss(S'image'
p150
g28
tp151
(dp152
S'install-stem'
p153
S'vmlinuz'
p154
sS'configs'
p155
(lp156
sS'bootloaders'
p157
(lp158
S'grub-pc'
p159
aS'extlinux'
p160
aS'grub-efi-ia32'
p161
asS'suggests'
p162
S'crda'
p163
ss(S'base'
p164
g28
S'none'
p165
tp166
(dp167
S'flavours'
p168
(lp169
S'siduction-clearlinux-686'
p170
aS'siduction-clearlinux-686-pae'
p171
ass(S'build'
p172
g5
tp173
(dp174
S'debug-info'
p175
I00
sS'image-file'
p176
S'arch/x86/boot/bzImage'
p177
ss(S'description'
p178
g28
g165
S'686-pae'
p179
tp180
(dp181
S'parts'
p182
(lp183
S'xen'
p184
ass(S'base'
p185
tp186
(dp187
S'arches'
p188
(lp189
S'amd64'
p190
aS'i386'
p191
asS'featuresets'
p192
(lp193
S'none'
p194
asS'compiler'
p195
S'gcc-5'
p196
ss(S'relations'
p197
tp198
(dp199
S'initramfs-fallback'
p200
S'linux-initramfs-tool'
p201
sS'gcc-4.9'
p202
S'gcc-4.9'
p203
sS'gcc-5'
p204
S'gcc-5'
p205
sS'initramfs-tools'
p206
S'initramfs-tools (>= 0.110~)'
p207
ss(S'image'
p208
g5
NS'siduction-clearlinux-amd64'
p209
tp210
(dp211
S'configs'
p212
(lp213
S'kernelarch-x86/config-arch-64'
p214
asstp215
Rp216
.