ccopy_reg
_reconstructor
p0
(cdebian_linux.config
ConfigCore
p1
c__builtin__
dict
p2
(dp3
(Vimage
p4
Vamd64
p5
NVsiduction-amd64
p6
tp7
(dp8
Vconfigs
p9
(lp10
Vkernelarch-x86/config-arch-64
p11
ass(Vabi
p12
tp13
(dp14
Vabiname
p15
Vtowo.1
p16
ss(Vdescription
p17
g5
Vnone
p18
Vsiduction-amd64
p19
tp20
(dp21
Vparts
p22
(lp23
Vxen
p24
ass(Vrelations
p25
tp26
(dp27
Vgcc-6
p28
Vgcc-6
p29
sVinitramfs-tools
p30
Vinitramfs-tools (>= 0.110~)
p31
sVinitramfs-fallback
p32
Vlinux-initramfs-tool
p33
ss(Vdescription
p34
Vi386
p35
NVsiduction-686-pae
p36
tp37
(dp38
Vparts
p39
(lp40
Vpae
p41
asVhardware-long
p42
VPCs with one or more processors supporting PAE
p43
sVhardware
p44
Vmodern PCs
p45
ss(Vbuild
p46
g35
NVsiduction-686-pae
p47
tp48
(dp49
Vdebug-info
p50
I00
ss(Vbase
p51
g5
tp52
(dp53
Vkernel-arch
p54
Vx86
p55
sVfeaturesets
p56
(lp57
Vnone
p58
ag18
ass(Vdescription
p59
g5
NVsiduction-amd64
p60
tp61
(dp62
Vhardware-long
p63
VPCs with AMD64 or Intel 64 processors
p64
sVhardware
p65
V64-bit PCs
p66
ss(Vbase
p67
g35
tp68
(dp69
Vkernel-arch
p70
Vx86
p71
sVfeaturesets
p72
(lp73
Vnone
p74
ass(Vimage
p75
g35
NVsiduction-686-pae
p76
tp77
(dp78
Vconfigs
p79
(lp80
Vkernelarch-x86/config-arch-32
p81
aVkernelarch-x86/config-arch-32-pae
p82
asVrecommends
p83
Vlibc6-i686
p84
ss(Vimage
p85
g5
tp86
(dp87
Vbootloaders
p88
(lp89
Vgrub-pc
p90
aVextlinux
p91
aVgrub-efi-amd64
p92
asVconfigs
p93
(lp94
sVsuggests
p95
Vcrda
p96
sVinstall-stem
p97
Vvmlinuz
p98
ss(Vimage
p99
tp100
(dp101
Vinitramfs-generators
p102
(lp103
Vinitramfs-tools
p104
aVinitramfs-fallback
p105
asVtype
p106
Vplain
p107
ss(Vimage
p108
g35
tp109
(dp110
Vbootloaders
p111
(lp112
Vgrub-pc
p113
aVextlinux
p114
aVgrub-efi-ia32
p115
asVconfigs
p116
(lp117
sVsuggests
p118
Vcrda
p119
sVinstall-stem
p120
Vvmlinuz
p121
ss(Vdescription
p122
g35
Vnone
p123
V686-pae
p124
tp125
(dp126
Vparts
p127
(lp128
Vxen
p129
ass(Vbase
p130
g5
g18
tp131
(dp132
Vimplicit-flavour
p133
I01
sVflavours
p134
(lp135
Vsiduction-amd64
p136
ass(Vversion
p137
tp138
(dp139
Vabiname
p140
V4.9.2-towo.1
p141
sVsource
p142
V4.9-5
p143
sVabiname_base
p144
V4.9.2
p145
sVupstream
p146
V4.9
p147
ss(Vimage
p148
g35
NVsiduction-686
p149
tp150
(dp151
Vconfigs
p152
(lp153
Vkernelarch-x86/config-arch-32
p154
asVrecommends
p155
Vlibc6-i686
p156
ss(Vxen
p157
g5
g18
Vsiduction-amd64
p158
tp159
(dp160
Vflavours
p161
(lp162
Vsiduction-amd64
p163
ass(Vbase
p164
g35
g123
tp165
(dp166
Vflavours
p167
(lp168
Vsiduction-686
p169
aVsiduction-686-pae
p170
ass(Vdescription
p171
tp172
(dp173
Vpart-long-up
p174
VThis kernel is not suitable for SMP (multi-processor,\u000amulti-core or hyper-threaded) systems.
p175
sVpart-long-xen
p176
VThis kernel also runs on a Xen hypervisor.\u000aIt supports both privileged (dom0) and unprivileged (domU) operation.
p177
ss(Vdescription
p178
g35
tp179
(dp180
Vpart-long-pae
p181
VThis kernel requires PAE (Physical Address Extension)\u000aThis feature is supported by the Intel Pentium Pro/II/III/4/4M/D, Xeon,\u000aCore and Atom; AMD Geode NX, Athlon (K7), Duron, Opteron, Sempron,\u000aTurion or Phenom; Transmeta Efficeon; VIA C7; and some other processors.
p182
ss(Vbuild
p183
g5
tp184
(dp185
Vimage-file
p186
Varch/x86/boot/bzImage
p187
sVdebug-info
p188
I00
ss(Vbase
p189
tp190
(dp191
Varches
p192
(lp193
Vamd64
p194
aVi386
p195
asVcompiler
p196
Vgcc-6
p197
sVfeaturesets
p198
(lp199
Vnone
p200
ass(Vdescription
p201
g35
NVsiduction-686
p202
tp203
(dp204
Vhardware-long
p205
VPCs with Intel Pentium Pro/II/III/4/4M/D/M, Xeon, Celeron, Core or Atom; AMD Geode LX/NX, Athlon (K7), Duron, Opteron, Sempron, Turion or Phenom; Transmeta Efficeon; VIA C3 "Nehemiah" or C7 processors
p206
sVhardware
p207
Vmodern PCs
p208
ss(Vbuild
p209
g35
tp210
(dp211
Vimage-file
p212
Varch/x86/boot/bzImage
p213
sVdebug-info
p214
I00
sstp215
Rp216
.