ccopy_reg
_reconstructor
p0
(cdebian_linux.config
ConfigCore
p1
c__builtin__
dict
p2
(dp3
(Vdescription
p4
Vi386
p5
NVsiduction-686-pae
p6
tp7
(dp8
Vhardware-long
p9
VPCs with one or more processors supporting PAE
p10
sVparts
p11
(lp12
Vpae
p13
asVhardware
p14
Vmodern PCs
p15
ss(Vbuild
p16
Vamd64
p17
tp18
(dp19
Vimage-file
p20
Varch/x86/boot/bzImage
p21
sVdebug-info
p22
I00
ss(Vimage
p23
g17
NVsiduction-amd64
p24
tp25
(dp26
Vconfigs
p27
(lp28
Vkernelarch-x86/config-arch-64
p29
ass(Vrelations
p30
tp31
(dp32
Vinitramfs-fallback
p33
Vlinux-initramfs-tool
p34
sVinitramfs-tools
p35
Vinitramfs-tools (>= 0.110~)
p36
sVgcc-6
p37
Vgcc-6
p38
ss(Vbase
p39
g5
tp40
(dp41
Vkernel-arch
p42
Vx86
p43
sVfeaturesets
p44
(lp45
Vnone
p46
ass(Vbase
p47
tp48
(dp49
Vfeaturesets
p50
(lp51
Vnone
p52
asVcompiler
p53
Vgcc-6
p54
sVarches
p55
(lp56
Vamd64
p57
aVi386
p58
ass(Vversion
p59
tp60
(dp61
Vsource
p62
V4.9-2
p63
sVupstream
p64
V4.9
p65
sVabiname_base
p66
V4.9.0
p67
sVabiname
p68
V4.9.0-towo.2
p69
ss(Vimage
p70
tp71
(dp72
Vinitramfs-generators
p73
(lp74
Vinitramfs-tools
p75
aVinitramfs-fallback
p76
asVtype
p77
Vplain
p78
ss(Vdescription
p79
g17
NVsiduction-amd64
p80
tp81
(dp82
Vhardware-long
p83
VPCs with AMD64 or Intel 64 processors
p84
sVhardware
p85
V64-bit PCs
p86
ss(Vbase
p87
g17
tp88
(dp89
Vkernel-arch
p90
Vx86
p91
sVfeaturesets
p92
(lp93
Vnone
p94
aVnone
p95
ass(Vimage
p96
g5
tp97
(dp98
Vconfigs
p99
(lp100
sVinstall-stem
p101
Vvmlinuz
p102
sVsuggests
p103
Vcrda
p104
sVbootloaders
p105
(lp106
Vgrub-pc
p107
aVextlinux
p108
aVgrub-efi-ia32
p109
ass(Vimage
p110
g5
NVsiduction-686
p111
tp112
(dp113
Vconfigs
p114
(lp115
Vkernelarch-x86/config-arch-32
p116
asVrecommends
p117
Vlibc6-i686
p118
ss(Vdescription
p119
tp120
(dp121
Vpart-long-xen
p122
VThis kernel also runs on a Xen hypervisor.\u000aIt supports both privileged (dom0) and unprivileged (domU) operation.
p123
sVpart-long-up
p124
VThis kernel is not suitable for SMP (multi-processor,\u000amulti-core or hyper-threaded) systems.
p125
ss(Vdescription
p126
g5
tp127
(dp128
Vpart-long-pae
p129
VThis kernel requires PAE (Physical Address Extension)\u000aThis feature is supported by the Intel Pentium Pro/II/III/4/4M/D, Xeon,\u000aCore and Atom; AMD Geode NX, Athlon (K7), Duron, Opteron, Sempron,\u000aTurion or Phenom; Transmeta Efficeon; VIA C7; and some other processors.
p130
ss(Vimage
p131
g5
NVsiduction-686-pae
p132
tp133
(dp134
Vconfigs
p135
(lp136
Vkernelarch-x86/config-arch-32
p137
aVkernelarch-x86/config-arch-32-pae
p138
asVrecommends
p139
Vlibc6-i686
p140
ss(Vxen
p141
g17
g95
Vsiduction-amd64
p142
tp143
(dp144
Vflavours
p145
(lp146
Vsiduction-amd64
p147
ass(Vdescription
p148
g17
g95
Vsiduction-amd64
p149
tp150
(dp151
Vparts
p152
(lp153
Vxen
p154
ass(Vdescription
p155
g5
NVsiduction-686
p156
tp157
(dp158
Vhardware-long
p159
VPCs with Intel Pentium Pro/II/III/4/4M/D/M, Xeon, Celeron, Core or Atom; AMD Geode LX/NX, Athlon (K7), Duron, Opteron, Sempron, Turion or Phenom; Transmeta Efficeon; VIA C3 "Nehemiah" or C7 processors
p160
sVhardware
p161
Vmodern PCs
p162
ss(Vbuild
p163
g5
tp164
(dp165
Vimage-file
p166
Varch/x86/boot/bzImage
p167
sVdebug-info
p168
I00
ss(Vabi
p169
tp170
(dp171
Vabiname
p172
Vtowo.2
p173
ss(Vbase
p174
g5
Vnone
p175
tp176
(dp177
Vflavours
p178
(lp179
Vsiduction-686
p180
aVsiduction-686-pae
p181
ass(Vbase
p182
g17
g95
tp183
(dp184
Vflavours
p185
(lp186
Vsiduction-amd64
p187
asVimplicit-flavour
p188
I01
ss(Vdescription
p189
g5
g175
V686-pae
p190
tp191
(dp192
Vparts
p193
(lp194
Vxen
p195
ass(Vimage
p196
g17
tp197
(dp198
Vconfigs
p199
(lp200
sVinstall-stem
p201
Vvmlinuz
p202
sVsuggests
p203
Vcrda
p204
sVbootloaders
p205
(lp206
Vgrub-pc
p207
aVextlinux
p208
aVgrub-efi-amd64
p209
ass(Vbuild
p210
g5
NVsiduction-686-pae
p211
tp212
(dp213
Vdebug-info
p214
I00
sstp215
Rp216
.