ccopy_reg
_reconstructor
p0
(cdebian_linux.config
ConfigCore
p1
c__builtin__
dict
p2
(dp3
(Vdescription
p4
Vi386
p5
NVsiduction-686
p6
tp7
(dp8
Vhardware
p9
Vmodern PCs
p10
sVhardware-long
p11
VPCs with Intel Pentium Pro/II/III/4/4M/D/M, Xeon, Celeron, Core or Atom; AMD Geode LX/NX, Athlon (K7), Duron, Opteron, Sempron, Turion or Phenom; Transmeta Efficeon; VIA C3 "Nehemiah" or C7 processors
p12
ss(Vdescription
p13
Vamd64
p14
Vnone
p15
Vsiduction-amd64
p16
tp17
(dp18
Vparts
p19
(lp20
Vxen
p21
ass(Vbuild
p22
g5
NVsiduction-686-pae
p23
tp24
(dp25
Vdebug-info
p26
I00
ss(Vdescription
p27
tp28
(dp29
Vpart-long-up
p30
VThis kernel is not suitable for SMP (multi-processor,\u000amulti-core or hyper-threaded) systems.
p31
sVpart-long-xen
p32
VThis kernel also runs on a Xen hypervisor.\u000aIt supports both privileged (dom0) and unprivileged (domU) operation.
p33
ss(Vbase
p34
g5
tp35
(dp36
Vfeaturesets
p37
(lp38
Vnone
p39
asVkernel-arch
p40
Vx86
p41
ss(Vbase
p42
g14
tp43
(dp44
Vfeaturesets
p45
(lp46
Vnone
p47
ag15
asVkernel-arch
p48
Vx86
p49
ss(Vversion
p50
tp51
(dp52
Vabiname
p53
V4.9.5-towo.1
p54
sVabiname_base
p55
V4.9.5
p56
sVsource
p57
V4.9-9
p58
sVupstream
p59
V4.9
p60
ss(Vbase
p61
g14
g15
tp62
(dp63
Vimplicit-flavour
p64
I01
sVflavours
p65
(lp66
Vsiduction-amd64
p67
ass(Vimage
p68
tp69
(dp70
Vinitramfs-generators
p71
(lp72
Vinitramfs-tools
p73
aVinitramfs-fallback
p74
asVtype
p75
Vplain
p76
ss(Vdescription
p77
g5
NVsiduction-686-pae
p78
tp79
(dp80
Vhardware
p81
Vmodern PCs
p82
sVparts
p83
(lp84
Vpae
p85
asVhardware-long
p86
VPCs with one or more processors supporting PAE
p87
ss(Vimage
p88
g14
tp89
(dp90
Vinstall-stem
p91
Vvmlinuz
p92
sVconfigs
p93
(lp94
sVbootloaders
p95
(lp96
Vgrub-pc
p97
aVextlinux
p98
aVgrub-efi-amd64
p99
asVsuggests
p100
Vcrda
p101
ss(Vimage
p102
g5
NVsiduction-686
p103
tp104
(dp105
Vconfigs
p106
(lp107
Vkernelarch-x86/config-arch-32
p108
asVrecommends
p109
Vlibc6-i686
p110
ss(Vbuild
p111
g5
tp112
(dp113
Vimage-file
p114
Varch/x86/boot/bzImage
p115
sVdebug-info
p116
I00
ss(Vabi
p117
tp118
(dp119
Vabiname
p120
Vtowo.1
p121
ss(Vbase
p122
g5
Vnone
p123
tp124
(dp125
Vflavours
p126
(lp127
Vsiduction-686
p128
aVsiduction-686-pae
p129
ass(Vrelations
p130
tp131
(dp132
Vinitramfs-fallback
p133
Vlinux-initramfs-tool
p134
sVinitramfs-tools
p135
Vinitramfs-tools (>= 0.110~)
p136
sVgcc-6
p137
Vgcc-6
p138
ss(Vimage
p139
g5
NVsiduction-686-pae
p140
tp141
(dp142
Vconfigs
p143
(lp144
Vkernelarch-x86/config-arch-32
p145
aVkernelarch-x86/config-arch-32-pae
p146
asVrecommends
p147
Vlibc6-i686
p148
ss(Vdescription
p149
g5
tp150
(dp151
Vpart-long-pae
p152
VThis kernel requires PAE (Physical Address Extension)\u000aThis feature is supported by the Intel Pentium Pro/II/III/4/4M/D, Xeon,\u000aCore and Atom; AMD Geode NX, Athlon (K7), Duron, Opteron, Sempron,\u000aTurion or Phenom; Transmeta Efficeon; VIA C7; and some other processors.
p153
ss(Vdescription
p154
g5
g123
V686-pae
p155
tp156
(dp157
Vparts
p158
(lp159
Vxen
p160
ass(Vbase
p161
tp162
(dp163
Vcompiler
p164
Vgcc-6
p165
sVfeaturesets
p166
(lp167
Vnone
p168
asVarches
p169
(lp170
Vamd64
p171
aVi386
p172
ass(Vxen
p173
g14
g15
Vsiduction-amd64
p174
tp175
(dp176
Vflavours
p177
(lp178
Vsiduction-amd64
p179
ass(Vimage
p180
g14
NVsiduction-amd64
p181
tp182
(dp183
Vconfigs
p184
(lp185
Vkernelarch-x86/config-arch-64
p186
ass(Vdescription
p187
g14
NVsiduction-amd64
p188
tp189
(dp190
Vhardware
p191
V64-bit PCs
p192
sVhardware-long
p193
VPCs with AMD64 or Intel 64 processors
p194
ss(Vbuild
p195
g14
tp196
(dp197
Vimage-file
p198
Varch/x86/boot/bzImage
p199
sVdebug-info
p200
I00
ss(Vimage
p201
g5
tp202
(dp203
Vinstall-stem
p204
Vvmlinuz
p205
sVconfigs
p206
(lp207
sVbootloaders
p208
(lp209
Vgrub-pc
p210
aVextlinux
p211
aVgrub-efi-ia32
p212
asVsuggests
p213
Vcrda
p214
sstp215
Rp216
.