ccopy_reg
_reconstructor
p0
(cdebian_linux.config
ConfigCore
p1
c__builtin__
dict
p2
(dp3
(Vversion
p4
tp5
(dp6
Vabiname_base
p7
V4.9.10
p8
sVabiname
p9
V4.9.10-towo.2
p10
sVsource
p11
V4.9-21
p12
sVupstream
p13
V4.9
p14
ss(Vbase
p15
tp16
(dp17
Vfeaturesets
p18
(lp19
Vnone
p20
asVarches
p21
(lp22
Vamd64
p23
aVi386
p24
asVcompiler
p25
Vgcc-6
p26
ss(Vbase
p27
Vi386
p28
tp29
(dp30
Vfeaturesets
p31
(lp32
Vnone
p33
aVnone
p34
asVkernel-arch
p35
Vx86
p36
ss(Vdescription
p37
Vamd64
p38
Vnone
p39
Vsiduction-amd64
p40
tp41
(dp42
Vparts
p43
(lp44
Vxen
p45
ass(Vbase
p46
g28
g34
tp47
(dp48
Vimplicit-flavour
p49
I01
sVflavours
p50
(lp51
Vsiduction-686
p52
ass(Vabi
p53
tp54
(dp55
Vabiname
p56
Vtowo.2
p57
ss(Vdescription
p58
g38
NVsiduction-amd64
p59
tp60
(dp61
Vhardware
p62
V64-bit PCs
p63
sVhardware-long
p64
VPCs with AMD64 or Intel 64 processors
p65
ss(Vimage
p66
g28
tp67
(dp68
Vinstall-stem
p69
Vvmlinuz
p70
sVsuggests
p71
Vcrda
p72
sVbootloaders
p73
(lp74
Vgrub-pc
p75
aVextlinux
p76
aVgrub-efi-ia32
p77
asVbreaks
p78
Vxserver-xorg-input-vmmouse (<< 1:13.0.99)
p79
ss(Vbuild
p80
g38
tp81
(dp82
Vdebug-info
p83
I00
sVimage-file
p84
Varch/x86/boot/bzImage
p85
ss(Vrelations
p86
tp87
(dp88
Vinitramfs-tools
p89
Vinitramfs-tools (>= 0.121~)
p90
sVgcc-6
p91
Vgcc-6
p92
sVinitramfs-fallback
p93
Vlinux-initramfs-tool
p94
ss(Vbase
p95
g38
tp96
(dp97
Vfeaturesets
p98
(lp99
g33
ag39
asVkernel-arch
p100
Vx86
p101
ss(Vbase
p102
g38
g39
tp103
(dp104
g49
I01
sg50
(lp105
Vsiduction-amd64
p106
ass(Vimage
p107
tp108
(dp109
Vinitramfs-generators
p110
(lp111
Vinitramfs-tools
p112
aVinitramfs-fallback
p113
ass(Vdescription
p114
g28
NVsiduction-686
p115
tp116
(dp117
Vhardware
p118
Vmodern PCs
p119
sVhardware-long
p120
VPCs with Intel Pentium Pro/II/III/4/4M/D/M, Xeon, Celeron, Core or Atom; AMD Geode LX/NX, Athlon (K7), Duron, Opteron, Sempron, Turion or Phenom; Transmeta Efficeon; VIA C3 "Nehemiah" or C7 processors
p121
ss(Vdescription
p122
tp123
(dp124
Vpart-long-up
p125
VThis kernel is not suitable for SMP (multi-processor,\u000amulti-core or hyper-threaded) systems.
p126
sVpart-long-xen
p127
VThis kernel also runs on a Xen hypervisor.\u000aIt supports both privileged (dom0) and unprivileged (domU) operation.
p128
ss(Vbuild
p129
g28
tp130
(dp131
Vdebug-info
p132
I00
sVimage-file
p133
Varch/x86/boot/bzImage
p134
ss(Vimage
p135
g38
tp136
(dp137
Vinstall-stem
p138
Vvmlinuz
p139
sVsuggests
p140
Vcrda
p141
sVbootloaders
p142
(lp143
Vgrub-pc
p144
aVextlinux
p145
aVgrub-efi-amd64
p146
asVbreaks
p147
Vxserver-xorg-input-vmmouse (<< 1:13.0.99)
p148
sstp149
Rp150
.