ccopy_reg
_reconstructor
p0
(cdebian_linux.config
ConfigCore
p1
c__builtin__
dict
p2
(dp3
(Vbase
p4
Vamd64
p5
Vnone
p6
tp7
(dp8
Vflavours
p9
(lp10
Vsiduction-amd64
p11
asVimplicit-flavour
p12
I01
ss(Vbase
p13
tp14
(dp15
Vcompiler
p16
Vgcc-6
p17
sVarches
p18
(lp19
Vamd64
p20
aVi386
p21
asVfeaturesets
p22
(lp23
Vnone
p24
ass(Vimage
p25
Vi386
p26
tp27
(dp28
Vinstall-stem
p29
Vvmlinuz
p30
sVbootloaders
p31
(lp32
Vgrub-pc
p33
aVextlinux
p34
aVgrub-efi-ia32
p35
asVconfigs
p36
(lp37
sVsuggests
p38
Vcrda
p39
ss(Vdescription
p40
g26
NVsiduction-686-pae
p41
tp42
(dp43
Vhardware-long
p44
VPCs with one or more processors supporting PAE
p45
sVhardware
p46
Vmodern PCs
p47
sVparts
p48
(lp49
Vpae
p50
ass(Vdescription
p51
g5
g6
Vsiduction-amd64
p52
tp53
(dp54
Vparts
p55
(lp56
Vxen
p57
ass(Vdescription
p58
g5
NVsiduction-amd64
p59
tp60
(dp61
Vhardware-long
p62
VPCs with AMD64 or Intel 64 processors
p63
sVhardware
p64
V64-bit PCs
p65
ss(Vabi
p66
tp67
(dp68
Vabiname
p69
Vtowo.1
p70
ss(Vdescription
p71
tp72
(dp73
Vpart-long-up
p74
VThis kernel is not suitable for SMP (multi-processor,\u000amulti-core or hyper-threaded) systems.
p75
sVpart-long-xen
p76
VThis kernel also runs on a Xen hypervisor.\u000aIt supports both privileged (dom0) and unprivileged (domU) operation.
p77
ss(Vimage
p78
g5
tp79
(dp80
Vinstall-stem
p81
Vvmlinuz
p82
sVbootloaders
p83
(lp84
Vgrub-pc
p85
aVextlinux
p86
aVgrub-efi-amd64
p87
asVconfigs
p88
(lp89
sVsuggests
p90
Vcrda
p91
ss(Vbase
p92
g26
Vnone
p93
tp94
(dp95
Vflavours
p96
(lp97
Vsiduction-686
p98
aVsiduction-686-pae
p99
ass(Vbase
p100
g5
tp101
(dp102
Vkernel-arch
p103
Vx86
p104
sVfeaturesets
p105
(lp106
Vnone
p107
ag6
ass(Vdescription
p108
g26
g93
V686-pae
p109
tp110
(dp111
Vparts
p112
(lp113
Vxen
p114
ass(Vbuild
p115
g5
tp116
(dp117
Vdebug-info
p118
I00
sVimage-file
p119
Varch/x86/boot/bzImage
p120
ss(Vimage
p121
g26
NVsiduction-686
p122
tp123
(dp124
Vconfigs
p125
(lp126
Vkernelarch-x86/config-arch-32
p127
asVrecommends
p128
Vlibc6-i686
p129
ss(Vversion
p130
tp131
(dp132
Vabiname_base
p133
V4.9.4
p134
sVsource
p135
V4.9-8
p136
sVabiname
p137
V4.9.4-towo.1
p138
sVupstream
p139
V4.9
p140
ss(Vbuild
p141
g26
tp142
(dp143
Vdebug-info
p144
I00
sVimage-file
p145
Varch/x86/boot/bzImage
p146
ss(Vdescription
p147
g26
NVsiduction-686
p148
tp149
(dp150
Vhardware-long
p151
VPCs with Intel Pentium Pro/II/III/4/4M/D/M, Xeon, Celeron, Core or Atom; AMD Geode LX/NX, Athlon (K7), Duron, Opteron, Sempron, Turion or Phenom; Transmeta Efficeon; VIA C3 "Nehemiah" or C7 processors
p152
sVhardware
p153
Vmodern PCs
p154
ss(Vrelations
p155
tp156
(dp157
Vinitramfs-fallback
p158
Vlinux-initramfs-tool
p159
sVinitramfs-tools
p160
Vinitramfs-tools (>= 0.110~)
p161
sVgcc-6
p162
Vgcc-6
p163
ss(Vbase
p164
g26
tp165
(dp166
Vkernel-arch
p167
Vx86
p168
sVfeaturesets
p169
(lp170
Vnone
p171
ass(Vbuild
p172
g26
NVsiduction-686-pae
p173
tp174
(dp175
Vdebug-info
p176
I00
ss(Vimage
p177
g26
NVsiduction-686-pae
p178
tp179
(dp180
Vconfigs
p181
(lp182
Vkernelarch-x86/config-arch-32
p183
aVkernelarch-x86/config-arch-32-pae
p184
asVrecommends
p185
Vlibc6-i686
p186
ss(Vdescription
p187
g26
tp188
(dp189
Vpart-long-pae
p190
VThis kernel requires PAE (Physical Address Extension)\u000aThis feature is supported by the Intel Pentium Pro/II/III/4/4M/D, Xeon,\u000aCore and Atom; AMD Geode NX, Athlon (K7), Duron, Opteron, Sempron,\u000aTurion or Phenom; Transmeta Efficeon; VIA C7; and some other processors.
p191
ss(Vxen
p192
g5
g6
Vsiduction-amd64
p193
tp194
(dp195
Vflavours
p196
(lp197
Vsiduction-amd64
p198
ass(Vimage
p199
g5
NVsiduction-amd64
p200
tp201
(dp202
Vconfigs
p203
(lp204
Vkernelarch-x86/config-arch-64
p205
ass(Vimage
p206
tp207
(dp208
Vinitramfs-generators
p209
(lp210
Vinitramfs-tools
p211
aVinitramfs-fallback
p212
asVtype
p213
Vplain
p214
sstp215
Rp216
.