ccopy_reg
_reconstructor
p0
(cdebian_linux.config
ConfigCore
p1
c__builtin__
dict
p2
(dp3
(Vbuild
p4
Vamd64
p5
tp6
(dp7
Vimage-file
p8
Varch/x86/boot/bzImage
p9
sVdebug-info
p10
I00
ss(Vimage
p11
tp12
(dp13
Vinitramfs-generators
p14
(lp15
Vinitramfs-tools
p16
aVinitramfs-fallback
p17
asVtype
p18
Vplain
p19
ss(Vbase
p20
g5
tp21
(dp22
Vfeaturesets
p23
(lp24
Vnone
p25
aVnone
p26
asVkernel-arch
p27
Vx86
p28
ss(Vdescription
p29
Vi386
p30
tp31
(dp32
Vpart-long-pae
p33
VThis kernel requires PAE (Physical Address Extension)\u000aThis feature is supported by the Intel Pentium Pro/II/III/4/4M/D, Xeon,\u000aCore and Atom; AMD Geode NX, Athlon (K7), Duron, Opteron, Sempron,\u000aTurion or Phenom; Transmeta Efficeon; VIA C7; and some other processors.
p34
ss(Vimage
p35
g30
NVsiduction-686-pae
p36
tp37
(dp38
Vrecommends
p39
Vlibc6-i686
p40
sVconfigs
p41
(lp42
Vkernelarch-x86/config-arch-32
p43
aVkernelarch-x86/config-arch-32-pae
p44
ass(Vbase
p45
g30
tp46
(dp47
Vfeaturesets
p48
(lp49
Vnone
p50
asVkernel-arch
p51
Vx86
p52
ss(Vxen
p53
g5
g26
Vsiduction-amd64
p54
tp55
(dp56
Vflavours
p57
(lp58
Vsiduction-amd64
p59
ass(Vdescription
p60
g30
NVsiduction-686-pae
p61
tp62
(dp63
Vhardware-long
p64
VPCs with one or more processors supporting PAE
p65
sVparts
p66
(lp67
Vpae
p68
asVhardware
p69
Vmodern PCs
p70
ss(Vbuild
p71
g30
tp72
(dp73
Vimage-file
p74
Varch/x86/boot/bzImage
p75
sVdebug-info
p76
I00
ss(Vimage
p77
g30
NVsiduction-686
p78
tp79
(dp80
Vrecommends
p81
Vlibc6-i686
p82
sVconfigs
p83
(lp84
Vkernelarch-x86/config-arch-32
p85
ass(Vdescription
p86
g30
NVsiduction-686
p87
tp88
(dp89
Vhardware-long
p90
VPCs with Intel Pentium Pro/II/III/4/4M/D/M, Xeon, Celeron, Core or Atom; AMD Geode LX/NX, Athlon (K7), Duron, Opteron, Sempron, Turion or Phenom; Transmeta Efficeon; VIA C3 "Nehemiah" or C7 processors
p91
sVhardware
p92
Vmodern PCs
p93
ss(Vbuild
p94
g30
NVsiduction-686-pae
p95
tp96
(dp97
Vdebug-info
p98
I00
ss(Vdescription
p99
g5
g26
Vsiduction-amd64
p100
tp101
(dp102
Vparts
p103
(lp104
Vxen
p105
ass(Vrelations
p106
tp107
(dp108
Vinitramfs-fallback
p109
Vlinux-initramfs-tool
p110
sVgcc-6
p111
Vgcc-6
p112
sVinitramfs-tools
p113
Vinitramfs-tools (>= 0.110~)
p114
ss(Vimage
p115
g30
tp116
(dp117
Vsuggests
p118
Vcrda
p119
sVbootloaders
p120
(lp121
Vgrub-pc
p122
aVextlinux
p123
aVgrub-efi-ia32
p124
asVinstall-stem
p125
Vvmlinuz
p126
sVconfigs
p127
(lp128
ss(Vbase
p129
g30
Vnone
p130
tp131
(dp132
Vflavours
p133
(lp134
Vsiduction-686
p135
aVsiduction-686-pae
p136
ass(Vbase
p137
g5
g26
tp138
(dp139
Vflavours
p140
(lp141
Vsiduction-amd64
p142
asVimplicit-flavour
p143
I01
ss(Vdescription
p144
g5
NVsiduction-amd64
p145
tp146
(dp147
Vhardware-long
p148
VPCs with AMD64 or Intel 64 processors
p149
sVhardware
p150
V64-bit PCs
p151
ss(Vabi
p152
tp153
(dp154
Vabiname
p155
Vtowo.2
p156
ss(Vversion
p157
tp158
(dp159
Vupstream
p160
V4.9
p161
sVabiname_base
p162
V4.9.5
p163
sVsource
p164
V4.9-10
p165
sVabiname
p166
V4.9.5-towo.2
p167
ss(Vimage
p168
g5
NVsiduction-amd64
p169
tp170
(dp171
Vconfigs
p172
(lp173
Vkernelarch-x86/config-arch-64
p174
ass(Vimage
p175
g5
tp176
(dp177
Vsuggests
p178
Vcrda
p179
sVbootloaders
p180
(lp181
Vgrub-pc
p182
aVextlinux
p183
aVgrub-efi-amd64
p184
asVinstall-stem
p185
Vvmlinuz
p186
sVconfigs
p187
(lp188
ss(Vdescription
p189
tp190
(dp191
Vpart-long-xen
p192
VThis kernel also runs on a Xen hypervisor.\u000aIt supports both privileged (dom0) and unprivileged (domU) operation.
p193
sVpart-long-up
p194
VThis kernel is not suitable for SMP (multi-processor,\u000amulti-core or hyper-threaded) systems.
p195
ss(Vbase
p196
tp197
(dp198
Varches
p199
(lp200
Vamd64
p201
aVi386
p202
asVcompiler
p203
Vgcc-6
p204
sVfeaturesets
p205
(lp206
Vnone
p207
ass(Vdescription
p208
g30
g130
V686-pae
p209
tp210
(dp211
Vparts
p212
(lp213
Vxen
p214
asstp215
Rp216
.