ccopy_reg
_reconstructor
p0
(cdebian_linux.config
ConfigCore
p1
c__builtin__
dict
p2
(dp3
(Vabi
p4
tp5
(dp6
Vabiname
p7
Vtowo.1
p8
ss(Vdescription
p9
Vamd64
p10
Vnone
p11
Vsiduction-amd64
p12
tp13
(dp14
Vparts
p15
(lp16
Vxen
p17
ass(Vversion
p18
tp19
(dp20
Vabiname_base
p21
V4.9.9
p22
sVabiname
p23
V4.9.9-towo.1
p24
sVupstream
p25
V4.9
p26
sVsource
p27
V4.9-18
p28
ss(Vdescription
p29
Vi386
p30
NVsiduction-686
p31
tp32
(dp33
Vhardware
p34
Vmodern PCs
p35
sVhardware-long
p36
VPCs with Intel Pentium Pro/II/III/4/4M/D/M, Xeon, Celeron, Core or Atom; AMD Geode LX/NX, Athlon (K7), Duron, Opteron, Sempron, Turion or Phenom; Transmeta Efficeon; VIA C3 "Nehemiah" or C7 processors
p37
ss(Vbase
p38
g30
tp39
(dp40
Vkernel-arch
p41
Vx86
p42
sVfeaturesets
p43
(lp44
Vnone
p45
aVnone
p46
ass(Vbuild
p47
g30
tp48
(dp49
Vimage-file
p50
Varch/x86/boot/bzImage
p51
sVdebug-info
p52
I00
ss(Vbase
p53
g10
tp54
(dp55
Vkernel-arch
p56
Vx86
p57
sVfeaturesets
p58
(lp59
g45
ag11
ass(Vimage
p60
g30
tp61
(dp62
Vinstall-stem
p63
Vvmlinuz
p64
sVsuggests
p65
Vcrda
p66
sVbootloaders
p67
(lp68
Vgrub-pc
p69
aVextlinux
p70
aVgrub-efi-ia32
p71
asVbreaks
p72
Vxserver-xorg-input-vmmouse (<< 1:13.0.99)
p73
ss(Vbase
p74
tp75
(dp76
Varches
p77
(lp78
Vamd64
p79
aVi386
p80
asVcompiler
p81
Vgcc-6
p82
sVfeaturesets
p83
(lp84
Vnone
p85
ass(Vrelations
p86
tp87
(dp88
Vinitramfs-fallback
p89
Vlinux-initramfs-tool
p90
sVinitramfs-tools
p91
Vinitramfs-tools (>= 0.121~)
p92
sVgcc-6
p93
Vgcc-6
p94
ss(Vbase
p95
g30
g46
tp96
(dp97
Vflavours
p98
(lp99
Vsiduction-686
p100
asVimplicit-flavour
p101
I01
ss(Vdescription
p102
tp103
(dp104
Vpart-long-up
p105
VThis kernel is not suitable for SMP (multi-processor,\u000amulti-core or hyper-threaded) systems.
p106
sVpart-long-xen
p107
VThis kernel also runs on a Xen hypervisor.\u000aIt supports both privileged (dom0) and unprivileged (domU) operation.
p108
ss(Vimage
p109
tp110
(dp111
Vinitramfs-generators
p112
(lp113
Vinitramfs-tools
p114
aVinitramfs-fallback
p115
ass(Vimage
p116
g10
tp117
(dp118
Vinstall-stem
p119
Vvmlinuz
p120
sVsuggests
p121
Vcrda
p122
sVbootloaders
p123
(lp124
Vgrub-pc
p125
aVextlinux
p126
aVgrub-efi-amd64
p127
asVbreaks
p128
Vxserver-xorg-input-vmmouse (<< 1:13.0.99)
p129
ss(Vbuild
p130
g10
tp131
(dp132
Vimage-file
p133
Varch/x86/boot/bzImage
p134
sVdebug-info
p135
I00
ss(Vbase
p136
g10
g11
tp137
(dp138
g98
(lp139
Vsiduction-amd64
p140
asg101
I01
ss(Vdescription
p141
g10
NVsiduction-amd64
p142
tp143
(dp144
Vhardware
p145
V64-bit PCs
p146
sVhardware-long
p147
VPCs with AMD64 or Intel 64 processors
p148
sstp149
Rp150
.