ccopy_reg
_reconstructor
p0
(cdebian_linux.config
ConfigCore
p1
c__builtin__
dict
p2
(dp3
(Vbase
p4
Vi386
p5
tp6
(dp7
Vfeaturesets
p8
(lp9
Vnone
p10
aVnone
p11
asVkernel-arch
p12
Vx86
p13
ss(Vbuild
p14
Vamd64
p15
tp16
(dp17
Vdebug-info
p18
I00
sVimage-file
p19
Varch/x86/boot/bzImage
p20
ss(Vabi
p21
tp22
(dp23
Vabiname
p24
Vtowo.1
p25
ss(Vbase
p26
g5
g11
tp27
(dp28
Vflavours
p29
(lp30
Vsiduction-686
p31
asVimplicit-flavour
p32
I01
ss(Vbase
p33
g15
tp34
(dp35
Vfeaturesets
p36
(lp37
g10
aVnone
p38
asVkernel-arch
p39
Vx86
p40
ss(Vdescription
p41
tp42
(dp43
Vpart-long-xen
p44
VThis kernel also runs on a Xen hypervisor.\u000aIt supports both privileged (dom0) and unprivileged (domU) operation.
p45
sVpart-long-up
p46
VThis kernel is not suitable for SMP (multi-processor,\u000amulti-core or hyper-threaded) systems.
p47
ss(Vdescription
p48
g5
NVsiduction-686
p49
tp50
(dp51
Vhardware
p52
Vmodern PCs
p53
sVhardware-long
p54
VPCs with Intel Pentium Pro/II/III/4/4M/D/M, Xeon, Celeron, Core or Atom; AMD Geode LX/NX, Athlon (K7), Duron, Opteron, Sempron, Turion or Phenom; Transmeta Efficeon; VIA C3 "Nehemiah" or C7 processors
p55
ss(Vbase
p56
g15
g38
tp57
(dp58
g29
(lp59
Vsiduction-amd64
p60
asg32
I01
ss(Vversion
p61
tp62
(dp63
Vabiname
p64
V4.9.11-towo.1
p65
sVupstream
p66
V4.9
p67
sVsource
p68
V4.9-22
p69
sVabiname_base
p70
V4.9.11
p71
ss(Vdescription
p72
g15
g38
Vsiduction-amd64
p73
tp74
(dp75
Vparts
p76
(lp77
Vxen
p78
ass(Vimage
p79
g15
tp80
(dp81
Vbootloaders
p82
(lp83
Vgrub-pc
p84
aVextlinux
p85
aVgrub-efi-amd64
p86
asVbreaks
p87
Vxserver-xorg-input-vmmouse (<< 1:13.0.99)
p88
sVsuggests
p89
Vcrda
p90
sVinstall-stem
p91
Vvmlinuz
p92
ss(Vdescription
p93
g15
NVsiduction-amd64
p94
tp95
(dp96
Vhardware
p97
V64-bit PCs
p98
sVhardware-long
p99
VPCs with AMD64 or Intel 64 processors
p100
ss(Vbuild
p101
g5
tp102
(dp103
Vdebug-info
p104
I00
sVimage-file
p105
Varch/x86/boot/bzImage
p106
ss(Vimage
p107
tp108
(dp109
Vinitramfs-generators
p110
(lp111
Vinitramfs-tools
p112
aVinitramfs-fallback
p113
ass(Vbase
p114
tp115
(dp116
Vcompiler
p117
Vgcc-6
p118
sVfeaturesets
p119
(lp120
Vnone
p121
asVarches
p122
(lp123
Vamd64
p124
aVi386
p125
ass(Vimage
p126
g5
tp127
(dp128
Vbootloaders
p129
(lp130
Vgrub-pc
p131
aVextlinux
p132
aVgrub-efi-ia32
p133
asVbreaks
p134
Vxserver-xorg-input-vmmouse (<< 1:13.0.99)
p135
sVsuggests
p136
Vcrda
p137
sVinstall-stem
p138
Vvmlinuz
p139
ss(Vrelations
p140
tp141
(dp142
Vgcc-6
p143
Vgcc-6
p144
sVinitramfs-tools
p145
Vinitramfs-tools (>= 0.121~)
p146
sVinitramfs-fallback
p147
Vlinux-initramfs-tool
p148
sstp149
Rp150
.