ccopy_reg
_reconstructor
p0
(cdebian_linux.config
ConfigCore
p1
c__builtin__
dict
p2
(dp3
(Vbase
p4
tp5
(dp6
Varches
p7
(lp8
Vamd64
p9
aVi386
p10
asVcompiler
p11
Vgcc-6
p12
sVfeaturesets
p13
(lp14
Vnone
p15
ass(Vdescription
p16
Vi386
p17
Vnone
p18
V686-pae
p19
tp20
(dp21
Vparts
p22
(lp23
Vxen
p24
ass(Vbase
p25
g17
tp26
(dp27
Vkernel-arch
p28
Vx86
p29
sVfeaturesets
p30
(lp31
Vnone
p32
ass(Vdescription
p33
tp34
(dp35
Vpart-long-xen
p36
VThis kernel also runs on a Xen hypervisor.\u000aIt supports both privileged (dom0) and unprivileged (domU) operation.
p37
sVpart-long-up
p38
VThis kernel is not suitable for SMP (multi-processor,\u000amulti-core or hyper-threaded) systems.
p39
ss(Vxen
p40
Vamd64
p41
Vnone
p42
Vsiduction-amd64
p43
tp44
(dp45
Vflavours
p46
(lp47
Vsiduction-amd64
p48
ass(Vbase
p49
g17
g18
tp50
(dp51
Vflavours
p52
(lp53
Vsiduction-686
p54
aVsiduction-686-pae
p55
ass(Vimage
p56
g41
NVsiduction-amd64
p57
tp58
(dp59
Vconfigs
p60
(lp61
Vkernelarch-x86/config-arch-64
p62
ass(Vbuild
p63
g41
tp64
(dp65
Vimage-file
p66
Varch/x86/boot/bzImage
p67
sVdebug-info
p68
I00
ss(Vrelations
p69
tp70
(dp71
Vinitramfs-fallback
p72
Vlinux-initramfs-tool
p73
sVinitramfs-tools
p74
Vinitramfs-tools (>= 0.110~)
p75
sVgcc-6
p76
Vgcc-6
p77
ss(Vimage
p78
g17
tp79
(dp80
Vbootloaders
p81
(lp82
Vgrub-pc
p83
aVextlinux
p84
aVgrub-efi-ia32
p85
asVconfigs
p86
(lp87
sVinstall-stem
p88
Vvmlinuz
p89
sVsuggests
p90
Vcrda
p91
ss(Vdescription
p92
g41
g42
Vsiduction-amd64
p93
tp94
(dp95
Vparts
p96
(lp97
Vxen
p98
ass(Vdescription
p99
g17
NVsiduction-686-pae
p100
tp101
(dp102
Vparts
p103
(lp104
Vpae
p105
asVhardware-long
p106
VPCs with one or more processors supporting PAE
p107
sVhardware
p108
Vmodern PCs
p109
ss(Vdescription
p110
g41
NVsiduction-amd64
p111
tp112
(dp113
Vhardware-long
p114
VPCs with AMD64 or Intel 64 processors
p115
sVhardware
p116
V64-bit PCs
p117
ss(Vabi
p118
tp119
(dp120
Vabiname
p121
Vtowo.3
p122
ss(Vimage
p123
g41
tp124
(dp125
Vbootloaders
p126
(lp127
Vgrub-pc
p128
aVextlinux
p129
aVgrub-efi-amd64
p130
asVconfigs
p131
(lp132
sVinstall-stem
p133
Vvmlinuz
p134
sVsuggests
p135
Vcrda
p136
ss(Vimage
p137
g17
NVsiduction-686
p138
tp139
(dp140
Vconfigs
p141
(lp142
Vkernelarch-x86/config-arch-32
p143
asVrecommends
p144
Vlibc6-i686
p145
ss(Vbase
p146
g41
g42
tp147
(dp148
Vflavours
p149
(lp150
Vsiduction-amd64
p151
asVimplicit-flavour
p152
I01
ss(Vbase
p153
g41
tp154
(dp155
Vfeaturesets
p156
(lp157
Vnone
p158
ag42
asVkernel-arch
p159
Vx86
p160
ss(Vdescription
p161
g17
NVsiduction-686
p162
tp163
(dp164
Vhardware-long
p165
VPCs with Intel Pentium Pro/II/III/4/4M/D/M, Xeon, Celeron, Core or Atom; AMD Geode LX/NX, Athlon (K7), Duron, Opteron, Sempron, Turion or Phenom; Transmeta Efficeon; VIA C3 "Nehemiah" or C7 processors
p166
sVhardware
p167
Vmodern PCs
p168
ss(Vbuild
p169
g17
tp170
(dp171
Vimage-file
p172
Varch/x86/boot/bzImage
p173
sVdebug-info
p174
I00
ss(Vbuild
p175
g17
NVsiduction-686-pae
p176
tp177
(dp178
Vdebug-info
p179
I00
ss(Vimage
p180
g17
NVsiduction-686-pae
p181
tp182
(dp183
Vconfigs
p184
(lp185
Vkernelarch-x86/config-arch-32
p186
aVkernelarch-x86/config-arch-32-pae
p187
asVrecommends
p188
Vlibc6-i686
p189
ss(Vimage
p190
tp191
(dp192
Vinitramfs-generators
p193
(lp194
Vinitramfs-tools
p195
aVinitramfs-fallback
p196
asVtype
p197
Vplain
p198
ss(Vdescription
p199
g17
tp200
(dp201
Vpart-long-pae
p202
VThis kernel requires PAE (Physical Address Extension)\u000aThis feature is supported by the Intel Pentium Pro/II/III/4/4M/D, Xeon,\u000aCore and Atom; AMD Geode NX, Athlon (K7), Duron, Opteron, Sempron,\u000aTurion or Phenom; Transmeta Efficeon; VIA C7; and some other processors.
p203
ss(Vversion
p204
tp205
(dp206
Vsource
p207
V4.9-3
p208
sVabiname
p209
V4.9.0-towo.3
p210
sVabiname_base
p211
V4.9.0
p212
sVupstream
p213
V4.9
p214
sstp215
Rp216
.