ccopy_reg
_reconstructor
p0
(cdebian_linux.config
ConfigCore
p1
c__builtin__
dict
p2
(dp3
(Vabi
p4
tp5
(dp6
Vabiname
p7
Vtowo.1
p8
ss(Vversion
p9
tp10
(dp11
Vsource
p12
V4.9-16
p13
sVupstream
p14
V4.9
p15
sVabiname_base
p16
V4.9.8
p17
sVabiname
p18
V4.9.8-towo.1
p19
ss(Vbase
p20
Vamd64
p21
tp22
(dp23
Vfeaturesets
p24
(lp25
Vnone
p26
aVnone
p27
asVkernel-arch
p28
Vx86
p29
ss(Vbuild
p30
g21
tp31
(dp32
Vimage-file
p33
Varch/x86/boot/bzImage
p34
sVdebug-info
p35
I00
ss(Vimage
p36
tp37
(dp38
Vinitramfs-generators
p39
(lp40
Vinitramfs-tools
p41
aVinitramfs-fallback
p42
ass(Vbase
p43
tp44
(dp45
Vfeaturesets
p46
(lp47
Vnone
p48
asVarches
p49
(lp50
Vamd64
p51
aVi386
p52
asVcompiler
p53
Vgcc-6
p54
ss(Vimage
p55
Vi386
p56
tp57
(dp58
Vbreaks
p59
Vxserver-xorg-input-vmmouse (<< 1:13.0.99)
p60
sVsuggests
p61
Vcrda
p62
sVinstall-stem
p63
Vvmlinuz
p64
sVbootloaders
p65
(lp66
Vgrub-pc
p67
aVextlinux
p68
aVgrub-efi-ia32
p69
ass(Vrelations
p70
tp71
(dp72
Vgcc-6
p73
Vgcc-6
p74
sVinitramfs-tools
p75
Vinitramfs-tools (>= 0.121~)
p76
sVinitramfs-fallback
p77
Vlinux-initramfs-tool
p78
ss(Vdescription
p79
g56
NVsiduction-686
p80
tp81
(dp82
Vhardware
p83
Vmodern PCs
p84
sVhardware-long
p85
VPCs with Intel Pentium Pro/II/III/4/4M/D/M, Xeon, Celeron, Core or Atom; AMD Geode LX/NX, Athlon (K7), Duron, Opteron, Sempron, Turion or Phenom; Transmeta Efficeon; VIA C3 "Nehemiah" or C7 processors
p86
ss(Vimage
p87
g21
tp88
(dp89
Vbreaks
p90
Vxserver-xorg-input-vmmouse (<< 1:13.0.99)
p91
sVsuggests
p92
Vcrda
p93
sVinstall-stem
p94
Vvmlinuz
p95
sVbootloaders
p96
(lp97
Vgrub-pc
p98
aVextlinux
p99
aVgrub-efi-amd64
p100
ass(Vbase
p101
g56
Vnone
p102
tp103
(dp104
Vflavours
p105
(lp106
Vsiduction-686
p107
asVimplicit-flavour
p108
I01
ss(Vdescription
p109
g21
g27
Vsiduction-amd64
p110
tp111
(dp112
Vparts
p113
(lp114
Vxen
p115
ass(Vbase
p116
g21
g27
tp117
(dp118
g105
(lp119
Vsiduction-amd64
p120
asg108
I01
ss(Vbuild
p121
g56
tp122
(dp123
Vimage-file
p124
Varch/x86/boot/bzImage
p125
sVdebug-info
p126
I00
ss(Vdescription
p127
g21
NVsiduction-amd64
p128
tp129
(dp130
Vhardware
p131
V64-bit PCs
p132
sVhardware-long
p133
VPCs with AMD64 or Intel 64 processors
p134
ss(Vdescription
p135
tp136
(dp137
Vpart-long-xen
p138
VThis kernel also runs on a Xen hypervisor.\u000aIt supports both privileged (dom0) and unprivileged (domU) operation.
p139
sVpart-long-up
p140
VThis kernel is not suitable for SMP (multi-processor,\u000amulti-core or hyper-threaded) systems.
p141
ss(Vbase
p142
g56
tp143
(dp144
Vfeaturesets
p145
(lp146
g26
ag102
asVkernel-arch
p147
Vx86
p148
sstp149
Rp150
.