ccopy_reg
_reconstructor
p0
(cdebian_linux.config
ConfigCore
p1
c__builtin__
dict
p2
(dp3
(Vbase
p4
tp5
(dp6
Vfeaturesets
p7
(lp8
Vnone
p9
asVarches
p10
(lp11
Vamd64
p12
aVi386
p13
asVcompiler
p14
Vgcc-6
p15
ss(Vimage
p16
Vamd64
p17
NVsiduction-amd64
p18
tp19
(dp20
Vconfigs
p21
(lp22
Vkernelarch-x86/config-arch-64
p23
ass(Vversion
p24
tp25
(dp26
Vabiname_base
p27
V4.9.6
p28
sVabiname
p29
V4.9.6-towo.1
p30
sVupstream
p31
V4.9
p32
sVsource
p33
V4.9-11
p34
ss(Vdescription
p35
Vi386
p36
NVsiduction-686-pae
p37
tp38
(dp39
Vhardware-long
p40
VPCs with one or more processors supporting PAE
p41
sVhardware
p42
Vmodern PCs
p43
sVparts
p44
(lp45
Vpae
p46
ass(Vimage
p47
g17
tp48
(dp49
Vconfigs
p50
(lp51
sVinstall-stem
p52
Vvmlinuz
p53
sVsuggests
p54
Vcrda
p55
sVbootloaders
p56
(lp57
Vgrub-pc
p58
aVextlinux
p59
aVgrub-efi-amd64
p60
ass(Vdescription
p61
g36
NVsiduction-686
p62
tp63
(dp64
Vhardware-long
p65
VPCs with Intel Pentium Pro/II/III/4/4M/D/M, Xeon, Celeron, Core or Atom; AMD Geode LX/NX, Athlon (K7), Duron, Opteron, Sempron, Turion or Phenom; Transmeta Efficeon; VIA C3 "Nehemiah" or C7 processors
p66
sVhardware
p67
Vmodern PCs
p68
ss(Vimage
p69
g36
NVsiduction-686
p70
tp71
(dp72
Vconfigs
p73
(lp74
Vkernelarch-x86/config-arch-32
p75
asVrecommends
p76
Vlibc6-i686
p77
ss(Vimage
p78
tp79
(dp80
Vinitramfs-generators
p81
(lp82
Vinitramfs-tools
p83
aVinitramfs-fallback
p84
asVtype
p85
Vplain
p86
ss(Vbuild
p87
g36
tp88
(dp89
Vimage-file
p90
Varch/x86/boot/bzImage
p91
sVdebug-info
p92
I00
ss(Vbuild
p93
g36
NVsiduction-686-pae
p94
tp95
(dp96
Vdebug-info
p97
I00
ss(Vbase
p98
g17
Vnone
p99
tp100
(dp101
Vimplicit-flavour
p102
I01
sVflavours
p103
(lp104
Vsiduction-amd64
p105
ass(Vabi
p106
tp107
(dp108
Vabiname
p109
Vtowo.1
p110
ss(Vbase
p111
g36
tp112
(dp113
Vfeaturesets
p114
(lp115
Vnone
p116
asVkernel-arch
p117
Vx86
p118
ss(Vdescription
p119
g36
tp120
(dp121
Vpart-long-pae
p122
VThis kernel requires PAE (Physical Address Extension)\u000aThis feature is supported by the Intel Pentium Pro/II/III/4/4M/D, Xeon,\u000aCore and Atom; AMD Geode NX, Athlon (K7), Duron, Opteron, Sempron,\u000aTurion or Phenom; Transmeta Efficeon; VIA C7; and some other processors.
p123
ss(Vdescription
p124
g17
NVsiduction-amd64
p125
tp126
(dp127
Vhardware-long
p128
VPCs with AMD64 or Intel 64 processors
p129
sVhardware
p130
V64-bit PCs
p131
ss(Vxen
p132
g17
g99
Vsiduction-amd64
p133
tp134
(dp135
Vflavours
p136
(lp137
Vsiduction-amd64
p138
ass(Vimage
p139
g36
NVsiduction-686-pae
p140
tp141
(dp142
Vconfigs
p143
(lp144
Vkernelarch-x86/config-arch-32
p145
aVkernelarch-x86/config-arch-32-pae
p146
asVrecommends
p147
Vlibc6-i686
p148
ss(Vdescription
p149
g17
g99
Vsiduction-amd64
p150
tp151
(dp152
Vparts
p153
(lp154
Vxen
p155
ass(Vimage
p156
g36
tp157
(dp158
Vconfigs
p159
(lp160
sVinstall-stem
p161
Vvmlinuz
p162
sVsuggests
p163
Vcrda
p164
sVbootloaders
p165
(lp166
Vgrub-pc
p167
aVextlinux
p168
aVgrub-efi-ia32
p169
ass(Vbase
p170
g36
Vnone
p171
tp172
(dp173
Vflavours
p174
(lp175
Vsiduction-686
p176
aVsiduction-686-pae
p177
ass(Vdescription
p178
tp179
(dp180
Vpart-long-up
p181
VThis kernel is not suitable for SMP (multi-processor,\u000amulti-core or hyper-threaded) systems.
p182
sVpart-long-xen
p183
VThis kernel also runs on a Xen hypervisor.\u000aIt supports both privileged (dom0) and unprivileged (domU) operation.
p184
ss(Vrelations
p185
tp186
(dp187
Vinitramfs-fallback
p188
Vlinux-initramfs-tool
p189
sVgcc-6
p190
Vgcc-6
p191
sVinitramfs-tools
p192
Vinitramfs-tools (>= 0.110~)
p193
ss(Vbuild
p194
g17
tp195
(dp196
Vimage-file
p197
Varch/x86/boot/bzImage
p198
sVdebug-info
p199
I00
ss(Vbase
p200
g17
tp201
(dp202
Vfeaturesets
p203
(lp204
Vnone
p205
ag99
asVkernel-arch
p206
Vx86
p207
ss(Vdescription
p208
g36
g171
V686-pae
p209
tp210
(dp211
Vparts
p212
(lp213
Vxen
p214
asstp215
Rp216
.