ccopy_reg
_reconstructor
p0
(cdebian_linux.config
ConfigCore
p1
c__builtin__
dict
p2
(dp3
(Vbuild
p4
Vamd64
p5
tp6
(dp7
Vimage-file
p8
Varch/x86/boot/bzImage
p9
sVdebug-info
p10
I00
ss(Vbuild
p11
Vi386
p12
tp13
(dp14
Vimage-file
p15
Varch/x86/boot/bzImage
p16
sVdebug-info
p17
I00
ss(Vdescription
p18
g12
NVsiduction-686-pae
p19
tp20
(dp21
Vhardware-long
p22
VPCs with one or more processors supporting PAE
p23
sVhardware
p24
Vmodern PCs
p25
sVparts
p26
(lp27
Vpae
p28
ass(Vimage
p29
g5
tp30
(dp31
Vinstall-stem
p32
Vvmlinuz
p33
sVsuggests
p34
Vcrda
p35
sVbootloaders
p36
(lp37
Vgrub-pc
p38
aVextlinux
p39
aVgrub-efi-amd64
p40
asVconfigs
p41
(lp42
ss(Vbase
p43
tp44
(dp45
Varches
p46
(lp47
Vamd64
p48
aVi386
p49
asVcompiler
p50
Vgcc-6
p51
sVfeaturesets
p52
(lp53
Vnone
p54
ass(Vdescription
p55
g12
NVsiduction-686
p56
tp57
(dp58
Vhardware-long
p59
VPCs with Intel Pentium Pro/II/III/4/4M/D/M, Xeon, Celeron, Core or Atom; AMD Geode LX/NX, Athlon (K7), Duron, Opteron, Sempron, Turion or Phenom; Transmeta Efficeon; VIA C3 "Nehemiah" or C7 processors
p60
sVhardware
p61
Vmodern PCs
p62
ss(Vrelations
p63
tp64
(dp65
Vgcc-6
p66
Vgcc-6
p67
sVinitramfs-fallback
p68
Vlinux-initramfs-tool
p69
sVinitramfs-tools
p70
Vinitramfs-tools (>= 0.110~)
p71
ss(Vimage
p72
g12
NVsiduction-686-pae
p73
tp74
(dp75
Vrecommends
p76
Vlibc6-i686
p77
sVconfigs
p78
(lp79
Vkernelarch-x86/config-arch-32
p80
aVkernelarch-x86/config-arch-32-pae
p81
ass(Vdescription
p82
tp83
(dp84
Vpart-long-xen
p85
VThis kernel also runs on a Xen hypervisor.\u000aIt supports both privileged (dom0) and unprivileged (domU) operation.
p86
sVpart-long-up
p87
VThis kernel is not suitable for SMP (multi-processor,\u000amulti-core or hyper-threaded) systems.
p88
ss(Vbuild
p89
g12
NVsiduction-686-pae
p90
tp91
(dp92
Vdebug-info
p93
I00
ss(Vdescription
p94
g5
NVsiduction-amd64
p95
tp96
(dp97
Vhardware-long
p98
VPCs with AMD64 or Intel 64 processors
p99
sVhardware
p100
V64-bit PCs
p101
ss(Vdescription
p102
g12
tp103
(dp104
Vpart-long-pae
p105
VThis kernel requires PAE (Physical Address Extension)\u000aThis feature is supported by the Intel Pentium Pro/II/III/4/4M/D, Xeon,\u000aCore and Atom; AMD Geode NX, Athlon (K7), Duron, Opteron, Sempron,\u000aTurion or Phenom; Transmeta Efficeon; VIA C7; and some other processors.
p106
ss(Vversion
p107
tp108
(dp109
Vsource
p110
V4.9-7
p111
sVupstream
p112
V4.9
p113
sVabiname
p114
V4.9.3-towo.1
p115
sVabiname_base
p116
V4.9.3
p117
ss(Vbase
p118
g5
Vnone
p119
tp120
(dp121
Vimplicit-flavour
p122
I01
sVflavours
p123
(lp124
Vsiduction-amd64
p125
ass(Vbase
p126
g5
tp127
(dp128
Vkernel-arch
p129
Vx86
p130
sVfeaturesets
p131
(lp132
Vnone
p133
ag119
ass(Vbase
p134
g12
Vnone
p135
tp136
(dp137
Vflavours
p138
(lp139
Vsiduction-686
p140
aVsiduction-686-pae
p141
ass(Vimage
p142
g12
tp143
(dp144
Vinstall-stem
p145
Vvmlinuz
p146
sVsuggests
p147
Vcrda
p148
sVbootloaders
p149
(lp150
Vgrub-pc
p151
aVextlinux
p152
aVgrub-efi-ia32
p153
asVconfigs
p154
(lp155
ss(Vdescription
p156
g5
g119
Vsiduction-amd64
p157
tp158
(dp159
Vparts
p160
(lp161
Vxen
p162
ass(Vxen
p163
g5
g119
Vsiduction-amd64
p164
tp165
(dp166
Vflavours
p167
(lp168
Vsiduction-amd64
p169
ass(Vimage
p170
tp171
(dp172
Vtype
p173
Vplain
p174
sVinitramfs-generators
p175
(lp176
Vinitramfs-tools
p177
aVinitramfs-fallback
p178
ass(Vbase
p179
g12
tp180
(dp181
Vkernel-arch
p182
Vx86
p183
sVfeaturesets
p184
(lp185
Vnone
p186
ass(Vimage
p187
g5
NVsiduction-amd64
p188
tp189
(dp190
Vconfigs
p191
(lp192
Vkernelarch-x86/config-arch-64
p193
ass(Vabi
p194
tp195
(dp196
Vabiname
p197
Vtowo.1
p198
ss(Vimage
p199
g12
NVsiduction-686
p200
tp201
(dp202
Vrecommends
p203
Vlibc6-i686
p204
sVconfigs
p205
(lp206
Vkernelarch-x86/config-arch-32
p207
ass(Vdescription
p208
g12
g135
V686-pae
p209
tp210
(dp211
Vparts
p212
(lp213
Vxen
p214
asstp215
Rp216
.