ccopy_reg
_reconstructor
p0
(cdebian_linux.config
ConfigCore
p1
c__builtin__
dict
p2
(dp3
(Vbase
p4
tp5
(dp6
Varches
p7
(lp8
Vamd64
p9
aVi386
p10
asVfeaturesets
p11
(lp12
Vnone
p13
asVcompiler
p14
Vgcc-6
p15
ss(Vbase
p16
Vi386
p17
Vnone
p18
tp19
(dp20
Vflavours
p21
(lp22
Vsiduction-686
p23
aVsiduction-686-pae
p24
ass(Vdescription
p25
Vamd64
p26
NVsiduction-amd64
p27
tp28
(dp29
Vhardware-long
p30
VPCs with AMD64 or Intel 64 processors
p31
sVhardware
p32
V64-bit PCs
p33
ss(Vxen
p34
g26
Vnone
p35
Vsiduction-amd64
p36
tp37
(dp38
Vflavours
p39
(lp40
Vsiduction-amd64
p41
ass(Vdescription
p42
g17
tp43
(dp44
Vpart-long-pae
p45
VThis kernel requires PAE (Physical Address Extension)\u000aThis feature is supported by the Intel Pentium Pro/II/III/4/4M/D, Xeon,\u000aCore and Atom; AMD Geode NX, Athlon (K7), Duron, Opteron, Sempron,\u000aTurion or Phenom; Transmeta Efficeon; VIA C7; and some other processors.
p46
ss(Vabi
p47
tp48
(dp49
Vabiname
p50
Vtowo.2
p51
ss(Vimage
p52
g17
NVsiduction-686-pae
p53
tp54
(dp55
Vconfigs
p56
(lp57
Vkernelarch-x86/config-arch-32
p58
aVkernelarch-x86/config-arch-32-pae
p59
asVrecommends
p60
Vlibc6-i686
p61
ss(Vimage
p62
g17
tp63
(dp64
Vbootloaders
p65
(lp66
Vgrub-pc
p67
aVextlinux
p68
aVgrub-efi-ia32
p69
asVinstall-stem
p70
Vvmlinuz
p71
sVconfigs
p72
(lp73
sVsuggests
p74
Vcrda
p75
ss(Vbase
p76
g26
g35
tp77
(dp78
Vflavours
p79
(lp80
Vsiduction-amd64
p81
asVimplicit-flavour
p82
I01
ss(Vimage
p83
g26
NVsiduction-amd64
p84
tp85
(dp86
Vconfigs
p87
(lp88
Vkernelarch-x86/config-arch-64
p89
ass(Vdescription
p90
g17
NVsiduction-686
p91
tp92
(dp93
Vhardware-long
p94
VPCs with Intel Pentium Pro/II/III/4/4M/D/M, Xeon, Celeron, Core or Atom; AMD Geode LX/NX, Athlon (K7), Duron, Opteron, Sempron, Turion or Phenom; Transmeta Efficeon; VIA C3 "Nehemiah" or C7 processors
p95
sVhardware
p96
Vmodern PCs
p97
ss(Vdescription
p98
tp99
(dp100
Vpart-long-up
p101
VThis kernel is not suitable for SMP (multi-processor,\u000amulti-core or hyper-threaded) systems.
p102
sVpart-long-xen
p103
VThis kernel also runs on a Xen hypervisor.\u000aIt supports both privileged (dom0) and unprivileged (domU) operation.
p104
ss(Vdescription
p105
g17
NVsiduction-686-pae
p106
tp107
(dp108
Vparts
p109
(lp110
Vpae
p111
asVhardware-long
p112
VPCs with one or more processors supporting PAE
p113
sVhardware
p114
Vmodern PCs
p115
ss(Vrelations
p116
tp117
(dp118
Vinitramfs-fallback
p119
Vlinux-initramfs-tool
p120
sVinitramfs-tools
p121
Vinitramfs-tools (>= 0.110~)
p122
sVgcc-6
p123
Vgcc-6
p124
ss(Vdescription
p125
g26
g35
Vsiduction-amd64
p126
tp127
(dp128
Vparts
p129
(lp130
Vxen
p131
ass(Vimage
p132
g17
NVsiduction-686
p133
tp134
(dp135
Vconfigs
p136
(lp137
Vkernelarch-x86/config-arch-32
p138
asVrecommends
p139
Vlibc6-i686
p140
ss(Vversion
p141
tp142
(dp143
Vsource
p144
V4.9-6
p145
sVabiname_base
p146
V4.9.2
p147
sVabiname
p148
V4.9.2-towo.2
p149
sVupstream
p150
V4.9
p151
ss(Vimage
p152
g26
tp153
(dp154
Vbootloaders
p155
(lp156
Vgrub-pc
p157
aVextlinux
p158
aVgrub-efi-amd64
p159
asVinstall-stem
p160
Vvmlinuz
p161
sVconfigs
p162
(lp163
sVsuggests
p164
Vcrda
p165
ss(Vbase
p166
g17
tp167
(dp168
Vfeaturesets
p169
(lp170
Vnone
p171
asVkernel-arch
p172
Vx86
p173
ss(Vdescription
p174
g17
g18
V686-pae
p175
tp176
(dp177
Vparts
p178
(lp179
Vxen
p180
ass(Vbuild
p181
g26
tp182
(dp183
Vdebug-info
p184
I00
sVimage-file
p185
Varch/x86/boot/bzImage
p186
ss(Vbase
p187
g26
tp188
(dp189
Vfeaturesets
p190
(lp191
Vnone
p192
ag35
asVkernel-arch
p193
Vx86
p194
ss(Vbuild
p195
g17
tp196
(dp197
Vdebug-info
p198
I00
sVimage-file
p199
Varch/x86/boot/bzImage
p200
ss(Vbuild
p201
g17
NVsiduction-686-pae
p202
tp203
(dp204
Vdebug-info
p205
I00
ss(Vimage
p206
tp207
(dp208
Vinitramfs-generators
p209
(lp210
Vinitramfs-tools
p211
aVinitramfs-fallback
p212
asVtype
p213
Vplain
p214
sstp215
Rp216
.