ccopy_reg
_reconstructor
p0
(cdebian_linux.config
ConfigCore
p1
c__builtin__
dict
p2
(dp3
(Vimage
p4
tp5
(dp6
Vinitramfs-generators
p7
(lp8
Vinitramfs-tools
p9
aVinitramfs-fallback
p10
ass(Vbase
p11
Vi386
p12
tp13
(dp14
Vfeaturesets
p15
(lp16
Vnone
p17
aVnone
p18
asVkernel-arch
p19
Vx86
p20
ss(Vdescription
p21
Vamd64
p22
Vnone
p23
Vsiduction-amd64
p24
tp25
(dp26
Vparts
p27
(lp28
Vxen
p29
ass(Vabi
p30
tp31
(dp32
Vabiname
p33
Vtowo.2
p34
ss(Vversion
p35
tp36
(dp37
Vupstream
p38
V4.9
p39
sVabiname_base
p40
V4.9.11
p41
sVsource
p42
V4.9-23
p43
sVabiname
p44
V4.9.11-towo.2
p45
ss(Vbase
p46
g12
g18
tp47
(dp48
Vimplicit-flavour
p49
I01
sVflavours
p50
(lp51
Vsiduction-686
p52
ass(Vbase
p53
g22
g23
tp54
(dp55
g49
I01
sg50
(lp56
Vsiduction-amd64
p57
ass(Vbase
p58
tp59
(dp60
Varches
p61
(lp62
Vamd64
p63
aVi386
p64
asVcompiler
p65
Vgcc-6
p66
sVfeaturesets
p67
(lp68
Vnone
p69
ass(Vbuild
p70
g12
tp71
(dp72
Vdebug-info
p73
I00
sVimage-file
p74
Varch/x86/boot/bzImage
p75
ss(Vbase
p76
g22
tp77
(dp78
Vfeaturesets
p79
(lp80
g17
ag23
asVkernel-arch
p81
Vx86
p82
ss(Vbuild
p83
g22
tp84
(dp85
Vdebug-info
p86
I00
sVimage-file
p87
Varch/x86/boot/bzImage
p88
ss(Vdescription
p89
g22
NVsiduction-amd64
p90
tp91
(dp92
Vhardware
p93
V64-bit PCs
p94
sVhardware-long
p95
VPCs with AMD64 or Intel 64 processors
p96
ss(Vdescription
p97
g12
NVsiduction-686
p98
tp99
(dp100
Vhardware
p101
Vmodern PCs
p102
sVhardware-long
p103
VPCs with Intel Pentium Pro/II/III/4/4M/D/M, Xeon, Celeron, Core or Atom; AMD Geode LX/NX, Athlon (K7), Duron, Opteron, Sempron, Turion or Phenom; Transmeta Efficeon; VIA C3 "Nehemiah" or C7 processors
p104
ss(Vimage
p105
g12
tp106
(dp107
Vsuggests
p108
Vcrda
p109
sVbreaks
p110
Vxserver-xorg-input-vmmouse (<< 1:13.0.99)
p111
sVinstall-stem
p112
Vvmlinuz
p113
sVbootloaders
p114
(lp115
Vgrub-pc
p116
aVextlinux
p117
aVgrub-efi-ia32
p118
ass(Vrelations
p119
tp120
(dp121
Vinitramfs-fallback
p122
Vlinux-initramfs-tool
p123
sVinitramfs-tools
p124
Vinitramfs-tools (>= 0.121~)
p125
sVgcc-6
p126
Vgcc-6
p127
ss(Vimage
p128
g22
tp129
(dp130
Vsuggests
p131
Vcrda
p132
sVbreaks
p133
Vxserver-xorg-input-vmmouse (<< 1:13.0.99)
p134
sVinstall-stem
p135
Vvmlinuz
p136
sVbootloaders
p137
(lp138
Vgrub-pc
p139
aVextlinux
p140
aVgrub-efi-amd64
p141
ass(Vdescription
p142
tp143
(dp144
Vpart-long-up
p145
VThis kernel is not suitable for SMP (multi-processor,\u000amulti-core or hyper-threaded) systems.
p146
sVpart-long-xen
p147
VThis kernel also runs on a Xen hypervisor.\u000aIt supports both privileged (dom0) and unprivileged (domU) operation.
p148
sstp149
Rp150
.