ccopy_reg
_reconstructor
p0
(cdebian_linux.config
ConfigCore
p1
c__builtin__
dict
p2
(dp3
(Vdescription
p4
Vamd64
p5
Vnone
p6
Vsiduction-amd64
p7
tp8
(dp9
Vparts
p10
(lp11
Vxen
p12
ass(Vbuild
p13
Vi386
p14
NVsiduction-686-pae
p15
tp16
(dp17
Vdebug-info
p18
I00
ss(Vdescription
p19
g14
NVsiduction-686
p20
tp21
(dp22
Vhardware
p23
Vmodern PCs
p24
sVhardware-long
p25
VPCs with Intel Pentium Pro/II/III/4/4M/D/M, Xeon, Celeron, Core or Atom; AMD Geode LX/NX, Athlon (K7), Duron, Opteron, Sempron, Turion or Phenom; Transmeta Efficeon; VIA C3 "Nehemiah" or C7 processors
p26
ss(Vimage
p27
g5
NVsiduction-amd64
p28
tp29
(dp30
Vconfigs
p31
(lp32
Vkernelarch-x86/config-arch-64
p33
ass(Vdescription
p34
g5
NVsiduction-amd64
p35
tp36
(dp37
Vhardware
p38
V64-bit PCs
p39
sVhardware-long
p40
VPCs with AMD64 or Intel 64 processors
p41
ss(Vimage
p42
tp43
(dp44
Vtype
p45
Vplain
p46
sVinitramfs-generators
p47
(lp48
Vinitramfs-tools
p49
aVinitramfs-fallback
p50
ass(Vimage
p51
g14
tp52
(dp53
Vsuggests
p54
Vcrda
p55
sVconfigs
p56
(lp57
sVinstall-stem
p58
Vvmlinuz
p59
sVbootloaders
p60
(lp61
Vgrub-pc
p62
aVextlinux
p63
aVgrub-efi-ia32
p64
ass(Vbase
p65
g5
g6
tp66
(dp67
Vflavours
p68
(lp69
Vsiduction-amd64
p70
asVimplicit-flavour
p71
I01
ss(Vxen
p72
g5
g6
Vsiduction-amd64
p73
tp74
(dp75
Vflavours
p76
(lp77
Vsiduction-amd64
p78
ass(Vimage
p79
g14
NVsiduction-686-pae
p80
tp81
(dp82
Vconfigs
p83
(lp84
Vkernelarch-x86/config-arch-32
p85
aVkernelarch-x86/config-arch-32-pae
p86
asVrecommends
p87
Vlibc6-i686
p88
ss(Vdescription
p89
g14
Vnone
p90
V686-pae
p91
tp92
(dp93
Vparts
p94
(lp95
Vxen
p96
ass(Vimage
p97
g5
tp98
(dp99
Vsuggests
p100
Vcrda
p101
sVconfigs
p102
(lp103
sVinstall-stem
p104
Vvmlinuz
p105
sVbootloaders
p106
(lp107
Vgrub-pc
p108
aVextlinux
p109
aVgrub-efi-amd64
p110
ass(Vdescription
p111
g14
NVsiduction-686-pae
p112
tp113
(dp114
Vhardware
p115
Vmodern PCs
p116
sVparts
p117
(lp118
Vpae
p119
asVhardware-long
p120
VPCs with one or more processors supporting PAE
p121
ss(Vbase
p122
g14
tp123
(dp124
Vfeaturesets
p125
(lp126
Vnone
p127
asVkernel-arch
p128
Vx86
p129
ss(Vdescription
p130
g14
tp131
(dp132
Vpart-long-pae
p133
VThis kernel requires PAE (Physical Address Extension)\u000aThis feature is supported by the Intel Pentium Pro/II/III/4/4M/D, Xeon,\u000aCore and Atom; AMD Geode NX, Athlon (K7), Duron, Opteron, Sempron,\u000aTurion or Phenom; Transmeta Efficeon; VIA C7; and some other processors.
p134
ss(Vbuild
p135
g5
tp136
(dp137
Vimage-file
p138
Varch/x86/boot/bzImage
p139
sVdebug-info
p140
I00
ss(Vbase
p141
g5
tp142
(dp143
Vfeaturesets
p144
(lp145
Vnone
p146
ag6
asVkernel-arch
p147
Vx86
p148
ss(Vbase
p149
tp150
(dp151
Vfeaturesets
p152
(lp153
Vnone
p154
asVcompiler
p155
Vgcc-6
p156
sVarches
p157
(lp158
Vamd64
p159
aVi386
p160
ass(Vrelations
p161
tp162
(dp163
Vgcc-6
p164
Vgcc-6
p165
sVinitramfs-tools
p166
Vinitramfs-tools (>= 0.110~)
p167
sVinitramfs-fallback
p168
Vlinux-initramfs-tool
p169
ss(Vimage
p170
g14
NVsiduction-686
p171
tp172
(dp173
Vconfigs
p174
(lp175
Vkernelarch-x86/config-arch-32
p176
asVrecommends
p177
Vlibc6-i686
p178
ss(Vbase
p179
g14
g90
tp180
(dp181
Vflavours
p182
(lp183
Vsiduction-686
p184
aVsiduction-686-pae
p185
ass(Vbuild
p186
g14
tp187
(dp188
Vimage-file
p189
Varch/x86/boot/bzImage
p190
sVdebug-info
p191
I00
ss(Vversion
p192
tp193
(dp194
Vabiname
p195
V4.9.0-rc8
p196
sVupstream
p197
V4.9-rc8
p198
sVsource
p199
V4.9~rc8-1~exp2
p200
sVabiname_base
p201
g196
ss(Vabi
p202
tp203
(dp204
Vabiname
p205
Vtowo.1
p206
ss(Vdescription
p207
tp208
(dp209
Vpart-long-xen
p210
VThis kernel also runs on a Xen hypervisor.\u000aIt supports both privileged (dom0) and unprivileged (domU) operation.
p211
sVpart-long-up
p212
VThis kernel is not suitable for SMP (multi-processor,\u000amulti-core or hyper-threaded) systems.
p213
sstp214
Rp215
.