ccopy_reg
_reconstructor
p0
(cdebian_linux.config
ConfigCore
p1
c__builtin__
dict
p2
(dp3
(Vabi
p4
tp5
(dp6
Vabiname
p7
Vtowo.2
p8
ss(Vversion
p9
tp10
(dp11
Vabiname
p12
V4.12.7-towo.2
p13
sVabiname_base
p14
V4.12.7
p15
sVsource
p16
V4.12-13
p17
sVupstream
p18
V4.12
p19
ss(Vbase
p20
Vamd64
p21
tp22
(dp23
Vfeaturesets
p24
(lp25
Vnone
p26
aVnone
p27
asVkernel-arch
p28
Vx86
p29
ss(Vbase
p30
g21
g27
tp31
(dp32
Vflavours
p33
(lp34
Vsiduction-amd64
p35
asVimplicit-flavour
p36
I01
ss(Vimage
p37
tp38
(dp39
Vinitramfs-generators
p40
(lp41
Vinitramfs-tools
p42
aVinitramfs-fallback
p43
ass(Vdescription
p44
g21
g27
Vsiduction-amd64
p45
tp46
(dp47
Vparts
p48
(lp49
Vxen
p50
ass(Vrelations
p51
tp52
(dp53
Vinitramfs-tools
p54
Vinitramfs-tools (>= 0.121~)
p55
sVinitramfs-fallback
p56
Vlinux-initramfs-tool
p57
sVgcc-7
p58
Vgcc-7
p59
ss(Vdescription
p60
g21
NVsiduction-amd64
p61
tp62
(dp63
Vhardware-long
p64
VPCs with AMD64 or Intel 64 processors
p65
sVhardware
p66
V64-bit PCs
p67
ss(Vdescription
p68
tp69
(dp70
Vpart-long-up
p71
VThis kernel is not suitable for SMP (multi-processor,\u000amulti-core or hyper-threaded) systems.
p72
sVpart-long-xen
p73
VThis kernel also runs on a Xen hypervisor.\u000aIt supports both privileged (dom0) and unprivileged (domU) operation.
p74
ss(Vbase
p75
tp76
(dp77
Vcompiler
p78
Vgcc-7
p79
sVfeaturesets
p80
(lp81
Vnone
p82
asVarches
p83
(lp84
Vamd64
p85
ass(Vbuild
p86
g21
tp87
(dp88
Vdebug-info
p89
I00
sVimage-file
p90
Varch/x86/boot/bzImage
p91
ss(Vimage
p92
g21
tp93
(dp94
Vinstall-stem
p95
Vvmlinuz
p96
sVsuggests
p97
Vcrda
p98
sVbreaks
p99
Vxserver-xorg-input-vmmouse (<< 1:13.0.99)
p100
sVbootloaders
p101
(lp102
Vgrub-pc
p103
aVextlinux
p104
aVgrub-efi-amd64
p105
asstp106
Rp107
.