ccopy_reg
_reconstructor
p0
(cdebian_linux.config
ConfigCore
p1
c__builtin__
dict
p2
(dp3
(Vrelations
p4
tp5
(dp6
Vgcc-6
p7
Vgcc-6
p8
sVinitramfs-fallback
p9
Vlinux-initramfs-tool
p10
sVinitramfs-tools
p11
Vinitramfs-tools (>= 0.121~)
p12
ss(Vimage
p13
tp14
(dp15
Vinitramfs-generators
p16
(lp17
Vinitramfs-tools
p18
aVinitramfs-fallback
p19
ass(Vbase
p20
Vamd64
p21
Vnone
p22
tp23
(dp24
Vflavours
p25
(lp26
Vsiduction-amd64
p27
asVimplicit-flavour
p28
I01
ss(Vimage
p29
g21
tp30
(dp31
Vbreaks
p32
Vxserver-xorg-input-vmmouse (<< 1:13.0.99)
p33
sVsuggests
p34
Vcrda
p35
sVinstall-stem
p36
Vvmlinuz
p37
sVbootloaders
p38
(lp39
Vgrub-pc
p40
aVextlinux
p41
aVgrub-efi-amd64
p42
ass(Vdescription
p43
tp44
(dp45
Vpart-long-xen
p46
VThis kernel also runs on a Xen hypervisor.\u000aIt supports both privileged (dom0) and unprivileged (domU) operation.
p47
sVpart-long-up
p48
VThis kernel is not suitable for SMP (multi-processor,\u000amulti-core or hyper-threaded) systems.
p49
ss(Vdescription
p50
g21
NVsiduction-amd64
p51
tp52
(dp53
Vhardware-long
p54
VPCs with AMD64 or Intel 64 processors
p55
sVhardware
p56
V64-bit PCs
p57
ss(Vdescription
p58
g21
g22
Vsiduction-amd64
p59
tp60
(dp61
Vparts
p62
(lp63
Vxen
p64
ass(Vbase
p65
g21
tp66
(dp67
Vkernel-arch
p68
Vx86
p69
sVfeaturesets
p70
(lp71
Vnone
p72
ag22
ass(Vabi
p73
tp74
(dp75
Vabiname
p76
Vtowo.1
p77
ss(Vversion
p78
tp79
(dp80
Vupstream
p81
V4.12-rc4
p82
sVabiname_base
p83
V4.12.0-rc4
p84
sVsource
p85
V4.12~rc4-1~exp1
p86
sVabiname
p87
g84
ss(Vbase
p88
tp89
(dp90
Varches
p91
(lp92
Vamd64
p93
asVcompiler
p94
Vgcc-6
p95
sVfeaturesets
p96
(lp97
Vnone
p98
ass(Vbuild
p99
g21
tp100
(dp101
Vdebug-info
p102
I00
sVimage-file
p103
Varch/x86/boot/bzImage
p104
sstp105
Rp106
.