ccopy_reg
_reconstructor
p0
(cdebian_linux.config
ConfigCore
p1
c__builtin__
dict
p2
(dp3
(Vbase
p4
Vamd64
p5
tp6
(dp7
Vfeaturesets
p8
(lp9
Vnone
p10
aVnone
p11
asVkernel-arch
p12
Vx86
p13
ss(Vimage
p14
tp15
(dp16
Vinitramfs-generators
p17
(lp18
Vinitramfs-tools
p19
aVinitramfs-fallback
p20
ass(Vrelations
p21
tp22
(dp23
Vinitramfs-tools
p24
Vinitramfs-tools (>= 0.121~)
p25
sVinitramfs-fallback
p26
Vlinux-initramfs-tool
p27
sVgcc-7
p28
Vgcc-7
p29
ss(Vversion
p30
tp31
(dp32
Vupstream
p33
V4.12
p34
sVabiname
p35
V4.12.5-towo.1
p36
sVabiname_base
p37
V4.12.5
p38
sVsource
p39
V4.12-9
p40
ss(Vdescription
p41
g5
g11
Vsiduction-amd64
p42
tp43
(dp44
Vparts
p45
(lp46
Vxen
p47
ass(Vimage
p48
g5
tp49
(dp50
Vbootloaders
p51
(lp52
Vgrub-pc
p53
aVextlinux
p54
aVgrub-efi-amd64
p55
asVbreaks
p56
Vxserver-xorg-input-vmmouse (<< 1:13.0.99)
p57
sVinstall-stem
p58
Vvmlinuz
p59
sVsuggests
p60
Vcrda
p61
ss(Vbase
p62
tp63
(dp64
Varches
p65
(lp66
Vamd64
p67
asVcompiler
p68
Vgcc-7
p69
sVfeaturesets
p70
(lp71
Vnone
p72
ass(Vbase
p73
g5
g11
tp74
(dp75
Vflavours
p76
(lp77
Vsiduction-amd64
p78
asVimplicit-flavour
p79
I01
ss(Vdescription
p80
tp81
(dp82
Vpart-long-up
p83
VThis kernel is not suitable for SMP (multi-processor,\u000amulti-core or hyper-threaded) systems.
p84
sVpart-long-xen
p85
VThis kernel also runs on a Xen hypervisor.\u000aIt supports both privileged (dom0) and unprivileged (domU) operation.
p86
ss(Vabi
p87
tp88
(dp89
Vabiname
p90
Vtowo.1
p91
ss(Vbuild
p92
g5
tp93
(dp94
Vdebug-info
p95
I00
sVimage-file
p96
Varch/x86/boot/bzImage
p97
ss(Vdescription
p98
g5
NVsiduction-amd64
p99
tp100
(dp101
Vhardware
p102
V64-bit PCs
p103
sVhardware-long
p104
VPCs with AMD64 or Intel 64 processors
p105
sstp106
Rp107
.