ccopy_reg
_reconstructor
p0
(cdebian_linux.config
ConfigCore
p1
c__builtin__
dict
p2
(dp3
(Vbase
p4
Vamd64
p5
tp6
(dp7
Vfeaturesets
p8
(lp9
Vnone
p10
aVnone
p11
asVkernel-arch
p12
Vx86
p13
ss(Vbase
p14
tp15
(dp16
Varches
p17
(lp18
Vamd64
p19
asVfeaturesets
p20
(lp21
Vnone
p22
asVcompiler
p23
Vgcc-7
p24
ss(Vdescription
p25
g5
g11
Vsiduction-amd64
p26
tp27
(dp28
Vparts
p29
(lp30
Vxen
p31
ass(Vbase
p32
g5
g11
tp33
(dp34
Vimplicit-flavour
p35
I01
sVflavours
p36
(lp37
Vsiduction-amd64
p38
ass(Vabi
p39
tp40
(dp41
Vabiname
p42
Vtowo.1
p43
ss(Vdescription
p44
g5
NVsiduction-amd64
p45
tp46
(dp47
Vhardware-long
p48
VPCs with AMD64 or Intel 64 processors
p49
sVhardware
p50
V64-bit PCs
p51
ss(Vbuild
p52
g5
tp53
(dp54
Vimage-file
p55
Varch/x86/boot/bzImage
p56
sVdebug-info
p57
I00
ss(Vimage
p58
tp59
(dp60
Vinitramfs-generators
p61
(lp62
Vinitramfs-tools
p63
aVinitramfs-fallback
p64
ass(Vdescription
p65
tp66
(dp67
Vpart-long-xen
p68
VThis kernel also runs on a Xen hypervisor.\u000aIt supports both privileged (dom0) and unprivileged (domU) operation.
p69
sVpart-long-up
p70
VThis kernel is not suitable for SMP (multi-processor,\u000amulti-core or hyper-threaded) systems.
p71
ss(Vrelations
p72
tp73
(dp74
Vgcc-7
p75
Vgcc-7
p76
sVinitramfs-tools
p77
Vinitramfs-tools (>= 0.121~)
p78
sVinitramfs-fallback
p79
Vlinux-initramfs-tool
p80
ss(Vversion
p81
tp82
(dp83
Vabiname
p84
V4.12.10-towo.1
p85
sVabiname_base
p86
V4.12.10
p87
sVsource
p88
V4.12-17
p89
sVupstream
p90
V4.12
p91
ss(Vimage
p92
g5
tp93
(dp94
Vinstall-stem
p95
Vvmlinuz
p96
sVbreaks
p97
Vxserver-xorg-input-vmmouse (<< 1:13.0.99)
p98
sVbootloaders
p99
(lp100
Vgrub-pc
p101
aVextlinux
p102
aVgrub-efi-amd64
p103
asVsuggests
p104
Vcrda
p105
sstp106
Rp107
.