ccopy_reg
_reconstructor
p0
(cdebian_linux.config
ConfigCore
p1
c__builtin__
dict
p2
(dp3
(Vdescription
p4
Vamd64
p5
Vnone
p6
Vsiduction-amd64
p7
tp8
(dp9
Vparts
p10
(lp11
Vxen
p12
ass(Vbase
p13
g5
tp14
(dp15
Vfeaturesets
p16
(lp17
Vnone
p18
ag6
asVkernel-arch
p19
Vx86
p20
ss(Vversion
p21
tp22
(dp23
Vabiname_base
p24
V4.12.8
p25
sVsource
p26
V4.12-14
p27
sVupstream
p28
V4.12
p29
sVabiname
p30
V4.12.8-towo.1
p31
ss(Vimage
p32
g5
tp33
(dp34
Vinstall-stem
p35
Vvmlinuz
p36
sVsuggests
p37
Vcrda
p38
sVbootloaders
p39
(lp40
Vgrub-pc
p41
aVextlinux
p42
aVgrub-efi-amd64
p43
asVbreaks
p44
Vxserver-xorg-input-vmmouse (<< 1:13.0.99)
p45
ss(Vabi
p46
tp47
(dp48
Vabiname
p49
Vtowo.1
p50
ss(Vdescription
p51
g5
NVsiduction-amd64
p52
tp53
(dp54
Vhardware-long
p55
VPCs with AMD64 or Intel 64 processors
p56
sVhardware
p57
V64-bit PCs
p58
ss(Vdescription
p59
tp60
(dp61
Vpart-long-xen
p62
VThis kernel also runs on a Xen hypervisor.\u000aIt supports both privileged (dom0) and unprivileged (domU) operation.
p63
sVpart-long-up
p64
VThis kernel is not suitable for SMP (multi-processor,\u000amulti-core or hyper-threaded) systems.
p65
ss(Vbuild
p66
g5
tp67
(dp68
Vdebug-info
p69
I00
sVimage-file
p70
Varch/x86/boot/bzImage
p71
ss(Vimage
p72
tp73
(dp74
Vinitramfs-generators
p75
(lp76
Vinitramfs-tools
p77
aVinitramfs-fallback
p78
ass(Vrelations
p79
tp80
(dp81
Vinitramfs-tools
p82
Vinitramfs-tools (>= 0.121~)
p83
sVinitramfs-fallback
p84
Vlinux-initramfs-tool
p85
sVgcc-7
p86
Vgcc-7
p87
ss(Vbase
p88
g5
g6
tp89
(dp90
Vimplicit-flavour
p91
I01
sVflavours
p92
(lp93
Vsiduction-amd64
p94
ass(Vbase
p95
tp96
(dp97
Varches
p98
(lp99
Vamd64
p100
asVfeaturesets
p101
(lp102
Vnone
p103
asVcompiler
p104
Vgcc-7
p105
sstp106
Rp107
.