ccopy_reg
_reconstructor
p0
(cdebian_linux.config
ConfigCore
p1
c__builtin__
dict
p2
(dp3
(Vversion
p4
tp5
(dp6
Vsource
p7
V4.12-7
p8
sVabiname_base
p9
V4.12.5
p10
sVabiname
p11
V4.12.5-towo.1
p12
sVupstream
p13
V4.12
p14
ss(Vrelations
p15
tp16
(dp17
Vinitramfs-tools
p18
Vinitramfs-tools (>= 0.121~)
p19
sVgcc-7
p20
Vgcc-7
p21
sVinitramfs-fallback
p22
Vlinux-initramfs-tool
p23
ss(Vbase
p24
Vamd64
p25
tp26
(dp27
Vkernel-arch
p28
Vx86
p29
sVfeaturesets
p30
(lp31
Vnone
p32
aVnone
p33
ass(Vdescription
p34
tp35
(dp36
Vpart-long-up
p37
VThis kernel is not suitable for SMP (multi-processor,\u000amulti-core or hyper-threaded) systems.
p38
sVpart-long-xen
p39
VThis kernel also runs on a Xen hypervisor.\u000aIt supports both privileged (dom0) and unprivileged (domU) operation.
p40
ss(Vimage
p41
tp42
(dp43
Vinitramfs-generators
p44
(lp45
Vinitramfs-tools
p46
aVinitramfs-fallback
p47
ass(Vdescription
p48
g25
g33
Vsiduction-amd64
p49
tp50
(dp51
Vparts
p52
(lp53
Vxen
p54
ass(Vimage
p55
g25
tp56
(dp57
Vinstall-stem
p58
Vvmlinuz
p59
sVbreaks
p60
Vxserver-xorg-input-vmmouse (<< 1:13.0.99)
p61
sVbootloaders
p62
(lp63
Vgrub-pc
p64
aVextlinux
p65
aVgrub-efi-amd64
p66
asVsuggests
p67
Vcrda
p68
ss(Vbase
p69
tp70
(dp71
Varches
p72
(lp73
Vamd64
p74
asVcompiler
p75
Vgcc-7
p76
sVfeaturesets
p77
(lp78
Vnone
p79
ass(Vbuild
p80
g25
tp81
(dp82
Vdebug-info
p83
I00
sVimage-file
p84
Varch/x86/boot/bzImage
p85
ss(Vbase
p86
g25
g33
tp87
(dp88
Vflavours
p89
(lp90
Vsiduction-amd64
p91
asVimplicit-flavour
p92
I01
ss(Vdescription
p93
g25
NVsiduction-amd64
p94
tp95
(dp96
Vhardware-long
p97
VPCs with AMD64 or Intel 64 processors
p98
sVhardware
p99
V64-bit PCs
p100
ss(Vabi
p101
tp102
(dp103
Vabiname
p104
Vtowo.1
p105
sstp106
Rp107
.