ccopy_reg
_reconstructor
p0
(cdebian_linux.config
ConfigCore
p1
c__builtin__
dict
p2
(dp3
(Vimage
p4
tp5
(dp6
Vinitramfs-generators
p7
(lp8
Vinitramfs-tools
p9
aVinitramfs-fallback
p10
ass(Vbase
p11
Vamd64
p12
tp13
(dp14
Vkernel-arch
p15
Vx86
p16
sVfeaturesets
p17
(lp18
Vnone
p19
aVnone
p20
ass(Vabi
p21
tp22
(dp23
Vabiname
p24
Vtowo.1
p25
ss(Vbase
p26
tp27
(dp28
Vcompiler
p29
Vgcc-7
p30
sVarches
p31
(lp32
Vamd64
p33
asVfeaturesets
p34
(lp35
Vnone
p36
ass(Vdescription
p37
tp38
(dp39
Vpart-long-up
p40
VThis kernel is not suitable for SMP (multi-processor,\u000amulti-core or hyper-threaded) systems.
p41
sVpart-long-xen
p42
VThis kernel also runs on a Xen hypervisor.\u000aIt supports both privileged (dom0) and unprivileged (domU) operation.
p43
ss(Vrelations
p44
tp45
(dp46
Vinitramfs-fallback
p47
Vlinux-initramfs-tool
p48
sVgcc-7
p49
Vgcc-7
p50
sVinitramfs-tools
p51
Vinitramfs-tools (>= 0.121~)
p52
ss(Vbuild
p53
g12
tp54
(dp55
Vdebug-info
p56
I00
sVimage-file
p57
Varch/x86/boot/bzImage
p58
ss(Vversion
p59
tp60
(dp61
Vabiname_base
p62
V4.12.2
p63
sVabiname
p64
V4.12.2-towo.1
p65
sVsource
p66
V4.12-0~exp6
p67
sVupstream
p68
V4.12
p69
ss(Vbase
p70
g12
g20
tp71
(dp72
Vflavours
p73
(lp74
Vsiduction-amd64
p75
asVimplicit-flavour
p76
I01
ss(Vimage
p77
g12
tp78
(dp79
Vsuggests
p80
Vcrda
p81
sVbootloaders
p82
(lp83
Vgrub-pc
p84
aVextlinux
p85
aVgrub-efi-amd64
p86
asVbreaks
p87
Vxserver-xorg-input-vmmouse (<< 1:13.0.99)
p88
sVinstall-stem
p89
Vvmlinuz
p90
ss(Vdescription
p91
g12
g20
Vsiduction-amd64
p92
tp93
(dp94
Vparts
p95
(lp96
Vxen
p97
ass(Vdescription
p98
g12
NVsiduction-amd64
p99
tp100
(dp101
Vhardware
p102
V64-bit PCs
p103
sVhardware-long
p104
VPCs with AMD64 or Intel 64 processors
p105
sstp106
Rp107
.