ccopy_reg
_reconstructor
p0
(cdebian_linux.config
ConfigCore
p1
c__builtin__
dict
p2
(dp3
(Vimage
p4
Vamd64
p5
tp6
(dp7
Vinstall-stem
p8
Vvmlinuz
p9
sVbootloaders
p10
(lp11
Vgrub-pc
p12
aVextlinux
p13
aVgrub-efi-amd64
p14
asVbreaks
p15
Vxserver-xorg-input-vmmouse (<< 1:13.0.99)
p16
sVsuggests
p17
Vcrda
p18
ss(Vrelations
p19
tp20
(dp21
Vinitramfs-tools
p22
Vinitramfs-tools (>= 0.121~)
p23
sVinitramfs-fallback
p24
Vlinux-initramfs-tool
p25
sVgcc-7
p26
Vgcc-7
p27
ss(Vversion
p28
tp29
(dp30
Vupstream
p31
V4.12
p32
sVabiname
p33
V4.12.4-towo.1
p34
sVsource
p35
V4.12-5
p36
sVabiname_base
p37
V4.12.4
p38
ss(Vdescription
p39
tp40
(dp41
Vpart-long-up
p42
VThis kernel is not suitable for SMP (multi-processor,\u000amulti-core or hyper-threaded) systems.
p43
sVpart-long-xen
p44
VThis kernel also runs on a Xen hypervisor.\u000aIt supports both privileged (dom0) and unprivileged (domU) operation.
p45
ss(Vbase
p46
g5
Vnone
p47
tp48
(dp49
Vimplicit-flavour
p50
I01
sVflavours
p51
(lp52
Vsiduction-amd64
p53
ass(Vbase
p54
tp55
(dp56
Varches
p57
(lp58
Vamd64
p59
asVfeaturesets
p60
(lp61
Vnone
p62
asVcompiler
p63
Vgcc-7
p64
ss(Vbuild
p65
g5
tp66
(dp67
Vdebug-info
p68
I00
sVimage-file
p69
Varch/x86/boot/bzImage
p70
ss(Vimage
p71
tp72
(dp73
Vinitramfs-generators
p74
(lp75
Vinitramfs-tools
p76
aVinitramfs-fallback
p77
ass(Vdescription
p78
g5
g47
Vsiduction-amd64
p79
tp80
(dp81
Vparts
p82
(lp83
Vxen
p84
ass(Vabi
p85
tp86
(dp87
Vabiname
p88
Vtowo.1
p89
ss(Vbase
p90
g5
tp91
(dp92
Vfeaturesets
p93
(lp94
Vnone
p95
ag47
asVkernel-arch
p96
Vx86
p97
ss(Vdescription
p98
g5
NVsiduction-amd64
p99
tp100
(dp101
Vhardware-long
p102
VPCs with AMD64 or Intel 64 processors
p103
sVhardware
p104
V64-bit PCs
p105
sstp106
Rp107
.