ccopy_reg
_reconstructor
p0
(cdebian_linux.config
ConfigCore
p1
c__builtin__
dict
p2
(dp3
(Vdescription
p4
Vamd64
p5
Vnone
p6
Vsiduction-amd64
p7
tp8
(dp9
Vparts
p10
(lp11
Vxen
p12
ass(Vbase
p13
g5
tp14
(dp15
Vkernel-arch
p16
Vx86
p17
sVfeaturesets
p18
(lp19
Vnone
p20
ag6
ass(Vbase
p21
g5
g6
tp22
(dp23
Vimplicit-flavour
p24
I01
sVflavours
p25
(lp26
Vsiduction-amd64
p27
ass(Vrelations
p28
tp29
(dp30
Vinitramfs-fallback
p31
Vlinux-initramfs-tool
p32
sVgcc-6
p33
Vgcc-6
p34
sVinitramfs-tools
p35
Vinitramfs-tools (>= 0.121~)
p36
ss(Vbuild
p37
g5
tp38
(dp39
Vimage-file
p40
Varch/x86/boot/bzImage
p41
sVdebug-info
p42
I00
ss(Vversion
p43
tp44
(dp45
Vsource
p46
V4.12~rc5-1~exp1
p47
sVupstream
p48
V4.12-rc5
p49
sVabiname_base
p50
V4.12.0-rc5
p51
sVabiname
p52
g51
ss(Vdescription
p53
g5
NVsiduction-amd64
p54
tp55
(dp56
Vhardware-long
p57
VPCs with AMD64 or Intel 64 processors
p58
sVhardware
p59
V64-bit PCs
p60
ss(Vbase
p61
tp62
(dp63
Vcompiler
p64
Vgcc-6
p65
sVarches
p66
(lp67
Vamd64
p68
asVfeaturesets
p69
(lp70
Vnone
p71
ass(Vdescription
p72
tp73
(dp74
Vpart-long-xen
p75
VThis kernel also runs on a Xen hypervisor.\u000aIt supports both privileged (dom0) and unprivileged (domU) operation.
p76
sVpart-long-up
p77
VThis kernel is not suitable for SMP (multi-processor,\u000amulti-core or hyper-threaded) systems.
p78
ss(Vimage
p79
tp80
(dp81
Vinitramfs-generators
p82
(lp83
Vinitramfs-tools
p84
aVinitramfs-fallback
p85
ass(Vimage
p86
g5
tp87
(dp88
Vsuggests
p89
Vcrda
p90
sVbootloaders
p91
(lp92
Vgrub-pc
p93
aVextlinux
p94
aVgrub-efi-amd64
p95
asVinstall-stem
p96
Vvmlinuz
p97
sVbreaks
p98
Vxserver-xorg-input-vmmouse (<< 1:13.0.99)
p99
ss(Vabi
p100
tp101
(dp102
Vabiname
p103
Vtowo.1
p104
sstp105
Rp106
.