ccopy_reg
_reconstructor
p0
(cdebian_linux.config
ConfigCore
p1
c__builtin__
dict
p2
(dp3
(Vdescription
p4
Vamd64
p5
Vnone
p6
Vsiduction-amd64
p7
tp8
(dp9
Vparts
p10
(lp11
Vxen
p12
ass(Vrelations
p13
tp14
(dp15
Vinitramfs-tools
p16
Vinitramfs-tools (>= 0.121~)
p17
sVinitramfs-fallback
p18
Vlinux-initramfs-tool
p19
sVgcc-7
p20
Vgcc-7
p21
ss(Vimage
p22
tp23
(dp24
Vinitramfs-generators
p25
(lp26
Vinitramfs-tools
p27
aVinitramfs-fallback
p28
ass(Vimage
p29
g5
tp30
(dp31
Vbootloaders
p32
(lp33
Vgrub-pc
p34
aVextlinux
p35
aVgrub-efi-amd64
p36
asVinstall-stem
p37
Vvmlinuz
p38
sVbreaks
p39
Vxserver-xorg-input-vmmouse (<< 1:13.0.99)
p40
sVsuggests
p41
Vcrda
p42
ss(Vdescription
p43
g5
NVsiduction-amd64
p44
tp45
(dp46
Vhardware-long
p47
VPCs with AMD64 or Intel 64 processors
p48
sVhardware
p49
V64-bit PCs
p50
ss(Vversion
p51
tp52
(dp53
Vabiname
p54
V4.12.3-towo.1
p55
sVsource
p56
V4.12-2
p57
sVabiname_base
p58
V4.12.3
p59
sVupstream
p60
V4.12
p61
ss(Vbase
p62
tp63
(dp64
Vcompiler
p65
Vgcc-7
p66
sVarches
p67
(lp68
Vamd64
p69
asVfeaturesets
p70
(lp71
Vnone
p72
ass(Vbase
p73
g5
tp74
(dp75
Vkernel-arch
p76
Vx86
p77
sVfeaturesets
p78
(lp79
Vnone
p80
ag6
ass(Vdescription
p81
tp82
(dp83
Vpart-long-up
p84
VThis kernel is not suitable for SMP (multi-processor,\u000amulti-core or hyper-threaded) systems.
p85
sVpart-long-xen
p86
VThis kernel also runs on a Xen hypervisor.\u000aIt supports both privileged (dom0) and unprivileged (domU) operation.
p87
ss(Vbuild
p88
g5
tp89
(dp90
Vdebug-info
p91
I00
sVimage-file
p92
Varch/x86/boot/bzImage
p93
ss(Vabi
p94
tp95
(dp96
Vabiname
p97
Vtowo.1
p98
ss(Vbase
p99
g5
g6
tp100
(dp101
Vimplicit-flavour
p102
I01
sVflavours
p103
(lp104
Vsiduction-amd64
p105
asstp106
Rp107
.