ccopy_reg
_reconstructor
p0
(cdebian_linux.config
ConfigCore
p1
c__builtin__
dict
p2
(dp3
(Vbase
p4
tp5
(dp6
Varches
p7
(lp8
Vamd64
p9
asVcompiler
p10
Vgcc-7
p11
sVfeaturesets
p12
(lp13
Vnone
p14
ass(Vbuild
p15
Vamd64
p16
tp17
(dp18
Vimage-file
p19
Varch/x86/boot/bzImage
p20
sVdebug-info
p21
I00
ss(Vrelations
p22
tp23
(dp24
Vinitramfs-tools
p25
Vinitramfs-tools (>= 0.121~)
p26
sVgcc-7
p27
Vgcc-7
p28
sVinitramfs-fallback
p29
Vlinux-initramfs-tool
p30
ss(Vimage
p31
g16
tp32
(dp33
Vbootloaders
p34
(lp35
Vgrub-pc
p36
aVextlinux
p37
aVgrub-efi-amd64
p38
asVbreaks
p39
Vxserver-xorg-input-vmmouse (<< 1:13.0.99)
p40
sVsuggests
p41
Vcrda
p42
sVinstall-stem
p43
Vvmlinuz
p44
ss(Vbase
p45
g16
tp46
(dp47
Vkernel-arch
p48
Vx86
p49
sVfeaturesets
p50
(lp51
Vnone
p52
aVnone
p53
ass(Vabi
p54
tp55
(dp56
Vabiname
p57
Vtowo.2
p58
ss(Vversion
p59
tp60
(dp61
Vsource
p62
V4.12-6
p63
sVupstream
p64
V4.12
p65
sVabiname
p66
V4.12.4-towo.2
p67
sVabiname_base
p68
V4.12.4
p69
ss(Vdescription
p70
g16
g53
Vsiduction-amd64
p71
tp72
(dp73
Vparts
p74
(lp75
Vxen
p76
ass(Vimage
p77
tp78
(dp79
Vinitramfs-generators
p80
(lp81
Vinitramfs-tools
p82
aVinitramfs-fallback
p83
ass(Vdescription
p84
tp85
(dp86
Vpart-long-up
p87
VThis kernel is not suitable for SMP (multi-processor,\u000amulti-core or hyper-threaded) systems.
p88
sVpart-long-xen
p89
VThis kernel also runs on a Xen hypervisor.\u000aIt supports both privileged (dom0) and unprivileged (domU) operation.
p90
ss(Vbase
p91
g16
g53
tp92
(dp93
Vflavours
p94
(lp95
Vsiduction-amd64
p96
asVimplicit-flavour
p97
I01
ss(Vdescription
p98
g16
NVsiduction-amd64
p99
tp100
(dp101
Vhardware-long
p102
VPCs with AMD64 or Intel 64 processors
p103
sVhardware
p104
V64-bit PCs
p105
sstp106
Rp107
.