ccopy_reg
_reconstructor
p0
(cdebian_linux.config
ConfigCore
p1
c__builtin__
dict
p2
(dp3
(Vdescription
p4
tp5
(dp6
Vpart-long-up
p7
VThis kernel is not suitable for SMP (multi-processor,\u000amulti-core or hyper-threaded) systems.
p8
sVpart-long-xen
p9
VThis kernel also runs on a Xen hypervisor.\u000aIt supports both privileged (dom0) and unprivileged (domU) operation.
p10
ss(Vdescription
p11
Vamd64
p12
NVsiduction-amd64
p13
tp14
(dp15
Vhardware
p16
V64-bit PCs
p17
sVhardware-long
p18
VPCs with AMD64 or Intel 64 processors
p19
ss(Vdescription
p20
g12
Vnone
p21
Vsiduction-amd64
p22
tp23
(dp24
Vparts
p25
(lp26
Vxen
p27
ass(Vrelations
p28
tp29
(dp30
Vinitramfs-fallback
p31
Vlinux-initramfs-tool
p32
sVinitramfs-tools
p33
Vinitramfs-tools (>= 0.121~)
p34
sVgcc-7
p35
Vgcc-7
p36
ss(Vbase
p37
g12
tp38
(dp39
Vfeaturesets
p40
(lp41
Vnone
p42
ag21
asVkernel-arch
p43
Vx86
p44
ss(Vimage
p45
g12
tp46
(dp47
Vsuggests
p48
Vcrda
p49
sVbreaks
p50
Vxserver-xorg-input-vmmouse (<< 1:13.0.99)
p51
sVbootloaders
p52
(lp53
Vgrub-pc
p54
aVextlinux
p55
aVgrub-efi-amd64
p56
asVinstall-stem
p57
Vvmlinuz
p58
ss(Vabi
p59
tp60
(dp61
Vabiname
p62
Vtowo.2
p63
ss(Vbase
p64
g12
g21
tp65
(dp66
Vimplicit-flavour
p67
I01
sVflavours
p68
(lp69
Vsiduction-amd64
p70
ass(Vversion
p71
tp72
(dp73
Vsource
p74
V4.12-0~exp5
p75
sVupstream
p76
V4.12
p77
sVabiname
p78
V4.12.1-towo.2
p79
sVabiname_base
p80
V4.12.1
p81
ss(Vimage
p82
tp83
(dp84
Vinitramfs-generators
p85
(lp86
Vinitramfs-tools
p87
aVinitramfs-fallback
p88
ass(Vbase
p89
tp90
(dp91
Vfeaturesets
p92
(lp93
Vnone
p94
asVcompiler
p95
Vgcc-7
p96
sVarches
p97
(lp98
Vamd64
p99
ass(Vbuild
p100
g12
tp101
(dp102
Vdebug-info
p103
I00
sVimage-file
p104
Varch/x86/boot/bzImage
p105
sstp106
Rp107
.