ccopy_reg
_reconstructor
p0
(cdebian_linux.config
ConfigCore
p1
c__builtin__
dict
p2
(dp3
(Vimage
p4
Vamd64
p5
tp6
(dp7
Vbootloaders
p8
(lp9
Vgrub-pc
p10
aVextlinux
p11
aVgrub-efi-amd64
p12
asVbreaks
p13
Vxserver-xorg-input-vmmouse (<< 1:13.0.99)
p14
sVinstall-stem
p15
Vvmlinuz
p16
sVsuggests
p17
Vcrda
p18
ss(Vbase
p19
tp20
(dp21
Vfeaturesets
p22
(lp23
Vnone
p24
asVarches
p25
(lp26
Vamd64
p27
asVcompiler
p28
Vgcc-7
p29
ss(Vrelations
p30
tp31
(dp32
Vinitramfs-tools
p33
Vinitramfs-tools (>= 0.121~)
p34
sVgcc-7
p35
Vgcc-7
p36
sVinitramfs-fallback
p37
Vlinux-initramfs-tool
p38
ss(Vbuild
p39
g5
tp40
(dp41
Vimage-file
p42
Varch/x86/boot/bzImage
p43
sVdebug-info
p44
I00
ss(Vabi
p45
tp46
(dp47
Vabiname
p48
Vtowo.1
p49
ss(Vdescription
p50
g5
NVsiduction-amd64
p51
tp52
(dp53
Vhardware-long
p54
VPCs with AMD64 or Intel 64 processors
p55
sVhardware
p56
V64-bit PCs
p57
ss(Vdescription
p58
tp59
(dp60
Vpart-long-xen
p61
VThis kernel also runs on a Xen hypervisor.\u000aIt supports both privileged (dom0) and unprivileged (domU) operation.
p62
sVpart-long-up
p63
VThis kernel is not suitable for SMP (multi-processor,\u000amulti-core or hyper-threaded) systems.
p64
ss(Vdescription
p65
g5
Vnone
p66
Vsiduction-amd64
p67
tp68
(dp69
Vparts
p70
(lp71
Vxen
p72
ass(Vbase
p73
g5
g66
tp74
(dp75
Vflavours
p76
(lp77
Vsiduction-amd64
p78
asVimplicit-flavour
p79
I01
ss(Vimage
p80
tp81
(dp82
Vinitramfs-generators
p83
(lp84
Vinitramfs-tools
p85
aVinitramfs-fallback
p86
ass(Vversion
p87
tp88
(dp89
Vupstream
p90
V4.12-rc7
p91
sVsource
p92
V4.12~rc7-1~exp1
p93
sVabiname
p94
V4.12.0-rc7
p95
sVabiname_base
p96
g95
ss(Vbase
p97
g5
tp98
(dp99
Vkernel-arch
p100
Vx86
p101
sVfeaturesets
p102
(lp103
Vnone
p104
ag66
asstp105
Rp106
.