ccopy_reg
_reconstructor
p0
(cdebian_linux.config
ConfigCore
p1
c__builtin__
dict
p2
(dp3
(Vimage
p4
tp5
(dp6
Vinitramfs-generators
p7
(lp8
Vinitramfs-tools
p9
aVinitramfs-fallback
p10
ass(Vdescription
p11
Vamd64
p12
NVsiduction-amd64
p13
tp14
(dp15
Vhardware
p16
V64-bit PCs
p17
sVhardware-long
p18
VPCs with AMD64 or Intel 64 processors
p19
ss(Vrelations
p20
tp21
(dp22
Vgcc-7
p23
Vgcc-7
p24
sVinitramfs-fallback
p25
Vlinux-initramfs-tool
p26
sVinitramfs-tools
p27
Vinitramfs-tools (>= 0.121~)
p28
ss(Vdescription
p29
tp30
(dp31
Vpart-long-xen
p32
VThis kernel also runs on a Xen hypervisor.\u000aIt supports both privileged (dom0) and unprivileged (domU) operation.
p33
sVpart-long-up
p34
VThis kernel is not suitable for SMP (multi-processor,\u000amulti-core or hyper-threaded) systems.
p35
ss(Vdescription
p36
g12
Vnone
p37
Vsiduction-amd64
p38
tp39
(dp40
Vparts
p41
(lp42
Vxen
p43
ass(Vbase
p44
g12
g37
tp45
(dp46
Vimplicit-flavour
p47
I01
sVflavours
p48
(lp49
Vsiduction-amd64
p50
ass(Vabi
p51
tp52
(dp53
Vabiname
p54
Vtowo.1
p55
ss(Vimage
p56
g12
tp57
(dp58
Vbootloaders
p59
(lp60
Vgrub-pc
p61
aVextlinux
p62
aVgrub-efi-amd64
p63
asVsuggests
p64
Vcrda
p65
sVbreaks
p66
Vxserver-xorg-input-vmmouse (<< 1:13.0.99)
p67
sVinstall-stem
p68
Vvmlinuz
p69
ss(Vbase
p70
tp71
(dp72
Vfeaturesets
p73
(lp74
Vnone
p75
asVarches
p76
(lp77
Vamd64
p78
asVcompiler
p79
Vgcc-7
p80
ss(Vversion
p81
tp82
(dp83
Vupstream
p84
V4.12
p85
sVabiname_base
p86
V4.12.1
p87
sVabiname
p88
V4.12.1-towo.1
p89
sVsource
p90
V4.12-0~exp4
p91
ss(Vbuild
p92
g12
tp93
(dp94
Vdebug-info
p95
I00
sVimage-file
p96
Varch/x86/boot/bzImage
p97
ss(Vbase
p98
g12
tp99
(dp100
Vfeaturesets
p101
(lp102
Vnone
p103
ag37
asVkernel-arch
p104
Vx86
p105
sstp106
Rp107
.