ccopy_reg
_reconstructor
p0
(cdebian_linux.config
ConfigCore
p1
c__builtin__
dict
p2
(dp3
(Vdescription
p4
Vamd64
p5
Vnone
p6
Vsiduction-amd64
p7
tp8
(dp9
Vparts
p10
(lp11
Vxen
p12
ass(Vversion
p13
tp14
(dp15
Vabiname_base
p16
V4.12.6
p17
sVabiname
p18
V4.12.6-towo.1
p19
sVsource
p20
V4.12-10
p21
sVupstream
p22
V4.12
p23
ss(Vrelations
p24
tp25
(dp26
Vgcc-7
p27
Vgcc-7
p28
sVinitramfs-fallback
p29
Vlinux-initramfs-tool
p30
sVinitramfs-tools
p31
Vinitramfs-tools (>= 0.121~)
p32
ss(Vimage
p33
g5
tp34
(dp35
Vbreaks
p36
Vxserver-xorg-input-vmmouse (<< 1:13.0.99)
p37
sVinstall-stem
p38
Vvmlinuz
p39
sVbootloaders
p40
(lp41
Vgrub-pc
p42
aVextlinux
p43
aVgrub-efi-amd64
p44
asVsuggests
p45
Vcrda
p46
ss(Vdescription
p47
g5
NVsiduction-amd64
p48
tp49
(dp50
Vhardware-long
p51
VPCs with AMD64 or Intel 64 processors
p52
sVhardware
p53
V64-bit PCs
p54
ss(Vimage
p55
tp56
(dp57
Vinitramfs-generators
p58
(lp59
Vinitramfs-tools
p60
aVinitramfs-fallback
p61
ass(Vbuild
p62
g5
tp63
(dp64
Vdebug-info
p65
I00
sVimage-file
p66
Varch/x86/boot/bzImage
p67
ss(Vbase
p68
tp69
(dp70
Vcompiler
p71
Vgcc-7
p72
sVarches
p73
(lp74
Vamd64
p75
asVfeaturesets
p76
(lp77
Vnone
p78
ass(Vabi
p79
tp80
(dp81
Vabiname
p82
Vtowo.1
p83
ss(Vbase
p84
g5
g6
tp85
(dp86
Vflavours
p87
(lp88
Vsiduction-amd64
p89
asVimplicit-flavour
p90
I01
ss(Vbase
p91
g5
tp92
(dp93
Vkernel-arch
p94
Vx86
p95
sVfeaturesets
p96
(lp97
Vnone
p98
ag6
ass(Vdescription
p99
tp100
(dp101
Vpart-long-up
p102
VThis kernel is not suitable for SMP (multi-processor,\u000amulti-core or hyper-threaded) systems.
p103
sVpart-long-xen
p104
VThis kernel also runs on a Xen hypervisor.\u000aIt supports both privileged (dom0) and unprivileged (domU) operation.
p105
sstp106
Rp107
.