ccopy_reg
_reconstructor
p0
(cdebian_linux.config
ConfigCore
p1
c__builtin__
dict
p2
(dp3
(Vbase
p4
tp5
(dp6
Varches
p7
(lp8
Vamd64
p9
asVcompiler
p10
Vgcc-7
p11
sVfeaturesets
p12
(lp13
Vnone
p14
ass(Vbuild
p15
Vamd64
p16
tp17
(dp18
Vimage-file
p19
Varch/x86/boot/bzImage
p20
sVdebug-info
p21
I00
ss(Vdescription
p22
g16
NVsiduction-amd64
p23
tp24
(dp25
Vhardware-long
p26
VPCs with AMD64 or Intel 64 processors
p27
sVhardware
p28
V64-bit PCs
p29
ss(Vimage
p30
g16
tp31
(dp32
Vsuggests
p33
Vcrda
p34
sVbreaks
p35
Vxserver-xorg-input-vmmouse (<< 1:13.0.99)
p36
sVinstall-stem
p37
Vvmlinuz
p38
sVbootloaders
p39
(lp40
Vgrub-pc
p41
aVextlinux
p42
aVgrub-efi-amd64
p43
ass(Vabi
p44
tp45
(dp46
Vabiname
p47
Vtowo.3
p48
ss(Vversion
p49
tp50
(dp51
Vabiname_base
p52
V4.12.3
p53
sVabiname
p54
V4.12.3-towo.3
p55
sVsource
p56
V4.12-4
p57
sVupstream
p58
V4.12
p59
ss(Vbase
p60
g16
tp61
(dp62
Vkernel-arch
p63
Vx86
p64
sVfeaturesets
p65
(lp66
Vnone
p67
aVnone
p68
ass(Vimage
p69
tp70
(dp71
Vinitramfs-generators
p72
(lp73
Vinitramfs-tools
p74
aVinitramfs-fallback
p75
ass(Vbase
p76
g16
g68
tp77
(dp78
Vimplicit-flavour
p79
I01
sVflavours
p80
(lp81
Vsiduction-amd64
p82
ass(Vdescription
p83
tp84
(dp85
Vpart-long-xen
p86
VThis kernel also runs on a Xen hypervisor.\u000aIt supports both privileged (dom0) and unprivileged (domU) operation.
p87
sVpart-long-up
p88
VThis kernel is not suitable for SMP (multi-processor,\u000amulti-core or hyper-threaded) systems.
p89
ss(Vrelations
p90
tp91
(dp92
Vinitramfs-tools
p93
Vinitramfs-tools (>= 0.121~)
p94
sVinitramfs-fallback
p95
Vlinux-initramfs-tool
p96
sVgcc-7
p97
Vgcc-7
p98
ss(Vdescription
p99
g16
g68
Vsiduction-amd64
p100
tp101
(dp102
Vparts
p103
(lp104
Vxen
p105
asstp106
Rp107
.