ccopy_reg
_reconstructor
p0
(cdebian_linux.config
ConfigCore
p1
c__builtin__
dict
p2
(dp3
(Vimage
p4
tp5
(dp6
Vinitramfs-generators
p7
(lp8
Vinitramfs-tools
p9
aVinitramfs-fallback
p10
ass(Vdescription
p11
Vamd64
p12
NVsiduction-amd64
p13
tp14
(dp15
Vhardware-long
p16
VPCs with AMD64 or Intel 64 processors
p17
sVhardware
p18
V64-bit PCs
p19
ss(Vbase
p20
tp21
(dp22
Vfeaturesets
p23
(lp24
Vnone
p25
asVarches
p26
(lp27
Vamd64
p28
asVcompiler
p29
Vgcc-7
p30
ss(Vdescription
p31
g12
Vnone
p32
Vsiduction-amd64
p33
tp34
(dp35
Vparts
p36
(lp37
Vxen
p38
ass(Vversion
p39
tp40
(dp41
Vupstream
p42
V4.12
p43
sVabiname
p44
V4.12.0-towo.3
p45
sVsource
p46
V4.12-0~exp3
p47
sVabiname_base
p48
V4.12.0
p49
ss(Vrelations
p50
tp51
(dp52
Vinitramfs-fallback
p53
Vlinux-initramfs-tool
p54
sVgcc-7
p55
Vgcc-7
p56
sVinitramfs-tools
p57
Vinitramfs-tools (>= 0.121~)
p58
ss(Vbase
p59
g12
g32
tp60
(dp61
Vflavours
p62
(lp63
Vsiduction-amd64
p64
asVimplicit-flavour
p65
I01
ss(Vimage
p66
g12
tp67
(dp68
Vbootloaders
p69
(lp70
Vgrub-pc
p71
aVextlinux
p72
aVgrub-efi-amd64
p73
asVsuggests
p74
Vcrda
p75
sVinstall-stem
p76
Vvmlinuz
p77
sVbreaks
p78
Vxserver-xorg-input-vmmouse (<< 1:13.0.99)
p79
ss(Vabi
p80
tp81
(dp82
Vabiname
p83
Vtowo.3
p84
ss(Vbuild
p85
g12
tp86
(dp87
Vdebug-info
p88
I00
sVimage-file
p89
Varch/x86/boot/bzImage
p90
ss(Vbase
p91
g12
tp92
(dp93
Vfeaturesets
p94
(lp95
Vnone
p96
ag32
asVkernel-arch
p97
Vx86
p98
ss(Vdescription
p99
tp100
(dp101
Vpart-long-up
p102
VThis kernel is not suitable for SMP (multi-processor,\u000amulti-core or hyper-threaded) systems.
p103
sVpart-long-xen
p104
VThis kernel also runs on a Xen hypervisor.\u000aIt supports both privileged (dom0) and unprivileged (domU) operation.
p105
sstp106
Rp107
.