ccopy_reg
_reconstructor
p0
(cdebian_linux.config
ConfigCore
p1
c__builtin__
dict
p2
(dp3
(Vbase
p4
tp5
(dp6
Vcompiler
p7
Vgcc-7
p8
sVfeaturesets
p9
(lp10
Vnone
p11
asVarches
p12
(lp13
Vamd64
p14
ass(Vimage
p15
tp16
(dp17
Vinitramfs-generators
p18
(lp19
Vinitramfs-tools
p20
aVinitramfs-fallback
p21
ass(Vrelations
p22
tp23
(dp24
Vgcc-7
p25
Vgcc-7
p26
sVinitramfs-fallback
p27
Vlinux-initramfs-tool
p28
sVinitramfs-tools
p29
Vinitramfs-tools (>= 0.121~)
p30
ss(Vbase
p31
Vamd64
p32
Vnone
p33
tp34
(dp35
Vflavours
p36
(lp37
Vsiduction-amd64
p38
asVimplicit-flavour
p39
I01
ss(Vabi
p40
tp41
(dp42
Vabiname
p43
Vtowo.1
p44
ss(Vdescription
p45
g32
NVsiduction-amd64
p46
tp47
(dp48
Vhardware-long
p49
VPCs with AMD64 or Intel 64 processors
p50
sVhardware
p51
V64-bit PCs
p52
ss(Vdescription
p53
g32
g33
Vsiduction-amd64
p54
tp55
(dp56
Vparts
p57
(lp58
Vxen
p59
ass(Vversion
p60
tp61
(dp62
Vsource
p63
V4.12-12
p64
sVabiname
p65
V4.12.7-towo.1
p66
sVupstream
p67
V4.12
p68
sVabiname_base
p69
V4.12.7
p70
ss(Vimage
p71
g32
tp72
(dp73
Vbootloaders
p74
(lp75
Vgrub-pc
p76
aVextlinux
p77
aVgrub-efi-amd64
p78
asVbreaks
p79
Vxserver-xorg-input-vmmouse (<< 1:13.0.99)
p80
sVinstall-stem
p81
Vvmlinuz
p82
sVsuggests
p83
Vcrda
p84
ss(Vbuild
p85
g32
tp86
(dp87
Vdebug-info
p88
I00
sVimage-file
p89
Varch/x86/boot/bzImage
p90
ss(Vdescription
p91
tp92
(dp93
Vpart-long-up
p94
VThis kernel is not suitable for SMP (multi-processor,\u000amulti-core or hyper-threaded) systems.
p95
sVpart-long-xen
p96
VThis kernel also runs on a Xen hypervisor.\u000aIt supports both privileged (dom0) and unprivileged (domU) operation.
p97
ss(Vbase
p98
g32
tp99
(dp100
Vfeaturesets
p101
(lp102
Vnone
p103
ag33
asVkernel-arch
p104
Vx86
p105
sstp106
Rp107
.