ccopy_reg
_reconstructor
p0
(cdebian_linux.config
ConfigCore
p1
c__builtin__
dict
p2
(dp3
(Vversion
p4
tp5
(dp6
Vabiname
p7
V4.12.6-towo.2
p8
sVabiname_base
p9
V4.12.6
p10
sVsource
p11
V4.12-11
p12
sVupstream
p13
V4.12
p14
ss(Vdescription
p15
tp16
(dp17
Vpart-long-up
p18
VThis kernel is not suitable for SMP (multi-processor,\u000amulti-core or hyper-threaded) systems.
p19
sVpart-long-xen
p20
VThis kernel also runs on a Xen hypervisor.\u000aIt supports both privileged (dom0) and unprivileged (domU) operation.
p21
ss(Vbase
p22
tp23
(dp24
Varches
p25
(lp26
Vamd64
p27
asVcompiler
p28
Vgcc-7
p29
sVfeaturesets
p30
(lp31
Vnone
p32
ass(Vimage
p33
Vamd64
p34
tp35
(dp36
Vsuggests
p37
Vcrda
p38
sVbreaks
p39
Vxserver-xorg-input-vmmouse (<< 1:13.0.99)
p40
sVinstall-stem
p41
Vvmlinuz
p42
sVbootloaders
p43
(lp44
Vgrub-pc
p45
aVextlinux
p46
aVgrub-efi-amd64
p47
ass(Vbase
p48
g34
Vnone
p49
tp50
(dp51
Vflavours
p52
(lp53
Vsiduction-amd64
p54
asVimplicit-flavour
p55
I01
ss(Vimage
p56
tp57
(dp58
Vinitramfs-generators
p59
(lp60
Vinitramfs-tools
p61
aVinitramfs-fallback
p62
ass(Vbase
p63
g34
tp64
(dp65
Vkernel-arch
p66
Vx86
p67
sVfeaturesets
p68
(lp69
Vnone
p70
ag49
ass(Vabi
p71
tp72
(dp73
Vabiname
p74
Vtowo.2
p75
ss(Vrelations
p76
tp77
(dp78
Vgcc-7
p79
Vgcc-7
p80
sVinitramfs-tools
p81
Vinitramfs-tools (>= 0.121~)
p82
sVinitramfs-fallback
p83
Vlinux-initramfs-tool
p84
ss(Vbuild
p85
g34
tp86
(dp87
Vimage-file
p88
Varch/x86/boot/bzImage
p89
sVdebug-info
p90
I00
ss(Vdescription
p91
g34
NVsiduction-amd64
p92
tp93
(dp94
Vhardware
p95
V64-bit PCs
p96
sVhardware-long
p97
VPCs with AMD64 or Intel 64 processors
p98
ss(Vdescription
p99
g34
g49
Vsiduction-amd64
p100
tp101
(dp102
Vparts
p103
(lp104
Vxen
p105
asstp106
Rp107
.