ccopy_reg
_reconstructor
p0
(cdebian_linux.config
ConfigCore
p1
c__builtin__
dict
p2
(dp3
(Vbase
p4
Vamd64
p5
Vnone
p6
tp7
(dp8
Vimplicit-flavour
p9
I01
sVflavours
p10
(lp11
Vsiduction-amd64
p12
ass(Vrelations
p13
tp14
(dp15
Vgcc-7
p16
Vgcc-7
p17
sVinitramfs-fallback
p18
Vlinux-initramfs-tool
p19
sVinitramfs-tools
p20
Vinitramfs-tools (>= 0.121~)
p21
ss(Vimage
p22
g5
tp23
(dp24
Vsuggests
p25
Vcrda
p26
sVinstall-stem
p27
Vvmlinuz
p28
sVbreaks
p29
Vxserver-xorg-input-vmmouse (<< 1:13.0.99)
p30
sVbootloaders
p31
(lp32
Vgrub-pc
p33
aVextlinux
p34
aVgrub-efi-amd64
p35
ass(Vabi
p36
tp37
(dp38
Vabiname
p39
Vtowo.2
p40
ss(Vimage
p41
tp42
(dp43
Vinitramfs-generators
p44
(lp45
Vinitramfs-tools
p46
aVinitramfs-fallback
p47
ass(Vdescription
p48
tp49
(dp50
Vpart-long-up
p51
VThis kernel is not suitable for SMP (multi-processor,\u000amulti-core or hyper-threaded) systems.
p52
sVpart-long-xen
p53
VThis kernel also runs on a Xen hypervisor.\u000aIt supports both privileged (dom0) and unprivileged (domU) operation.
p54
ss(Vdescription
p55
g5
NVsiduction-amd64
p56
tp57
(dp58
Vhardware
p59
V64-bit PCs
p60
sVhardware-long
p61
VPCs with AMD64 or Intel 64 processors
p62
ss(Vdescription
p63
g5
g6
Vsiduction-amd64
p64
tp65
(dp66
Vparts
p67
(lp68
Vxen
p69
ass(Vbase
p70
tp71
(dp72
Vcompiler
p73
Vgcc-7
p74
sVarches
p75
(lp76
Vamd64
p77
asVfeaturesets
p78
(lp79
Vnone
p80
ass(Vbuild
p81
g5
tp82
(dp83
Vimage-file
p84
Varch/x86/boot/bzImage
p85
sVdebug-info
p86
I00
ss(Vbase
p87
g5
tp88
(dp89
Vfeaturesets
p90
(lp91
Vnone
p92
ag6
asVkernel-arch
p93
Vx86
p94
ss(Vversion
p95
tp96
(dp97
Vupstream
p98
V4.12
p99
sVsource
p100
V4.12-8
p101
sVabiname_base
p102
V4.12.5
p103
sVabiname
p104
V4.12.5-towo.2
p105
sstp106
Rp107
.