ccopy_reg
_reconstructor
p0
(cdebian_linux.config
ConfigCore
p1
c__builtin__
dict
p2
(dp3
(Vabi
p4
tp5
(dp6
Vabiname
p7
Vtowo.2
p8
ss(Vbase
p9
tp10
(dp11
Varches
p12
(lp13
Vamd64
p14
asVcompiler
p15
Vgcc-7
p16
sVfeaturesets
p17
(lp18
Vnone
p19
ass(Vbase
p20
Vamd64
p21
Vnone
p22
tp23
(dp24
Vimplicit-flavour
p25
I01
sVflavours
p26
(lp27
Vsiduction-amd64
p28
ass(Vimage
p29
tp30
(dp31
Vinitramfs-generators
p32
(lp33
Vinitramfs-tools
p34
aVinitramfs-fallback
p35
ass(Vdescription
p36
tp37
(dp38
Vpart-long-xen
p39
VThis kernel also runs on a Xen hypervisor.\u000aIt supports both privileged (dom0) and unprivileged (domU) operation.
p40
sVpart-long-up
p41
VThis kernel is not suitable for SMP (multi-processor,\u000amulti-core or hyper-threaded) systems.
p42
ss(Vbuild
p43
g21
tp44
(dp45
Vdebug-info
p46
I00
sVimage-file
p47
Varch/x86/boot/bzImage
p48
ss(Vversion
p49
tp50
(dp51
Vsource
p52
V4.12-15
p53
sVabiname
p54
V4.12.8-towo.2
p55
sVupstream
p56
V4.12
p57
sVabiname_base
p58
V4.12.8
p59
ss(Vbase
p60
g21
tp61
(dp62
Vfeaturesets
p63
(lp64
Vnone
p65
ag22
asVkernel-arch
p66
Vx86
p67
ss(Vdescription
p68
g21
g22
Vsiduction-amd64
p69
tp70
(dp71
Vparts
p72
(lp73
Vxen
p74
ass(Vdescription
p75
g21
NVsiduction-amd64
p76
tp77
(dp78
Vhardware-long
p79
VPCs with AMD64 or Intel 64 processors
p80
sVhardware
p81
V64-bit PCs
p82
ss(Vrelations
p83
tp84
(dp85
Vinitramfs-fallback
p86
Vlinux-initramfs-tool
p87
sVgcc-7
p88
Vgcc-7
p89
sVinitramfs-tools
p90
Vinitramfs-tools (>= 0.121~)
p91
ss(Vimage
p92
g21
tp93
(dp94
Vsuggests
p95
Vcrda
p96
sVinstall-stem
p97
Vvmlinuz
p98
sVbreaks
p99
Vxserver-xorg-input-vmmouse (<< 1:13.0.99)
p100
sVbootloaders
p101
(lp102
Vgrub-pc
p103
aVextlinux
p104
aVgrub-efi-amd64
p105
asstp106
Rp107
.