ccopy_reg
_reconstructor
p0
(cdebian_linux.config
ConfigCore
p1
c__builtin__
dict
p2
(dp3
(Vimage
p4
Vamd64
p5
tp6
(dp7
Vbootloaders
p8
(lp9
Vgrub-pc
p10
aVextlinux
p11
aVgrub-efi-amd64
p12
asVbreaks
p13
Vxserver-xorg-input-vmmouse (<< 1:13.0.99)
p14
sVsuggests
p15
Vcrda
p16
sVinstall-stem
p17
Vvmlinuz
p18
ss(Vbase
p19
g5
Vnone
p20
tp21
(dp22
Vflavours
p23
(lp24
Vsiduction-amd64
p25
asVimplicit-flavour
p26
I01
ss(Vrelations
p27
tp28
(dp29
Vinitramfs-tools
p30
Vinitramfs-tools (>= 0.121~)
p31
sVgcc-7
p32
Vgcc-7
p33
sVinitramfs-fallback
p34
Vlinux-initramfs-tool
p35
ss(Vversion
p36
tp37
(dp38
Vabiname_base
p39
V4.12.9
p40
sVupstream
p41
V4.12
p42
sVsource
p43
V4.12-16
p44
sVabiname
p45
V4.12.9-towo.1
p46
ss(Vdescription
p47
tp48
(dp49
Vpart-long-up
p50
VThis kernel is not suitable for SMP (multi-processor,\u000amulti-core or hyper-threaded) systems.
p51
sVpart-long-xen
p52
VThis kernel also runs on a Xen hypervisor.\u000aIt supports both privileged (dom0) and unprivileged (domU) operation.
p53
ss(Vimage
p54
tp55
(dp56
Vinitramfs-generators
p57
(lp58
Vinitramfs-tools
p59
aVinitramfs-fallback
p60
ass(Vbase
p61
g5
tp62
(dp63
Vfeaturesets
p64
(lp65
Vnone
p66
ag20
asVkernel-arch
p67
Vx86
p68
ss(Vbase
p69
tp70
(dp71
Vcompiler
p72
Vgcc-7
p73
sVfeaturesets
p74
(lp75
Vnone
p76
asVarches
p77
(lp78
Vamd64
p79
ass(Vabi
p80
tp81
(dp82
Vabiname
p83
Vtowo.1
p84
ss(Vdescription
p85
g5
NVsiduction-amd64
p86
tp87
(dp88
Vhardware-long
p89
VPCs with AMD64 or Intel 64 processors
p90
sVhardware
p91
V64-bit PCs
p92
ss(Vdescription
p93
g5
g20
Vsiduction-amd64
p94
tp95
(dp96
Vparts
p97
(lp98
Vxen
p99
ass(Vbuild
p100
g5
tp101
(dp102
Vdebug-info
p103
I00
sVimage-file
p104
Varch/x86/boot/bzImage
p105
sstp106
Rp107
.