ccopy_reg
_reconstructor
p0
(cdebian_linux.config
ConfigCore
p1
c__builtin__
dict
p2
(dp3
(Vdescription
p4
Vamd64
p5
NVsiduction-amd64
p6
tp7
(dp8
Vhardware
p9
V64-bit PCs
p10
sVhardware-long
p11
VPCs with AMD64 or Intel 64 processors
p12
ss(Vversion
p13
tp14
(dp15
Vsource
p16
V4.12~rc6-1~exp1
p17
sVupstream
p18
V4.12-rc6
p19
sVabiname_base
p20
V4.12.0-rc6
p21
sVabiname
p22
g21
ss(Vbase
p23
tp24
(dp25
Varches
p26
(lp27
Vamd64
p28
asVfeaturesets
p29
(lp30
Vnone
p31
asVcompiler
p32
Vgcc-6
p33
ss(Vabi
p34
tp35
(dp36
Vabiname
p37
Vtowo.1
p38
ss(Vbase
p39
g5
Vnone
p40
tp41
(dp42
Vflavours
p43
(lp44
Vsiduction-amd64
p45
asVimplicit-flavour
p46
I01
ss(Vdescription
p47
g5
g40
Vsiduction-amd64
p48
tp49
(dp50
Vparts
p51
(lp52
Vxen
p53
ass(Vdescription
p54
tp55
(dp56
Vpart-long-xen
p57
VThis kernel also runs on a Xen hypervisor.\u000aIt supports both privileged (dom0) and unprivileged (domU) operation.
p58
sVpart-long-up
p59
VThis kernel is not suitable for SMP (multi-processor,\u000amulti-core or hyper-threaded) systems.
p60
ss(Vrelations
p61
tp62
(dp63
Vgcc-6
p64
Vgcc-6
p65
sVinitramfs-fallback
p66
Vlinux-initramfs-tool
p67
sVinitramfs-tools
p68
Vinitramfs-tools (>= 0.121~)
p69
ss(Vimage
p70
tp71
(dp72
Vinitramfs-generators
p73
(lp74
Vinitramfs-tools
p75
aVinitramfs-fallback
p76
ass(Vbuild
p77
g5
tp78
(dp79
Vdebug-info
p80
I00
sVimage-file
p81
Varch/x86/boot/bzImage
p82
ss(Vimage
p83
g5
tp84
(dp85
Vsuggests
p86
Vcrda
p87
sVinstall-stem
p88
Vvmlinuz
p89
sVbreaks
p90
Vxserver-xorg-input-vmmouse (<< 1:13.0.99)
p91
sVbootloaders
p92
(lp93
Vgrub-pc
p94
aVextlinux
p95
aVgrub-efi-amd64
p96
ass(Vbase
p97
g5
tp98
(dp99
Vfeaturesets
p100
(lp101
Vnone
p102
ag40
asVkernel-arch
p103
Vx86
p104
sstp105
Rp106
.