ccopy_reg
_reconstructor
p1
(cdebian_linux.config
ConfigCore
p2
c__builtin__
dict
p3
(dp4
(S'image'
S'amd64'
p5
tp6
(dp7
S'suggests'
p8
S'crda'
p9
sS'configs'
p10
(lp11
S'kernelarch-x86/config'
p12
asS'bootloaders'
p13
(lp14
S'grub-pc'
p15
aS'extlinux'
p16
aS'grub-efi-amd64'
p17
ass(S'description'
g5
NS'siduction-amd64'
tp18
(dp19
S'hardware'
p20
S'64-bit PCs'
p21
sS'hardware-long'
p22
S'PCs with AMD64 or Intel 64 processors'
p23
ss(S'siduction-686_image-dbg'
p24
S'i386'
p25
tp26
(dp27
S'enabled'
p28
S'false'
p29
ss(S'base'
p30
g5
S'none'
p31
tp32
(dp33
S'implicit-flavour'
p34
I01
sS'flavours'
p35
(lp36
S'siduction-amd64'
p37
ass(S'base'
g5
tp38
(dp39
S'kernel-arch'
p40
S'x86'
p41
sS'featuresets'
p42
(lp43
g31
ass(S'image'
p44
tp45
(dp46
S'initramfs-generators'
p47
(lp48
S'initramfs-tools'
p49
aS'initramfs-fallback'
p50
asS'type'
p51
S'plain'
p52
ss(S'image'
g25
S'none'
p53
S'siduction-686-pae'
tp54
(dp55
S'configs'
p56
(lp57
S'kernelarch-x86/config-arch-32'
p58
aS'kernelarch-x86/config-arch-32-pae'
p59
asS'recommends'
p60
S'libc6-i686'
p61
ss(S'image'
g5
NS'siduction-amd64'
tp62
(dp63
S'configs'
p64
(lp65
S'kernelarch-x86/config-arch-64'
p66
ass(S'version'
p67
tp68
(dp69
S'abiname'
p70
S'3.13-0.towo.2'
p71
sS'source'
p72
V3.13-2
p73
ss(S'description'
g25
g53
S'siduction-686-pae'
tp74
(dp75
S'hardware'
p76
S'modern PCs with pae support'
p77
sS'hardware-long'
p78
S'PCs with Intel Xeon, Core or Atom; AMD Geode LX/NX, Athlon (K7), Opteron, Sempron, Turion or Phenom; Transmeta Efficeon; C7 processors'
p79
ss(S'image'
g25
NS'siduction-686'
tp80
(dp81
S'configs'
p82
(lp83
S'kernelarch-x86/config-arch-32'
p84
asS'recommends'
p85
S'libc6-i686'
p86
ss(S'base'
p87
g25
tp88
(dp89
S'kernel-arch'
p90
S'x86'
p91
sS'featuresets'
p92
(lp93
S'none'
p94
ass(S'description'
g25
NS'siduction-686'
tp95
(dp96
S'hardware'
p97
S'modern PCs'
p98
sS'hardware-long'
p99
S'PCs with Intel Pentium Pro/II/III/4/4M/D/M, Xeon, Celeron, Core or Atom; AMD Geode LX/NX, Athlon (K7), Duron, Opteron, Sempron, Turion or Phenom; Transmeta Efficeon; VIA C3 "Nehemiah" or C7 processors'
p100
ss(S'siduction-amd64-dbg'
g5
tp101
(dp102
S'enabled'
p103
S'false'
p104
ss(S'base'
g25
g53
tp105
(dp106
S'flavours'
p107
(lp108
S'siduction-686'
p109
aS'siduction-686-pae'
p110
ass(S'abi'
p111
tp112
(dp113
S'abiname'
p114
S'0.towo.2'
p115
ss(S'image'
p116
g25
tp117
(dp118
S'suggests'
p119
S'crda'
p120
sS'configs'
p121
(lp122
S'kernelarch-x86/config'
p123
asS'bootloaders'
p124
(lp125
S'grub-pc'
p126
aS'extlinux'
p127
ass(S'siduction-686-pae_image-dbg'
g25
g53
tp128
(dp129
S'enabled'
p130
S'false'
p131
ss(S'base'
p132
tp133
(dp134
S'arches'
p135
(lp136
S'amd64'
p137
aS'i386'
p138
asS'featuresets'
p139
(lp140
S'none'
p141
asS'compiler'
p142
S'gcc-4.8'
p143
ss(S'relations'
p144
tp145
(dp146
S'initramfs-fallback'
p147
S'linux-initramfs-tool'
p148
sS'lilo'
p149
S'lilo (>= 22.8-8.2~)'
p150
sS'gcc-4.8'
p151
S'gcc-4.8'
p152
sS'initramfs-tools'
p153
S'initramfs-tools (>= 0.110~)'
p154
sS'elilo'
p155
S'elilo (>= 3.12-3.1~)'
p156
sstRp157
.