ccopy_reg
_reconstructor
p0
(cdebian_linux.config
ConfigCore
p1
c__builtin__
dict
p2
(dp3
(S'image'
p4
S'amd64'
p5
NS'siduction-amd64'
p6
tp7
(dp8
S'configs'
p9
(lp10
S'kernelarch-x86/config-arch-64'
p11
ass(S'image'
p12
g5
tp13
(dp14
S'install-stem'
p15
S'vmlinuz'
p16
sS'configs'
p17
(lp18
sS'bootloaders'
p19
(lp20
S'grub-pc'
p21
aS'extlinux'
p22
aS'grub-efi-amd64'
p23
asS'suggests'
p24
S'crda'
p25
ss(S'base'
p26
g5
S'none'
p27
tp28
(dp29
S'implicit-flavour'
p30
I01
sS'flavours'
p31
(lp32
S'siduction-amd64'
p33
ass(S'description'
p34
g5
NS'siduction-amd64'
p35
tp36
(dp37
S'hardware'
p38
S'64-bit PCs'
p39
sS'hardware-long'
p40
S'PCs with AMD64 or Intel 64 processors'
p41
ss(S'description'
p42
tp43
(dp44
S'part-long-up'
p45
S'This kernel is not suitable for SMP (multi-processor,\nmulti-core or hyper-threaded) systems.'
p46
sS'part-long-xen'
p47
S'This kernel also runs on a Xen hypervisor.\nIt supports both privileged (dom0) and unprivileged (domU) operation.'
p48
ss(S'base'
p49
g5
tp50
(dp51
S'kernel-arch'
p52
S'x86'
p53
sS'featuresets'
p54
(lp55
S'none'
p56
ag27
ass(S'image'
p57
S'i386'
p58
NS'siduction-686'
p59
tp60
(dp61
S'configs'
p62
(lp63
S'kernelarch-x86/config-arch-32'
p64
asS'recommends'
p65
S'libc6-i686'
p66
ss(S'image'
p67
tp68
(dp69
S'initramfs-generators'
p70
(lp71
S'initramfs-tools'
p72
aS'initramfs-fallback'
p73
asS'type'
p74
S'plain'
p75
ss(S'build'
p76
g58
tp77
(dp78
S'debug-info'
p79
I00
sS'image-file'
p80
S'arch/x86/boot/bzImage'
p81
ss(S'xen'
p82
g5
g27
S'siduction-amd64'
p83
tp84
(dp85
S'flavours'
p86
(lp87
S'siduction-amd64'
p88
ass(S'base'
p89
g58
tp90
(dp91
S'kernel-arch'
p92
S'x86'
p93
sS'featuresets'
p94
(lp95
S'none'
p96
ass(S'description'
p97
g5
g27
S'siduction-amd64'
p98
tp99
(dp100
S'parts'
p101
(lp102
S'xen'
p103
ass(S'description'
p104
g58
NS'siduction-686-pae'
p105
tp106
(dp107
S'hardware'
p108
S'modern PCs'
p109
sS'parts'
p110
(lp111
S'pae'
p112
asS'hardware-long'
p113
S'PCs with one or more processors supporting PAE'
p114
ss(S'version'
p115
tp116
(dp117
S'abiname'
p118
S'3.17-1.towo.4'
p119
sS'source'
p120
V3.17-9
p121
sS'upstream'
p122
S'3.17'
p123
ss(S'description'
p124
g58
tp125
(dp126
S'part-long-pae'
p127
S'This kernel requires PAE (Physical Address Extension)\nThis feature is supported by the Intel Pentium Pro/II/III/4/4M/D, Xeon,\nCore and Atom; AMD Geode NX, Athlon (K7), Duron, Opteron, Sempron,\nTurion or Phenom; Transmeta Efficeon; VIA C7; and some other processors.'
p128
ss(S'image'
p129
g58
NS'siduction-686-pae'
p130
tp131
(dp132
S'configs'
p133
(lp134
S'kernelarch-x86/config-arch-32'
p135
aS'kernelarch-x86/config-arch-32-pae'
p136
asS'recommends'
p137
S'libc6-i686'
p138
ss(S'abi'
p139
tp140
(dp141
S'abiname'
p142
S'1.towo.4'
p143
ss(S'image'
p144
g58
tp145
(dp146
S'install-stem'
p147
S'vmlinuz'
p148
sS'configs'
p149
(lp150
sS'bootloaders'
p151
(lp152
S'grub-pc'
p153
aS'extlinux'
p154
aS'grub-efi-ia32'
p155
asS'suggests'
p156
S'crda'
p157
ss(S'base'
p158
g58
S'none'
p159
tp160
(dp161
S'flavours'
p162
(lp163
S'siduction-686'
p164
aS'siduction-686-pae'
p165
ass(S'build'
p166
g5
tp167
(dp168
S'debug-info'
p169
I00
sS'image-file'
p170
S'arch/x86/boot/bzImage'
p171
ss(S'description'
p172
g58
g159
S'686-pae'
p173
tp174
(dp175
S'parts'
p176
(lp177
S'xen'
p178
ass(S'build'
p179
g58
NS'siduction-686-pae'
p180
tp181
(dp182
S'debug-info'
p183
I00
ss(S'description'
p184
g58
NS'siduction-686'
p185
tp186
(dp187
S'hardware'
p188
S'modern PCs'
p189
sS'hardware-long'
p190
S'PCs with Intel Pentium Pro/II/III/4/4M/D/M, Xeon, Celeron, Core or Atom; AMD Geode LX/NX, Athlon (K7), Duron, Opteron, Sempron, Turion or Phenom; Transmeta Efficeon; VIA C3 "Nehemiah" or C7 processors'
p191
ss(S'base'
p192
tp193
(dp194
S'arches'
p195
(lp196
S'amd64'
p197
aS'i386'
p198
asS'featuresets'
p199
(lp200
S'none'
p201
asS'compiler'
p202
S'gcc-4.9'
p203
ss(S'relations'
p204
tp205
(dp206
S'initramfs-fallback'
p207
S'linux-initramfs-tool'
p208
sS'gcc-4.9'
p209
S'gcc-4.9'
p210
sS'initramfs-tools'
p211
S'initramfs-tools (>= 0.110~)'
p212
sstp213
Rp214
.