ccopy_reg
_reconstructor
p1
(cdebian_linux.config
ConfigCore
p2
c__builtin__
dict
p3
(dp4
(S'image'
S'i386'
p5
NS'siduction-686'
tp6
(dp7
S'configs'
p8
(lp9
S'kernelarch-x86/config-arch-32'
p10
asS'recommends'
p11
S'libc6-i686'
p12
ss(S'image'
S'amd64'
p13
tp14
(dp15
S'suggests'
p16
S'crda'
p17
sS'configs'
p18
(lp19
S'kernelarch-x86/config'
p20
asS'bootloaders'
p21
(lp22
S'grub-pc'
p23
aS'extlinux'
p24
aS'grub-efi-amd64'
p25
ass(S'description'
g5
NS'siduction-686'
tp26
(dp27
S'hardware'
p28
S'modern PCs'
p29
sS'hardware-long'
p30
S'PCs with Intel Pentium Pro/II/III/4/4M/D/M, Xeon, Celeron, Core or Atom; AMD Geode LX/NX, Athlon (K7), Duron, Opteron, Sempron, Turion or Phenom; Transmeta Efficeon; VIA C3 "Nehemiah" or C7 processors'
p31
ss(S'siduction-686_image-dbg'
p32
g5
tp33
(dp34
S'enabled'
p35
S'false'
p36
ss(S'base'
p37
g13
S'none'
p38
tp39
(dp40
S'implicit-flavour'
p41
I01
sS'flavours'
p42
(lp43
S'siduction-amd64'
p44
ass(S'base'
g13
tp45
(dp46
S'kernel-arch'
p47
S'x86'
p48
sS'featuresets'
p49
(lp50
g38
ass(S'image'
p51
tp52
(dp53
S'initramfs-generators'
p54
(lp55
S'initramfs-tools'
p56
aS'initramfs-fallback'
p57
asS'type'
p58
S'plain'
p59
ss(S'image'
g5
S'none'
p60
S'siduction-686-pae'
tp61
(dp62
S'configs'
p63
(lp64
S'kernelarch-x86/config-arch-32'
p65
aS'kernelarch-x86/config-arch-32-pae'
p66
asS'recommends'
p67
S'libc6-i686'
p68
ss(S'version'
p69
tp70
(dp71
S'abiname'
p72
S'3.13-3.towo'
p73
sS'source'
p74
V3.13-6
p75
ss(S'description'
g5
g60
S'siduction-686-pae'
tp76
(dp77
S'hardware'
p78
S'modern PCs with pae support'
p79
sS'hardware-long'
p80
S'PCs with Intel Xeon, Core or Atom; AMD Geode LX/NX, Athlon (K7), Opteron, Sempron, Turion or Phenom; Transmeta Efficeon; C7 processors'
p81
ss(S'base'
p82
g5
tp83
(dp84
S'kernel-arch'
p85
S'x86'
p86
sS'featuresets'
p87
(lp88
S'none'
p89
ass(S'description'
g13
NS'siduction-amd64'
tp90
(dp91
S'hardware'
p92
S'64-bit PCs'
p93
sS'hardware-long'
p94
S'PCs with AMD64 or Intel 64 processors'
p95
ss(S'siduction-amd64-dbg'
g13
tp96
(dp97
S'enabled'
p98
S'false'
p99
ss(S'base'
g5
g60
tp100
(dp101
S'flavours'
p102
(lp103
S'siduction-686'
p104
aS'siduction-686-pae'
p105
ass(S'abi'
p106
tp107
(dp108
S'abiname'
p109
S'3.towo'
p110
ss(S'image'
p111
g5
tp112
(dp113
S'suggests'
p114
S'crda'
p115
sS'configs'
p116
(lp117
S'kernelarch-x86/config'
p118
asS'bootloaders'
p119
(lp120
S'grub-pc'
p121
aS'extlinux'
p122
ass(S'siduction-686-pae_image-dbg'
g5
g60
tp123
(dp124
S'enabled'
p125
S'false'
p126
ss(S'image'
g13
NS'siduction-amd64'
tp127
(dp128
S'configs'
p129
(lp130
S'kernelarch-x86/config-arch-64'
p131
ass(S'base'
p132
tp133
(dp134
S'arches'
p135
(lp136
S'amd64'
p137
aS'i386'
p138
asS'featuresets'
p139
(lp140
S'none'
p141
asS'compiler'
p142
S'gcc-4.8'
p143
ss(S'relations'
p144
tp145
(dp146
S'initramfs-fallback'
p147
S'linux-initramfs-tool'
p148
sS'lilo'
p149
S'lilo (>= 22.8-8.2~)'
p150
sS'gcc-4.8'
p151
S'gcc-4.8'
p152
sS'initramfs-tools'
p153
S'initramfs-tools (>= 0.110~)'
p154
sS'elilo'
p155
S'elilo (>= 3.12-3.1~)'
p156
sstRp157
.