ccopy_reg
_reconstructor
p1
(cdebian_linux.config
ConfigCore
p2
c__builtin__
dict
p3
(dp4
(S'image'
S'amd64'
p5
tp6
(dp7
S'suggests'
p8
S'crda'
p9
sS'configs'
p10
(lp11
S'kernelarch-x86/config'
p12
asS'bootloaders'
p13
(lp14
S'grub-pc'
p15
aS'extlinux'
p16
aS'grub-efi-amd64'
p17
ass(S'description'
S'i386'
p18
NS'siduction-686'
tp19
(dp20
S'hardware'
p21
S'modern PCs'
p22
sS'hardware-long'
p23
S'PCs with Intel Pentium Pro/II/III/4/4M/D/M, Xeon, Celeron, Core or Atom; AMD Geode LX/NX, Athlon (K7), Duron, Opteron, Sempron, Turion or Phenom; Transmeta Efficeon; VIA C3 "Nehemiah" or C7 processors'
p24
ss(S'siduction-686_image-dbg'
p25
g18
tp26
(dp27
S'enabled'
p28
S'false'
p29
ss(S'base'
p30
g5
S'none'
p31
tp32
(dp33
S'implicit-flavour'
p34
I01
sS'flavours'
p35
(lp36
S'siduction-amd64'
p37
ass(S'base'
g5
tp38
(dp39
S'kernel-arch'
p40
S'x86'
p41
sS'featuresets'
p42
(lp43
g31
ass(S'image'
p44
tp45
(dp46
S'initramfs-generators'
p47
(lp48
S'initramfs-tools'
p49
aS'initramfs-fallback'
p50
asS'type'
p51
S'plain'
p52
ss(S'image'
g18
S'none'
p53
S'siduction-686-pae'
tp54
(dp55
S'configs'
p56
(lp57
S'kernelarch-x86/config-arch-32'
p58
aS'kernelarch-x86/config-arch-32-pae'
p59
asS'recommends'
p60
S'libc6-i686'
p61
ss(S'image'
g5
NS'siduction-amd64'
tp62
(dp63
S'configs'
p64
(lp65
S'kernelarch-x86/config-arch-64'
p66
ass(S'version'
p67
tp68
(dp69
S'abiname'
p70
S'3.12-5.towo'
p71
sS'source'
p72
V3.12-7
p73
ss(S'description'
g18
g53
S'siduction-686-pae'
tp74
(dp75
S'hardware'
p76
S'modern PCs with pae support'
p77
sS'hardware-long'
p78
S'PCs with Intel Xeon, Core or Atom; AMD Geode LX/NX, Athlon (K7), Opteron, Sempron, Turion or Phenom; Transmeta Efficeon; C7 processors'
p79
ss(S'base'
p80
g18
tp81
(dp82
S'kernel-arch'
p83
S'x86'
p84
sS'featuresets'
p85
(lp86
S'none'
p87
ass(S'description'
g5
NS'siduction-amd64'
tp88
(dp89
S'hardware'
p90
S'64-bit PCs'
p91
sS'hardware-long'
p92
S'PCs with AMD64 or Intel 64 processors'
p93
ss(S'siduction-amd64-dbg'
g5
tp94
(dp95
S'enabled'
p96
S'false'
p97
ss(S'base'
g18
g53
tp98
(dp99
S'flavours'
p100
(lp101
S'siduction-686'
p102
aS'siduction-686-pae'
p103
ass(S'abi'
p104
tp105
(dp106
S'abiname'
p107
S'5.towo'
p108
ss(S'image'
p109
g18
tp110
(dp111
S'suggests'
p112
S'crda'
p113
sS'configs'
p114
(lp115
S'kernelarch-x86/config'
p116
asS'bootloaders'
p117
(lp118
S'grub-pc'
p119
aS'extlinux'
p120
ass(S'siduction-686-pae_image-dbg'
g18
g53
tp121
(dp122
S'enabled'
p123
S'false'
p124
ss(S'base'
p125
tp126
(dp127
S'arches'
p128
(lp129
S'amd64'
p130
aS'i386'
p131
asS'featuresets'
p132
(lp133
S'none'
p134
asS'compiler'
p135
S'gcc-4.8'
p136
ss(S'relations'
p137
tp138
(dp139
S'initramfs-fallback'
p140
S'linux-initramfs-tool'
p141
sS'lilo'
p142
S'lilo (>= 22.8-8.2~)'
p143
sS'gcc-4.8'
p144
S'gcc-4.8'
p145
sS'initramfs-tools'
p146
S'initramfs-tools (>= 0.110~)'
p147
sS'elilo'
p148
S'elilo (>= 3.12-3.1~)'
p149
ss(S'image'
g18
NS'siduction-686'
tp150
(dp151
S'configs'
p152
(lp153
S'kernelarch-x86/config-arch-32'
p154
asS'recommends'
p155
S'libc6-i686'
p156
sstRp157
.