ccopy_reg
_reconstructor
p0
(cdebian_linux.config
ConfigCore
p1
c__builtin__
dict
p2
(dp3
(S'image'
p4
S'amd64'
p5
tp6
(dp7
S'install-stem'
p8
S'vmlinuz'
p9
sS'configs'
p10
(lp11
sS'bootloaders'
p12
(lp13
S'grub-pc'
p14
aS'extlinux'
p15
aS'grub-efi-amd64'
p16
asS'suggests'
p17
S'crda'
p18
ss(S'build'
p19
S'i386'
p20
NS'siduction-686-pae'
p21
tp22
(dp23
S'debug-info'
p24
I00
ss(S'base'
p25
g5
S'none'
p26
tp27
(dp28
S'implicit-flavour'
p29
I01
sS'flavours'
p30
(lp31
S'siduction-amd64'
p32
ass(S'base'
p33
g5
tp34
(dp35
S'kernel-arch'
p36
S'x86'
p37
sS'featuresets'
p38
(lp39
S'none'
p40
ag26
ass(S'description'
p41
g5
g26
S'siduction-amd64'
p42
tp43
(dp44
S'parts'
p45
(lp46
S'xen'
p47
ass(S'description'
p48
g20
NS'siduction-686'
p49
tp50
(dp51
S'hardware'
p52
S'modern PCs'
p53
sS'hardware-long'
p54
S'PCs with Intel Pentium Pro/II/III/4/4M/D/M, Xeon, Celeron, Core or Atom; AMD Geode LX/NX, Athlon (K7), Duron, Opteron, Sempron, Turion or Phenom; Transmeta Efficeon; VIA C3 "Nehemiah" or C7 processors'
p55
ss(S'build'
p56
g20
tp57
(dp58
S'debug-info'
p59
I00
sS'image-file'
p60
S'arch/x86/boot/bzImage'
p61
ss(S'xen'
p62
g5
g26
S'siduction-amd64'
p63
tp64
(dp65
S'flavours'
p66
(lp67
S'siduction-amd64'
p68
ass(S'image'
p69
g20
NS'siduction-686-pae'
p70
tp71
(dp72
S'configs'
p73
(lp74
S'kernelarch-x86/config-arch-32'
p75
aS'kernelarch-x86/config-arch-32-pae'
p76
asS'recommends'
p77
S'libc6-i686'
p78
ss(S'base'
p79
g20
tp80
(dp81
S'kernel-arch'
p82
S'x86'
p83
sS'featuresets'
p84
(lp85
S'none'
p86
ass(S'image'
p87
tp88
(dp89
S'initramfs-generators'
p90
(lp91
S'initramfs-tools'
p92
aS'initramfs-fallback'
p93
asS'type'
p94
S'plain'
p95
ss(S'version'
p96
tp97
(dp98
S'abiname'
p99
S'4.4.4-towo.1'
p100
sS'source'
p101
V4.4-8
p102
sS'upstream'
p103
S'4.4'
p104
ss(S'description'
p105
g20
tp106
(dp107
S'part-long-pae'
p108
S'This kernel requires PAE (Physical Address Extension)\nThis feature is supported by the Intel Pentium Pro/II/III/4/4M/D, Xeon,\nCore and Atom; AMD Geode NX, Athlon (K7), Duron, Opteron, Sempron,\nTurion or Phenom; Transmeta Efficeon; VIA C7; and some other processors.'
p109
ss(S'description'
p110
tp111
(dp112
S'part-long-up'
p113
S'This kernel is not suitable for SMP (multi-processor,\nmulti-core or hyper-threaded) systems.'
p114
sS'part-long-xen'
p115
S'This kernel also runs on a Xen hypervisor.\nIt supports both privileged (dom0) and unprivileged (domU) operation.'
p116
ss(S'abi'
p117
tp118
(dp119
S'abiname'
p120
S'towo.1'
p121
ss(S'image'
p122
g20
tp123
(dp124
S'install-stem'
p125
S'vmlinuz'
p126
sS'configs'
p127
(lp128
sS'bootloaders'
p129
(lp130
S'grub-pc'
p131
aS'extlinux'
p132
aS'grub-efi-ia32'
p133
asS'suggests'
p134
S'crda'
p135
ss(S'image'
p136
g5
NS'siduction-amd64'
p137
tp138
(dp139
S'configs'
p140
(lp141
S'kernelarch-x86/config-arch-64'
p142
ass(S'base'
p143
g20
S'none'
p144
tp145
(dp146
S'flavours'
p147
(lp148
S'siduction-686'
p149
aS'siduction-686-pae'
p150
ass(S'description'
p151
g20
NS'siduction-686-pae'
p152
tp153
(dp154
S'hardware'
p155
S'modern PCs'
p156
sS'parts'
p157
(lp158
S'pae'
p159
asS'hardware-long'
p160
S'PCs with one or more processors supporting PAE'
p161
ss(S'build'
p162
g5
tp163
(dp164
S'debug-info'
p165
I00
sS'image-file'
p166
S'arch/x86/boot/bzImage'
p167
ss(S'description'
p168
g20
g144
S'686-pae'
p169
tp170
(dp171
S'parts'
p172
(lp173
S'xen'
p174
ass(S'description'
p175
g5
NS'siduction-amd64'
p176
tp177
(dp178
S'hardware'
p179
S'64-bit PCs'
p180
sS'hardware-long'
p181
S'PCs with AMD64 or Intel 64 processors'
p182
ss(S'image'
p183
g20
NS'siduction-686'
p184
tp185
(dp186
S'configs'
p187
(lp188
S'kernelarch-x86/config-arch-32'
p189
asS'recommends'
p190
S'libc6-i686'
p191
ss(S'base'
p192
tp193
(dp194
S'arches'
p195
(lp196
S'amd64'
p197
aS'i386'
p198
asS'featuresets'
p199
(lp200
S'none'
p201
asS'compiler'
p202
S'gcc-5'
p203
ss(S'relations'
p204
tp205
(dp206
S'initramfs-fallback'
p207
S'linux-initramfs-tool'
p208
sS'gcc-4.9'
p209
S'gcc-4.9'
p210
sS'gcc-5'
p211
S'gcc-5'
p212
sS'initramfs-tools'
p213
S'initramfs-tools (>= 0.110~)'
p214
sstp215
Rp216
.