ccopy_reg
_reconstructor
p0
(cdebian_linux.config
ConfigCore
p1
c__builtin__
dict
p2
(dp3
(S'image'
p4
S'amd64'
p5
tp6
(dp7
S'install-stem'
p8
S'vmlinuz'
p9
sS'configs'
p10
(lp11
sS'bootloaders'
p12
(lp13
S'grub-pc'
p14
aS'extlinux'
p15
aS'grub-efi-amd64'
p16
asS'suggests'
p17
S'crda'
p18
ss(S'description'
p19
g5
NS'siduction-amd64'
p20
tp21
(dp22
S'hardware'
p23
S'64-bit PCs'
p24
sS'hardware-long'
p25
S'PCs with AMD64 or Intel 64 processors'
p26
ss(S'base'
p27
g5
tp28
(dp29
S'kernel-arch'
p30
S'x86'
p31
sS'featuresets'
p32
(lp33
S'none'
p34
aS'none'
p35
ass(S'description'
p36
S'i386'
p37
NS'siduction-686'
p38
tp39
(dp40
S'hardware'
p41
S'modern PCs'
p42
sS'hardware-long'
p43
S'PCs with Intel Pentium Pro/II/III/4/4M/D/M, Xeon, Celeron, Core or Atom; AMD Geode LX/NX, Athlon (K7), Duron, Opteron, Sempron, Turion or Phenom; Transmeta Efficeon; VIA C3 "Nehemiah" or C7 processors'
p44
ss(S'description'
p45
g5
g35
S'siduction-amd64'
p46
tp47
(dp48
S'parts'
p49
(lp50
S'xen'
p51
ass(S'image'
p52
g37
NS'siduction-686'
p53
tp54
(dp55
S'configs'
p56
(lp57
S'kernelarch-x86/config-arch-32'
p58
asS'recommends'
p59
S'libc6-i686'
p60
ss(S'build'
p61
g37
tp62
(dp63
S'debug-info'
p64
I00
sS'image-file'
p65
S'arch/x86/boot/bzImage'
p66
ss(S'xen'
p67
g5
g35
S'siduction-amd64'
p68
tp69
(dp70
S'flavours'
p71
(lp72
S'siduction-amd64'
p73
ass(S'image'
p74
g37
NS'siduction-686-pae'
p75
tp76
(dp77
S'configs'
p78
(lp79
S'kernelarch-x86/config-arch-32'
p80
aS'kernelarch-x86/config-arch-32-pae'
p81
asS'recommends'
p82
S'libc6-i686'
p83
ss(S'base'
p84
g37
tp85
(dp86
S'kernel-arch'
p87
S'x86'
p88
sS'featuresets'
p89
(lp90
S'none'
p91
ass(S'description'
p92
g37
NS'siduction-686-pae'
p93
tp94
(dp95
S'hardware'
p96
S'modern PCs'
p97
sS'parts'
p98
(lp99
S'pae'
p100
asS'hardware-long'
p101
S'PCs with one or more processors supporting PAE'
p102
ss(S'image'
p103
tp104
(dp105
S'initramfs-generators'
p106
(lp107
S'initramfs-tools'
p108
aS'initramfs-fallback'
p109
asS'type'
p110
S'plain'
p111
ss(S'version'
p112
tp113
(dp114
S'abiname'
p115
S'3.17-0.towo'
p116
sS'source'
p117
V3.17-2
p118
sS'upstream'
p119
S'3.17'
p120
ss(S'description'
p121
g37
tp122
(dp123
S'part-long-pae'
p124
S'This kernel requires PAE (Physical Address Extension)\nThis feature is supported by the Intel Pentium Pro/II/III/4/4M/D, Xeon,\nCore and Atom; AMD Geode NX, Athlon (K7), Duron, Opteron, Sempron,\nTurion or Phenom; Transmeta Efficeon; VIA C7; and some other processors.'
p125
ss(S'description'
p126
tp127
(dp128
S'part-long-up'
p129
S'This kernel is not suitable for SMP (multi-processor,\nmulti-core or hyper-threaded) systems.'
p130
sS'part-long-xen'
p131
S'This kernel also runs on a Xen hypervisor.\nIt supports both privileged (dom0) and unprivileged (domU) operation.'
p132
ss(S'abi'
p133
tp134
(dp135
S'abiname'
p136
S'0.towo'
p137
ss(S'image'
p138
g37
tp139
(dp140
S'install-stem'
p141
S'vmlinuz'
p142
sS'configs'
p143
(lp144
sS'bootloaders'
p145
(lp146
S'grub-pc'
p147
aS'extlinux'
p148
aS'grub-efi-ia32'
p149
asS'suggests'
p150
S'crda'
p151
ss(S'base'
p152
g37
S'none'
p153
tp154
(dp155
S'flavours'
p156
(lp157
S'siduction-686'
p158
ass(S'image'
p159
g5
NS'siduction-amd64'
p160
tp161
(dp162
S'configs'
p163
(lp164
S'kernelarch-x86/config-arch-64'
p165
ass(S'build'
p166
g5
tp167
(dp168
S'debug-info'
p169
I00
sS'image-file'
p170
S'arch/x86/boot/bzImage'
p171
ss(S'description'
p172
g37
g153
S'686-pae'
p173
tp174
(dp175
S'parts'
p176
(lp177
S'xen'
p178
ass(S'base'
p179
g5
g35
tp180
(dp181
S'implicit-flavour'
p182
I01
sS'flavours'
p183
(lp184
S'siduction-amd64'
p185
ass(S'base'
p186
tp187
(dp188
S'arches'
p189
(lp190
S'amd64'
p191
aS'i386'
p192
asS'featuresets'
p193
(lp194
S'none'
p195
asS'compiler'
p196
S'gcc-4.9'
p197
ss(S'relations'
p198
tp199
(dp200
S'initramfs-fallback'
p201
S'linux-initramfs-tool'
p202
sS'gcc-4.9'
p203
S'gcc-4.9'
p204
sS'initramfs-tools'
p205
S'initramfs-tools (>= 0.110~)'
p206
ss(S'build'
p207
g37
NS'siduction-686-pae'
p208
tp209
(dp210
S'debug-info'
p211
I00
sstp212
Rp213
.