ccopy_reg
_reconstructor
p1
(cdebian_linux.config
ConfigCore
p2
c__builtin__
dict
p3
(dp4
(S'image'
S'amd64'
p5
tp6
(dp7
S'suggests'
p8
S'crda'
p9
sS'configs'
p10
(lp11
S'kernelarch-x86/config'
p12
asS'bootloaders'
p13
(lp14
S'grub-pc'
p15
aS'extlinux'
p16
aS'grub-efi-amd64'
p17
ass(S'siduction-686_image-dbg'
p18
S'i386'
p19
tp20
(dp21
S'enabled'
p22
S'false'
p23
ss(S'base'
p24
g5
S'none'
p25
tp26
(dp27
S'implicit-flavour'
p28
I01
sS'flavours'
p29
(lp30
S'siduction-amd64'
p31
ass(S'base'
g5
tp32
(dp33
S'kernel-arch'
p34
S'x86'
p35
sS'featuresets'
p36
(lp37
g25
ass(S'image'
p38
tp39
(dp40
S'initramfs-generators'
p41
(lp42
S'initramfs-tools'
p43
aS'initramfs-fallback'
p44
asS'type'
p45
S'plain'
p46
ss(S'description'
g19
NS'siduction-686'
tp47
(dp48
S'hardware'
p49
S'modern PCs'
p50
sS'hardware-long'
p51
S'PCs with Intel Pentium Pro/II/III/4/4M/D/M, Xeon, Celeron, Core or Atom; AMD Geode LX/NX, Athlon (K7), Duron, Opteron, Sempron, Turion or Phenom; Transmeta Efficeon; VIA C3 "Nehemiah" or C7 processors'
p52
ss(S'image'
g5
NS'siduction-amd64'
tp53
(dp54
S'configs'
p55
(lp56
S'kernelarch-x86/config-arch-64'
p57
ass(S'version'
p58
tp59
(dp60
S'abiname'
p61
S'3.3-1.towo.2'
p62
sS'source'
p63
V3.3-4
p64
ss(S'description'
g5
NS'siduction-amd64'
tp65
(dp66
S'hardware'
p67
S'64-bit PCs'
p68
sS'hardware-long'
p69
S'PCs with AMD64 or Intel 64 processors'
p70
ss(S'base'
p71
g19
tp72
(dp73
S'kernel-arch'
p74
S'x86'
p75
sg36
(lp76
g25
ass(S'siduction-amd64-dbg'
g5
tp77
(dp78
S'enabled'
p79
S'false'
p80
ss(S'abi'
p81
tp82
(dp83
S'abiname'
p84
S'1.towo.2'
p85
ss(S'image'
p86
g19
tp87
(dp88
S'suggests'
p89
S'crda'
p90
sS'configs'
p91
(lp92
S'kernelarch-x86/config'
p93
asS'bootloaders'
p94
(lp95
S'grub-pc'
p96
aS'extlinux'
p97
ass(g24
g19
g25
tp98
(dp99
g28
I01
sg29
(lp100
S'siduction-686'
p101
ass(S'image'
g19
NS'siduction-686'
tp102
(dp103
S'configs'
p104
(lp105
S'kernelarch-x86/config-arch-32'
p106
asS'recommends'
p107
S'libc6-i686'
p108
ss(S'base'
p109
tp110
(dp111
S'arches'
p112
(lp113
S'amd64'
p114
aS'i386'
p115
asS'featuresets'
p116
(lp117
S'none'
p118
asS'compiler'
p119
S'gcc-4.6'
p120
ss(S'relations'
p121
tp122
(dp123
S'initramfs-fallback'
p124
S'linux-initramfs-tool'
p125
sS'lilo'
p126
S'lilo (>= 22.8-8.2~)'
p127
sS'initramfs-tools'
p128
S'initramfs-tools (>= 0.99~)'
p129
sS'gcc-4.6'
p130
S'gcc-4.6'
p131
sS'elilo'
p132
S'elilo (>= 3.12-3.1~)'
p133
sstRp134
.