ccopy_reg
_reconstructor
p0
(cdebian_linux.config
ConfigCore
p1
c__builtin__
dict
p2
(dp3
(S'description'
p4
S'amd64'
p5
NS'siduction-amd64'
p6
tp7
(dp8
S'hardware'
p9
S'64-bit PCs'
p10
sS'hardware-long'
p11
S'PCs with AMD64 or Intel 64 processors'
p12
ss(S'image'
p13
g5
tp14
(dp15
S'install-stem'
p16
S'vmlinuz'
p17
sS'configs'
p18
(lp19
sS'bootloaders'
p20
(lp21
S'grub-pc'
p22
aS'extlinux'
p23
aS'grub-efi-amd64'
p24
asS'suggests'
p25
S'crda'
p26
ss(S'image'
p27
g5
NS'siduction-amd64'
p28
tp29
(dp30
S'configs'
p31
(lp32
S'kernelarch-x86/config-arch-64'
p33
ass(S'base'
p34
g5
S'none'
p35
tp36
(dp37
S'implicit-flavour'
p38
I01
sS'flavours'
p39
(lp40
S'siduction-amd64'
p41
ass(S'build'
p42
S'i386'
p43
NS'siduction-686-pae'
p44
tp45
(dp46
S'debug-info'
p47
I00
ss(S'base'
p48
g5
tp49
(dp50
S'kernel-arch'
p51
S'x86'
p52
sS'featuresets'
p53
(lp54
S'none'
p55
ag35
ass(S'description'
p56
g5
g35
S'siduction-amd64'
p57
tp58
(dp59
S'parts'
p60
(lp61
S'xen'
p62
ass(S'build'
p63
g43
tp64
(dp65
S'debug-info'
p66
I00
sS'image-file'
p67
S'arch/x86/boot/bzImage'
p68
ss(S'description'
p69
g43
NS'siduction-686'
p70
tp71
(dp72
S'hardware'
p73
S'modern PCs'
p74
sS'hardware-long'
p75
S'PCs with Intel Pentium Pro/II/III/4/4M/D/M, Xeon, Celeron, Core or Atom; AMD Geode LX/NX, Athlon (K7), Duron, Opteron, Sempron, Turion or Phenom; Transmeta Efficeon; VIA C3 "Nehemiah" or C7 processors'
p76
ss(S'xen'
p77
g5
g35
S'siduction-amd64'
p78
tp79
(dp80
S'flavours'
p81
(lp82
S'siduction-amd64'
p83
ass(S'base'
p84
g43
tp85
(dp86
S'kernel-arch'
p87
S'x86'
p88
sS'featuresets'
p89
(lp90
S'none'
p91
ass(S'description'
p92
g43
NS'siduction-686-pae'
p93
tp94
(dp95
S'hardware'
p96
S'modern PCs'
p97
sS'parts'
p98
(lp99
S'pae'
p100
asS'hardware-long'
p101
S'PCs with one or more processors supporting PAE'
p102
ss(S'image'
p103
tp104
(dp105
S'initramfs-generators'
p106
(lp107
S'initramfs-tools'
p108
aS'initramfs-fallback'
p109
asS'type'
p110
S'plain'
p111
ss(S'version'
p112
tp113
(dp114
S'abiname'
p115
S'4.5.1-towo.3'
p116
sS'source'
p117
V4.5-6
p118
sS'upstream'
p119
S'4.5'
p120
ss(S'description'
p121
g43
tp122
(dp123
S'part-long-pae'
p124
S'This kernel requires PAE (Physical Address Extension)\nThis feature is supported by the Intel Pentium Pro/II/III/4/4M/D, Xeon,\nCore and Atom; AMD Geode NX, Athlon (K7), Duron, Opteron, Sempron,\nTurion or Phenom; Transmeta Efficeon; VIA C7; and some other processors.'
p125
ss(S'description'
p126
tp127
(dp128
S'part-long-up'
p129
S'This kernel is not suitable for SMP (multi-processor,\nmulti-core or hyper-threaded) systems.'
p130
sS'part-long-xen'
p131
S'This kernel also runs on a Xen hypervisor.\nIt supports both privileged (dom0) and unprivileged (domU) operation.'
p132
ss(S'abi'
p133
tp134
(dp135
S'abiname'
p136
S'towo.3'
p137
ss(S'image'
p138
g43
tp139
(dp140
S'install-stem'
p141
S'vmlinuz'
p142
sS'configs'
p143
(lp144
sS'bootloaders'
p145
(lp146
S'grub-pc'
p147
aS'extlinux'
p148
aS'grub-efi-ia32'
p149
asS'suggests'
p150
S'crda'
p151
ss(S'image'
p152
g43
NS'siduction-686-pae'
p153
tp154
(dp155
S'configs'
p156
(lp157
S'kernelarch-x86/config-arch-32'
p158
aS'kernelarch-x86/config-arch-32-pae'
p159
asS'recommends'
p160
S'libc6-i686'
p161
ss(S'base'
p162
g43
S'none'
p163
tp164
(dp165
S'flavours'
p166
(lp167
S'siduction-686'
p168
aS'siduction-686-pae'
p169
ass(S'image'
p170
g43
NS'siduction-686'
p171
tp172
(dp173
S'configs'
p174
(lp175
S'kernelarch-x86/config-arch-32'
p176
asS'recommends'
p177
S'libc6-i686'
p178
ss(S'build'
p179
g5
tp180
(dp181
S'debug-info'
p182
I00
sS'image-file'
p183
S'arch/x86/boot/bzImage'
p184
ss(S'description'
p185
g43
g163
S'686-pae'
p186
tp187
(dp188
S'parts'
p189
(lp190
S'xen'
p191
ass(S'base'
p192
tp193
(dp194
S'arches'
p195
(lp196
S'amd64'
p197
aS'i386'
p198
asS'featuresets'
p199
(lp200
S'none'
p201
asS'compiler'
p202
S'gcc-5'
p203
ss(S'relations'
p204
tp205
(dp206
S'initramfs-fallback'
p207
S'linux-initramfs-tool'
p208
sS'gcc-4.9'
p209
S'gcc-4.9'
p210
sS'gcc-5'
p211
S'gcc-5'
p212
sS'initramfs-tools'
p213
S'initramfs-tools (>= 0.110~)'
p214
sstp215
Rp216
.