ccopy_reg
_reconstructor
p1
(cdebian_linux.config
ConfigCore
p2
c__builtin__
dict
p3
(dp4
(S'image'
S'amd64'
p5
tp6
(dp7
S'suggests'
p8
S'crda'
p9
sS'configs'
p10
(lp11
S'kernelarch-x86/config'
p12
asS'bootloaders'
p13
(lp14
S'grub-pc'
p15
aS'extlinux'
p16
aS'grub-efi-amd64'
p17
ass(S'siduction-686_image-dbg'
p18
S'i386'
p19
tp20
(dp21
S'enabled'
p22
S'false'
p23
ss(S'base'
p24
g5
S'none'
p25
tp26
(dp27
S'implicit-flavour'
p28
I01
sS'flavours'
p29
(lp30
S'siduction-amd64'
p31
ass(S'base'
g5
tp32
(dp33
S'kernel-arch'
p34
S'x86'
p35
sS'featuresets'
p36
(lp37
g25
ass(S'image'
p38
tp39
(dp40
S'initramfs-generators'
p41
(lp42
S'initramfs-tools'
p43
aS'initramfs-fallback'
p44
asS'type'
p45
S'plain'
p46
ss(S'description'
g5
NS'siduction-amd64'
tp47
(dp48
S'hardware'
p49
S'64-bit PCs'
p50
sS'hardware-long'
p51
S'PCs with AMD64 or Intel 64 processors'
p52
ss(S'image'
g19
NS'siduction-686'
tp53
(dp54
S'configs'
p55
(lp56
S'kernelarch-x86/config-arch-32'
p57
asS'recommends'
p58
S'libc6-i686'
p59
ss(S'image'
g5
NS'siduction-amd64'
tp60
(dp61
S'configs'
p62
(lp63
S'kernelarch-x86/config-arch-64'
p64
ass(S'description'
g19
NS'siduction-686'
tp65
(dp66
S'hardware'
p67
S'modern PCs'
p68
sS'hardware-long'
p69
S'PCs with Intel Pentium Pro/II/III/4/4M/D/M, Xeon, Celeron, Core or Atom; AMD Geode LX/NX, Athlon (K7), Duron, Opteron, Sempron, Turion or Phenom; Transmeta Efficeon; VIA C3 "Nehemiah" or C7 processors'
p70
ss(S'base'
p71
g19
tp72
(dp73
S'kernel-arch'
p74
S'x86'
p75
sS'featuresets'
p76
(lp77
S'none'
p78
ass(S'version'
p79
tp80
(dp81
S'abiname'
p82
S'3.14-0.towo.3'
p83
sS'source'
p84
V3.14-3
p85
ss(S'siduction-amd64-dbg'
g5
tp86
(dp87
S'enabled'
p88
S'false'
p89
ss(S'base'
g19
S'none'
p90
tp91
(dp92
S'flavours'
p93
(lp94
S'siduction-686'
p95
aS'siduction-686-pae'
p96
ass(S'abi'
p97
tp98
(dp99
S'abiname'
p100
S'0.towo.3'
p101
ss(S'image'
p102
g19
tp103
(dp104
S'suggests'
p105
S'crda'
p106
sS'configs'
p107
(lp108
S'kernelarch-x86/config'
p109
asS'bootloaders'
p110
(lp111
S'grub-pc'
p112
aS'extlinux'
p113
ass(S'description'
g19
g90
S'siduction-686-pae'
tp114
(dp115
S'hardware'
p116
S'modern PCs with pae support'
p117
sS'hardware-long'
p118
S'PCs with Intel Xeon, Core or Atom; AMD Geode LX/NX, Athlon (K7), Opteron, Sempron, Turion or Phenom; Transmeta Efficeon; C7 processors'
p119
ss(S'siduction-686-pae_image-dbg'
g19
g90
tp120
(dp121
S'enabled'
p122
S'false'
p123
ss(S'base'
p124
tp125
(dp126
S'arches'
p127
(lp128
S'amd64'
p129
aS'i386'
p130
asS'featuresets'
p131
(lp132
S'none'
p133
asS'compiler'
p134
S'gcc-4.8'
p135
ss(S'relations'
p136
tp137
(dp138
S'initramfs-fallback'
p139
S'linux-initramfs-tool'
p140
sS'lilo'
p141
S'lilo (>= 22.8-8.2~)'
p142
sS'gcc-4.8'
p143
S'gcc-4.8'
p144
sS'initramfs-tools'
p145
S'initramfs-tools (>= 0.110~)'
p146
sS'elilo'
p147
S'elilo (>= 3.12-3.1~)'
p148
ss(S'image'
g19
g90
S'siduction-686-pae'
tp149
(dp150
S'configs'
p151
(lp152
S'kernelarch-x86/config-arch-32'
p153
aS'kernelarch-x86/config-arch-32-pae'
p154
asS'recommends'
p155
S'libc6-i686'
p156
sstRp157
.