ccopy_reg
_reconstructor
p1
(cdebian_linux.config
ConfigCore
p2
c__builtin__
dict
p3
(dp4
(S'image'
S'amd64'
p5
tp6
(dp7
S'suggests'
p8
S'crda'
p9
sS'configs'
p10
(lp11
S'kernelarch-x86/config'
p12
asS'bootloaders'
p13
(lp14
S'grub-pc'
p15
aS'extlinux'
p16
aS'grub-efi-amd64'
p17
ass(S'siduction-686_image-dbg'
p18
S'i386'
p19
tp20
(dp21
S'enabled'
p22
S'false'
p23
ss(S'base'
p24
g5
S'none'
p25
tp26
(dp27
S'implicit-flavour'
p28
I01
sS'flavours'
p29
(lp30
S'siduction-amd64'
p31
ass(S'base'
g5
tp32
(dp33
S'kernel-arch'
p34
S'x86'
p35
sS'featuresets'
p36
(lp37
g25
ass(S'image'
p38
tp39
(dp40
S'initramfs-generators'
p41
(lp42
S'initramfs-tools'
p43
aS'initramfs-fallback'
p44
asS'type'
p45
S'plain'
p46
ss(S'description'
g5
NS'siduction-amd64'
tp47
(dp48
S'hardware'
p49
S'64-bit PCs'
p50
sS'hardware-long'
p51
S'PCs with AMD64 or Intel 64 processors'
p52
ss(S'image'
g19
S'none'
p53
S'siduction-686-pae'
tp54
(dp55
S'configs'
p56
(lp57
S'kernelarch-x86/config-arch-32'
p58
aS'kernelarch-x86/config-arch-32-pae'
p59
asS'recommends'
p60
S'libc6-i686'
p61
ss(S'version'
p62
tp63
(dp64
S'abiname'
p65
S'3.12-3.towo.2'
p66
sS'source'
p67
V3.12-5
p68
ss(S'description'
g19
g53
S'siduction-686-pae'
tp69
(dp70
S'hardware'
p71
S'modern PCs with pae support'
p72
sS'hardware-long'
p73
S'PCs with Intel Xeon, Core or Atom; AMD Geode LX/NX, Athlon (K7), Opteron, Sempron, Turion or Phenom; Transmeta Efficeon; C7 processors'
p74
ss(S'base'
p75
g19
tp76
(dp77
S'kernel-arch'
p78
S'x86'
p79
sS'featuresets'
p80
(lp81
S'none'
p82
ass(S'image'
g5
NS'siduction-amd64'
tp83
(dp84
S'configs'
p85
(lp86
S'kernelarch-x86/config-arch-64'
p87
ass(S'siduction-amd64-dbg'
g5
tp88
(dp89
S'enabled'
p90
S'false'
p91
ss(S'base'
g19
g53
tp92
(dp93
S'flavours'
p94
(lp95
S'siduction-686'
p96
aS'siduction-686-pae'
p97
ass(S'abi'
p98
tp99
(dp100
S'abiname'
p101
S'3.towo.2'
p102
ss(S'image'
p103
g19
tp104
(dp105
S'suggests'
p106
S'crda'
p107
sS'configs'
p108
(lp109
S'kernelarch-x86/config'
p110
asS'bootloaders'
p111
(lp112
S'grub-pc'
p113
aS'extlinux'
p114
ass(S'image'
g19
NS'siduction-686'
tp115
(dp116
S'configs'
p117
(lp118
S'kernelarch-x86/config-arch-32'
p119
asS'recommends'
p120
S'libc6-i686'
p121
ss(S'siduction-686-pae_image-dbg'
g19
g53
tp122
(dp123
S'enabled'
p124
S'false'
p125
ss(S'description'
g19
NS'siduction-686'
tp126
(dp127
S'hardware'
p128
S'modern PCs'
p129
sS'hardware-long'
p130
S'PCs with Intel Pentium Pro/II/III/4/4M/D/M, Xeon, Celeron, Core or Atom; AMD Geode LX/NX, Athlon (K7), Duron, Opteron, Sempron, Turion or Phenom; Transmeta Efficeon; VIA C3 "Nehemiah" or C7 processors'
p131
ss(S'base'
p132
tp133
(dp134
S'arches'
p135
(lp136
S'amd64'
p137
aS'i386'
p138
asS'featuresets'
p139
(lp140
S'none'
p141
asS'compiler'
p142
S'gcc-4.8'
p143
ss(S'relations'
p144
tp145
(dp146
S'initramfs-fallback'
p147
S'linux-initramfs-tool'
p148
sS'lilo'
p149
S'lilo (>= 22.8-8.2~)'
p150
sS'gcc-4.8'
p151
S'gcc-4.8'
p152
sS'initramfs-tools'
p153
S'initramfs-tools (>= 0.110~)'
p154
sS'elilo'
p155
S'elilo (>= 3.12-3.1~)'
p156
sstRp157
.