ccopy_reg
_reconstructor
p0
(cdebian_linux.config
ConfigCore
p1
c__builtin__
dict
p2
(dp3
(S'description'
p4
S'i386'
p5
NS'siduction-686-pae'
p6
tp7
(dp8
S'hardware'
p9
S'modern PCs'
p10
sS'parts'
p11
(lp12
S'pae'
p13
asS'hardware-long'
p14
S'PCs with one or more processors supporting PAE'
p15
ss(S'image'
p16
S'amd64'
p17
tp18
(dp19
S'install-stem'
p20
S'vmlinuz'
p21
sS'configs'
p22
(lp23
sS'bootloaders'
p24
(lp25
S'grub-pc'
p26
aS'extlinux'
p27
aS'grub-efi-amd64'
p28
asS'suggests'
p29
S'crda'
p30
ss(S'base'
p31
g17
S'none'
p32
tp33
(dp34
S'implicit-flavour'
p35
I01
sS'flavours'
p36
(lp37
S'siduction-amd64'
p38
ass(S'base'
p39
g17
tp40
(dp41
S'kernel-arch'
p42
S'x86'
p43
sS'featuresets'
p44
(lp45
S'none'
p46
ag32
ass(S'build'
p47
g5
NS'siduction-686-pae'
p48
tp49
(dp50
S'debug-info'
p51
I00
ss(S'build'
p52
g5
tp53
(dp54
S'debug-info'
p55
I00
sS'image-file'
p56
S'arch/x86/boot/bzImage'
p57
ss(S'description'
p58
g17
g32
S'siduction-amd64'
p59
tp60
(dp61
S'parts'
p62
(lp63
S'xen'
p64
ass(S'xen'
p65
g17
g32
S'siduction-amd64'
p66
tp67
(dp68
S'flavours'
p69
(lp70
S'siduction-amd64'
p71
ass(S'base'
p72
g5
tp73
(dp74
S'kernel-arch'
p75
S'x86'
p76
sS'featuresets'
p77
(lp78
S'none'
p79
ass(S'description'
p80
g5
NS'siduction-686'
p81
tp82
(dp83
S'hardware'
p84
S'modern PCs'
p85
sS'hardware-long'
p86
S'PCs with Intel Pentium Pro/II/III/4/4M/D/M, Xeon, Celeron, Core or Atom; AMD Geode LX/NX, Athlon (K7), Duron, Opteron, Sempron, Turion or Phenom; Transmeta Efficeon; VIA C3 "Nehemiah" or C7 processors'
p87
ss(S'image'
p88
tp89
(dp90
S'initramfs-generators'
p91
(lp92
S'initramfs-tools'
p93
aS'initramfs-fallback'
p94
asS'type'
p95
S'plain'
p96
ss(S'version'
p97
tp98
(dp99
S'abiname'
p100
S'4.0.4-towo.2'
p101
sS'source'
p102
V4.0-10
p103
sS'upstream'
p104
S'4.0'
p105
ss(S'image'
p106
g5
NS'siduction-686-pae'
p107
tp108
(dp109
S'configs'
p110
(lp111
S'kernelarch-x86/config-arch-32'
p112
aS'kernelarch-x86/config-arch-32-pae'
p113
asS'recommends'
p114
S'libc6-i686'
p115
ss(S'description'
p116
tp117
(dp118
S'part-long-up'
p119
S'This kernel is not suitable for SMP (multi-processor,\nmulti-core or hyper-threaded) systems.'
p120
sS'part-long-xen'
p121
S'This kernel also runs on a Xen hypervisor.\nIt supports both privileged (dom0) and unprivileged (domU) operation.'
p122
ss(S'abi'
p123
tp124
(dp125
S'abiname'
p126
S'towo.2'
p127
ss(S'image'
p128
g5
tp129
(dp130
S'install-stem'
p131
S'vmlinuz'
p132
sS'configs'
p133
(lp134
sS'bootloaders'
p135
(lp136
S'grub-pc'
p137
aS'extlinux'
p138
aS'grub-efi-ia32'
p139
asS'suggests'
p140
S'crda'
p141
ss(S'image'
p142
g17
NS'siduction-amd64'
p143
tp144
(dp145
S'configs'
p146
(lp147
S'kernelarch-x86/config-arch-64'
p148
ass(S'base'
p149
g5
S'none'
p150
tp151
(dp152
S'flavours'
p153
(lp154
S'siduction-686'
p155
aS'siduction-686-pae'
p156
ass(S'description'
p157
g5
tp158
(dp159
S'part-long-pae'
p160
S'This kernel requires PAE (Physical Address Extension)\nThis feature is supported by the Intel Pentium Pro/II/III/4/4M/D, Xeon,\nCore and Atom; AMD Geode NX, Athlon (K7), Duron, Opteron, Sempron,\nTurion or Phenom; Transmeta Efficeon; VIA C7; and some other processors.'
p161
ss(S'build'
p162
g17
tp163
(dp164
S'debug-info'
p165
I00
sS'image-file'
p166
S'arch/x86/boot/bzImage'
p167
ss(S'description'
p168
g5
g150
S'686-pae'
p169
tp170
(dp171
S'parts'
p172
(lp173
S'xen'
p174
ass(S'image'
p175
g5
NS'siduction-686'
p176
tp177
(dp178
S'configs'
p179
(lp180
S'kernelarch-x86/config-arch-32'
p181
asS'recommends'
p182
S'libc6-i686'
p183
ss(S'base'
p184
tp185
(dp186
S'arches'
p187
(lp188
S'amd64'
p189
aS'i386'
p190
asS'featuresets'
p191
(lp192
S'none'
p193
asS'compiler'
p194
S'gcc-4.9'
p195
ss(S'relations'
p196
tp197
(dp198
S'initramfs-fallback'
p199
S'linux-initramfs-tool'
p200
sS'gcc-4.9'
p201
S'gcc-4.9'
p202
sS'initramfs-tools'
p203
S'initramfs-tools (>= 0.110~)'
p204
ss(S'description'
p205
g17
NS'siduction-amd64'
p206
tp207
(dp208
S'hardware'
p209
S'64-bit PCs'
p210
sS'hardware-long'
p211
S'PCs with AMD64 or Intel 64 processors'
p212
sstp213
Rp214
.