ccopy_reg
_reconstructor
p1
(cdebian_linux.config
ConfigCore
p2
c__builtin__
dict
p3
(dp4
(S'image'
S'amd64'
p5
tp6
(dp7
S'suggests'
p8
S'crda'
p9
sS'configs'
p10
(lp11
S'kernelarch-x86/config'
p12
asS'bootloaders'
p13
(lp14
S'grub-pc'
p15
aS'extlinux'
p16
aS'grub-efi-amd64'
p17
ass(S'siduction-686_image-dbg'
p18
S'i386'
p19
tp20
(dp21
S'enabled'
p22
S'false'
p23
ss(S'image'
g5
NS'siduction-amd64'
tp24
(dp25
S'configs'
p26
(lp27
S'kernelarch-x86/config-arch-64'
p28
ass(S'base'
g5
tp29
(dp30
S'kernel-arch'
p31
S'x86'
p32
sS'featuresets'
p33
(lp34
S'none'
p35
ass(S'image'
g19
NS'siduction-686'
tp36
(dp37
S'configs'
p38
(lp39
S'kernelarch-x86/config-arch-32'
p40
asS'recommends'
p41
S'libc6-i686'
p42
ss(S'image'
p43
tp44
(dp45
S'initramfs-generators'
p46
(lp47
S'initramfs-tools'
p48
aS'initramfs-fallback'
p49
asS'type'
p50
S'plain'
p51
ss(S'description'
g19
NS'siduction-686'
tp52
(dp53
S'hardware'
p54
S'modern PCs'
p55
sS'hardware-long'
p56
S'PCs with Intel Pentium Pro/II/III/4/4M/D/M, Xeon, Celeron, Core or Atom; AMD Geode LX/NX, Athlon (K7), Duron, Opteron, Sempron, Turion or Phenom; Transmeta Efficeon; VIA C3 "Nehemiah" or C7 processors'
p57
ss(S'image'
g19
S'none'
p58
S'siduction-686-pae'
tp59
(dp60
S'configs'
p61
(lp62
S'kernelarch-x86/config-arch-32'
p63
aS'kernelarch-x86/config-arch-32-pae'
p64
asS'recommends'
p65
S'libc6-i686'
p66
ss(S'version'
p67
tp68
(dp69
S'abiname'
p70
S'3.11-4.towo'
p71
sS'source'
p72
V3.11-7
p73
ss(S'description'
g19
g58
S'siduction-686-pae'
tp74
(dp75
S'hardware'
p76
S'modern PCs with pae support'
p77
sS'hardware-long'
p78
S'PCs with Intel Xeon, Core or Atom; AMD Geode LX/NX, Athlon (K7), Opteron, Sempron, Turion or Phenom; Transmeta Efficeon; C7 processors'
p79
ss(S'base'
p80
g19
tp81
(dp82
S'kernel-arch'
p83
S'x86'
p84
sS'featuresets'
p85
(lp86
S'none'
p87
ass(S'siduction-amd64-dbg'
g5
tp88
(dp89
S'enabled'
p90
S'false'
p91
ss(S'base'
g19
g58
tp92
(dp93
S'flavours'
p94
(lp95
S'siduction-686'
p96
aS'siduction-686-pae'
p97
ass(S'abi'
p98
tp99
(dp100
S'abiname'
p101
S'4.towo'
p102
ss(S'image'
p103
g19
tp104
(dp105
S'suggests'
p106
S'crda'
p107
sS'configs'
p108
(lp109
S'kernelarch-x86/config'
p110
asS'bootloaders'
p111
(lp112
S'grub-pc'
p113
aS'extlinux'
p114
ass(S'siduction-686-pae_image-dbg'
g19
g58
tp115
(dp116
S'enabled'
p117
S'false'
p118
ss(S'description'
g5
NS'siduction-amd64'
tp119
(dp120
S'hardware'
p121
S'64-bit PCs'
p122
sS'hardware-long'
p123
S'PCs with AMD64 or Intel 64 processors'
p124
ss(S'base'
p125
g5
g35
tp126
(dp127
S'implicit-flavour'
p128
I01
sS'flavours'
p129
(lp130
S'siduction-amd64'
p131
ass(S'base'
p132
tp133
(dp134
S'arches'
p135
(lp136
S'amd64'
p137
aS'i386'
p138
asS'featuresets'
p139
(lp140
S'none'
p141
asS'compiler'
p142
S'gcc-4.8'
p143
ss(S'relations'
p144
tp145
(dp146
S'initramfs-fallback'
p147
S'linux-initramfs-tool'
p148
sS'lilo'
p149
S'lilo (>= 22.8-8.2~)'
p150
sS'gcc-4.8'
p151
S'gcc-4.8'
p152
sS'initramfs-tools'
p153
S'initramfs-tools (>= 0.110~)'
p154
sS'elilo'
p155
S'elilo (>= 3.12-3.1~)'
p156
sstRp157
.