ccopy_reg
_reconstructor
p1
(cdebian_linux.config
ConfigCore
p2
c__builtin__
dict
p3
(dp4
(S'description'
S'i386'
p5
NS'siduction-686'
tp6
(dp7
S'hardware'
p8
S'modern PCs'
p9
sS'hardware-long'
p10
S'PCs with Intel Pentium Pro/II/III/4/4M/D/M, Xeon, Celeron, Core or Atom; AMD Geode LX/NX, Athlon (K7), Duron, Opteron, Sempron, Turion or Phenom; Transmeta Efficeon; VIA C3 "Nehemiah" or C7 processors'
p11
ss(S'image'
S'amd64'
p12
tp13
(dp14
S'suggests'
p15
S'crda'
p16
sS'configs'
p17
(lp18
S'kernelarch-x86/config'
p19
asS'bootloaders'
p20
(lp21
S'grub-pc'
p22
aS'extlinux'
p23
aS'grub-efi-amd64'
p24
ass(S'image'
g5
NS'siduction-686'
tp25
(dp26
S'configs'
p27
(lp28
S'kernelarch-x86/config-arch-32'
p29
asS'recommends'
p30
S'libc6-i686'
p31
ss(S'siduction-686_image-dbg'
p32
g5
tp33
(dp34
S'enabled'
p35
S'false'
p36
ss(S'base'
p37
g12
S'none'
p38
tp39
(dp40
S'implicit-flavour'
p41
I01
sS'flavours'
p42
(lp43
S'siduction-amd64'
p44
ass(S'base'
g12
tp45
(dp46
S'kernel-arch'
p47
S'x86'
p48
sS'featuresets'
p49
(lp50
g38
ass(S'image'
p51
tp52
(dp53
S'initramfs-generators'
p54
(lp55
S'initramfs-tools'
p56
aS'initramfs-fallback'
p57
asS'type'
p58
S'plain'
p59
ss(S'version'
p60
tp61
(dp62
S'abiname'
p63
S'3.2-10.towo.1'
p64
sS'source'
p65
V3.2.0-22
p66
ss(S'base'
p67
g5
tp68
(dp69
S'kernel-arch'
p70
S'x86'
p71
sg49
(lp72
g38
ass(S'image'
g12
NS'siduction-amd64'
tp73
(dp74
S'configs'
p75
(lp76
S'kernelarch-x86/config-arch-64'
p77
ass(S'siduction-amd64-dbg'
g12
tp78
(dp79
S'enabled'
p80
S'false'
p81
ss(S'abi'
p82
tp83
(dp84
S'abiname'
p85
S'10.towo.1'
p86
ss(S'image'
p87
g5
tp88
(dp89
S'suggests'
p90
S'crda'
p91
sS'configs'
p92
(lp93
S'kernelarch-x86/config'
p94
asS'bootloaders'
p95
(lp96
S'grub-pc'
p97
aS'extlinux'
p98
ass(g37
g5
g38
tp99
(dp100
g41
I01
sg42
(lp101
S'siduction-686'
p102
ass(S'description'
g12
NS'siduction-amd64'
tp103
(dp104
S'hardware'
p105
S'64-bit PCs'
p106
sS'hardware-long'
p107
S'PCs with AMD64 or Intel 64 processors'
p108
ss(S'base'
p109
tp110
(dp111
S'arches'
p112
(lp113
S'amd64'
p114
aS'i386'
p115
asS'featuresets'
p116
(lp117
S'none'
p118
asS'compiler'
p119
S'gcc-4.6'
p120
ss(S'relations'
p121
tp122
(dp123
S'initramfs-fallback'
p124
S'linux-initramfs-tool'
p125
sS'lilo'
p126
S'lilo (>= 22.8-8.2~)'
p127
sS'initramfs-tools'
p128
S'initramfs-tools (>= 0.99~)'
p129
sS'gcc-4.6'
p130
S'gcc-4.6'
p131
sS'elilo'
p132
S'elilo (>= 3.12-3.1~)'
p133
sstRp134
.