ccopy_reg
_reconstructor
p0
(cdebian_linux.config
ConfigCore
p1
c__builtin__
dict
p2
(dp3
(S'image'
p4
S'amd64'
p5
tp6
(dp7
S'install-stem'
p8
S'vmlinuz'
p9
sS'configs'
p10
(lp11
sS'bootloaders'
p12
(lp13
S'grub-pc'
p14
aS'extlinux'
p15
aS'grub-efi-amd64'
p16
asS'suggests'
p17
S'crda'
p18
ss(S'description'
p19
g5
NS'siduction-amd64'
p20
tp21
(dp22
S'hardware'
p23
S'64-bit PCs'
p24
sS'hardware-long'
p25
S'PCs with AMD64 or Intel 64 processors'
p26
ss(S'description'
p27
S'i386'
p28
NS'siduction-686'
p29
tp30
(dp31
S'hardware'
p32
S'modern PCs'
p33
sS'hardware-long'
p34
S'PCs with Intel Pentium Pro/II/III/4/4M/D/M, Xeon, Celeron, Core or Atom; AMD Geode LX/NX, Athlon (K7), Duron, Opteron, Sempron, Turion or Phenom; Transmeta Efficeon; VIA C3 "Nehemiah" or C7 processors'
p35
ss(S'base'
p36
g5
S'none'
p37
tp38
(dp39
S'implicit-flavour'
p40
I01
sS'flavours'
p41
(lp42
S'siduction-amd64'
p43
ass(S'image'
p44
g5
NS'siduction-amd64'
p45
tp46
(dp47
S'configs'
p48
(lp49
S'kernelarch-x86/config-arch-64'
p50
ass(S'image'
p51
g28
NS'siduction-686'
p52
tp53
(dp54
S'configs'
p55
(lp56
S'kernelarch-x86/config-arch-32'
p57
asS'recommends'
p58
S'libc6-i686'
p59
ss(S'base'
p60
g5
tp61
(dp62
S'kernel-arch'
p63
S'x86'
p64
sS'featuresets'
p65
(lp66
S'none'
p67
ag37
ass(S'description'
p68
g5
g37
S'siduction-amd64'
p69
tp70
(dp71
S'parts'
p72
(lp73
S'xen'
p74
ass(S'description'
p75
g28
NS'siduction-686-pae'
p76
tp77
(dp78
S'hardware'
p79
S'modern PCs'
p80
sS'parts'
p81
(lp82
S'pae'
p83
asS'hardware-long'
p84
S'PCs with one or more processors supporting PAE'
p85
ss(S'image'
p86
g28
NS'siduction-686-pae'
p87
tp88
(dp89
S'configs'
p90
(lp91
S'kernelarch-x86/config-arch-32'
p92
aS'kernelarch-x86/config-arch-32-pae'
p93
asS'recommends'
p94
S'libc6-i686'
p95
ss(S'build'
p96
g28
tp97
(dp98
S'debug-info'
p99
I00
sS'image-file'
p100
S'arch/x86/boot/bzImage'
p101
ss(S'xen'
p102
g5
g37
S'siduction-amd64'
p103
tp104
(dp105
S'flavours'
p106
(lp107
S'siduction-amd64'
p108
ass(S'build'
p109
g28
NS'siduction-686-pae'
p110
tp111
(dp112
S'debug-info'
p113
I00
ss(S'image'
p114
tp115
(dp116
S'initramfs-generators'
p117
(lp118
S'initramfs-tools'
p119
aS'initramfs-fallback'
p120
asS'type'
p121
S'plain'
p122
ss(S'version'
p123
tp124
(dp125
S'abiname'
p126
S'4.0.3-towo.1'
p127
sS'source'
p128
V4.0-7
p129
sS'upstream'
p130
S'4.0'
p131
ss(S'description'
p132
g28
tp133
(dp134
S'part-long-pae'
p135
S'This kernel requires PAE (Physical Address Extension)\nThis feature is supported by the Intel Pentium Pro/II/III/4/4M/D, Xeon,\nCore and Atom; AMD Geode NX, Athlon (K7), Duron, Opteron, Sempron,\nTurion or Phenom; Transmeta Efficeon; VIA C7; and some other processors.'
p136
ss(S'description'
p137
tp138
(dp139
S'part-long-up'
p140
S'This kernel is not suitable for SMP (multi-processor,\nmulti-core or hyper-threaded) systems.'
p141
sS'part-long-xen'
p142
S'This kernel also runs on a Xen hypervisor.\nIt supports both privileged (dom0) and unprivileged (domU) operation.'
p143
ss(S'abi'
p144
tp145
(dp146
S'abiname'
p147
S'towo.1'
p148
ss(S'image'
p149
g28
tp150
(dp151
S'install-stem'
p152
S'vmlinuz'
p153
sS'configs'
p154
(lp155
sS'bootloaders'
p156
(lp157
S'grub-pc'
p158
aS'extlinux'
p159
aS'grub-efi-ia32'
p160
asS'suggests'
p161
S'crda'
p162
ss(S'base'
p163
g28
S'none'
p164
tp165
(dp166
S'flavours'
p167
(lp168
S'siduction-686'
p169
aS'siduction-686-pae'
p170
ass(S'build'
p171
g5
tp172
(dp173
S'debug-info'
p174
I00
sS'image-file'
p175
S'arch/x86/boot/bzImage'
p176
ss(S'description'
p177
g28
g164
S'686-pae'
p178
tp179
(dp180
S'parts'
p181
(lp182
S'xen'
p183
ass(S'base'
p184
tp185
(dp186
S'arches'
p187
(lp188
S'amd64'
p189
aS'i386'
p190
asS'featuresets'
p191
(lp192
S'none'
p193
asS'compiler'
p194
S'gcc-4.9'
p195
ss(S'relations'
p196
tp197
(dp198
S'initramfs-fallback'
p199
S'linux-initramfs-tool'
p200
sS'gcc-4.9'
p201
S'gcc-4.9'
p202
sS'initramfs-tools'
p203
S'initramfs-tools (>= 0.110~)'
p204
ss(S'base'
p205
g28
tp206
(dp207
S'kernel-arch'
p208
S'x86'
p209
sS'featuresets'
p210
(lp211
S'none'
p212
asstp213
Rp214
.