ccopy_reg
_reconstructor
p0
(cdebian_linux.config
ConfigCore
p1
c__builtin__
dict
p2
(dp3
(Vabi
p4
tp5
(dp6
Vabiname
p7
V1
p8
ss(Vbase
p9
tp10
(dp11
Varches
p12
(lp13
Vamd64
p14
asVcompiler
p15
Vgcc-12
p16
sVfeaturesets
p17
(lp18
Vnone
p19
ass(Vdescription
p20
tp21
(dp22
Vpart-long-up
p23
VThis kernel is not suitable for SMP (multi-processor,\u000amulti-core or hyper-threaded) systems.
p24
sVpart-long-xen
p25
VThis kernel also runs on a Xen hypervisor.\u000aIt supports both privileged (dom0) and unprivileged (domU) operation.
p26
ss(Vimage
p27
tp28
(dp29
Vinitramfs-generators
p30
(lp31
Vinitramfs-tools
p32
aVinitramfs-fallback
p33
ass(Vrelations
p34
tp35
(dp36
Vgcc-12
p37
Vgcc-12
p38
sVinitramfs-fallback
p39
Vlinux-initramfs-tool
p40
sVinitramfs-tools
p41
Vinitramfs-tools (>= 0.121~)
p42
ss(Vbase
p43
Vamd64
p44
tp45
(dp46
Vfeaturesets
p47
(lp48
Vnone
p49
aVnone
p50
asVkernel-arch
p51
Vx86
p52
ss(Vbuild
p53
g44
tp54
(dp55
Vdebug-info
p56
I00
sVimage-file
p57
Varch/x86/boot/bzImage
p58
ss(Vimage
p59
g44
tp60
(dp61
Vbootloaders
p62
(lp63
Vgrub-pc
p64
aVextlinux
p65
aVgrub-efi-amd64
p66
asVinstall-stem
p67
Vvmlinuz
p68
sVsuggests
p69
Vcrda
p70
sVbreaks
p71
Vxserver-xorg-input-vmmouse (<< 1:13.0.99)
p72
ss(Vdescription
p73
g44
NVsiduction-amd64
p74
tp75
(dp76
Vhardware
p77
V64-bit PCs
p78
sVhardware-long
p79
VPCs with AMD64 or Intel 64 processors
p80
ss(Vbase
p81
g44
g50
tp82
(dp83
Vflavours
p84
(lp85
Vsiduction-amd64
p86
asVimplicit-flavour
p87
I01
ss(Vdescription
p88
g44
g50
Vsiduction-amd64
p89
tp90
(dp91
Vparts
p92
(lp93
Vxen
p94
ass(Vversion
p95
tp96
(dp97
Vsource
p98
V6.2~rc5-1~exp1
p99
sVupstream
p100
V6.2-rc5
p101
sVabiname_base
p102
V6.2.0-rc5
p103
sVabiname
p104
g103
sstp105
Rp106
.