ccopy_reg
_reconstructor
p1
(cdebian_linux.config
ConfigCore
p2
c__builtin__
dict
p3
(dp4
(S'image'
p5
S'amd64'
p6
tp7
(dp8
S'suggests'
p9
S'crda'
p10
sS'configs'
p11
(lp12
S'kernelarch-x86/config'
p13
asS'bootloaders'
p14
(lp15
S'grub-pc'
p16
aS'extlinux'
p17
aS'grub-efi-amd64'
p18
ass(S'image'
g6
NS'siduction-amd64'
tp19
(dp20
S'configs'
p21
(lp22
S'kernelarch-x86/config-arch-64'
p23
ass(S'siduction-686_image-dbg'
S'i386'
p24
tp25
(dp26
S'enabled'
p27
S'false'
p28
ss(S'base'
p29
g6
S'none'
p30
tp31
(dp32
S'implicit-flavour'
p33
I01
sS'flavours'
p34
(lp35
S'siduction-amd64'
p36
ass(S'image'
g24
NS'siduction-686'
tp37
(dp38
S'configs'
p39
(lp40
S'kernelarch-x86/config-arch-32'
p41
asS'recommends'
p42
S'libc6-i686'
p43
ss(S'description'
g6
NS'siduction-amd64'
tp44
(dp45
S'hardware'
p46
S'64-bit PCs'
p47
sS'hardware-long'
p48
S'PCs with AMD64 or Intel 64 processors'
p49
ss(S'description'
g24
NS'siduction-686'
tp50
(dp51
S'hardware'
p52
S'modern PCs'
p53
sS'hardware-long'
p54
S'PCs with Intel Pentium Pro/II/III/4/4M/D/M, Xeon, Celeron, Core or Atom; AMD Geode LX/NX, Athlon (K7), Duron, Opteron, Sempron, Turion or Phenom; Transmeta Efficeon; VIA C3 "Nehemiah" or C7 processors'
p55
ss(S'image'
p56
tp57
(dp58
S'initramfs-generators'
p59
(lp60
S'initramfs-tools'
p61
aS'initramfs-fallback'
p62
asS'type'
p63
S'plain'
p64
ss(S'image'
g24
S'none'
p65
S'siduction-686-pae'
tp66
(dp67
S'configs'
p68
(lp69
S'kernelarch-x86/config-arch-32'
p70
aS'kernelarch-x86/config-arch-32-pae'
p71
asS'recommends'
p72
S'libc6-i686'
p73
ss(S'base'
p74
g6
tp75
(dp76
S'kernel-arch'
p77
S'x86'
p78
sS'featuresets'
p79
(lp80
g30
ass(S'version'
p81
tp82
(dp83
S'abiname'
p84
S'3.15-3.towo'
p85
sS'source'
p86
V3.15-9
p87
ss(S'description'
g24
g65
S'siduction-686-pae'
tp88
(dp89
S'hardware'
p90
S'modern PCs with pae support'
p91
sS'hardware-long'
p92
S'PCs with Intel Xeon, Core or Atom; AMD Geode LX/NX, Athlon (K7), Opteron, Sempron, Turion or Phenom; Transmeta Efficeon; C7 processors'
p93
ss(S'base'
g24
tp94
(dp95
S'kernel-arch'
p96
S'x86'
p97
sS'featuresets'
p98
(lp99
S'none'
p100
ass(S'siduction-amd64-dbg'
p101
g6
tp102
(dp103
S'enabled'
p104
S'false'
p105
ss(S'base'
g24
g65
tp106
(dp107
S'flavours'
p108
(lp109
S'siduction-686'
p110
aS'siduction-686-pae'
p111
ass(S'abi'
p112
tp113
(dp114
S'abiname'
p115
S'3.towo'
p116
ss(S'image'
g24
tp117
(dp118
S'suggests'
p119
S'crda'
p120
sS'configs'
p121
(lp122
S'kernelarch-x86/config'
p123
asS'bootloaders'
p124
(lp125
S'grub-pc'
p126
aS'extlinux'
p127
ass(S'siduction-686-pae_image-dbg'
g24
g65
tp128
(dp129
S'enabled'
p130
S'false'
p131
ss(S'base'
p132
tp133
(dp134
S'arches'
p135
(lp136
S'amd64'
p137
aS'i386'
p138
asS'featuresets'
p139
(lp140
S'none'
p141
asS'compiler'
p142
S'gcc-4.9'
p143
ss(S'relations'
p144
tp145
(dp146
S'initramfs-fallback'
p147
S'linux-initramfs-tool'
p148
sS'gcc-4.9'
p149
S'gcc-4.9'
p150
sS'initramfs-tools'
p151
S'initramfs-tools (>= 0.110~)'
p152
sS'elilo'
p153
S'elilo (>= 3.12-3.1~)'
p154
sS'lilo'
p155
S'lilo (>= 22.8-8.2~)'
p156
sstRp157
.