ccopy_reg
_reconstructor
p0
(cdebian_linux.config
ConfigCore
p1
c__builtin__
dict
p2
(dp3
(S'image'
p4
S'amd64'
p5
NS'siduction-amd64'
p6
tp7
(dp8
S'configs'
p9
(lp10
S'kernelarch-x86/config-arch-64'
p11
ass(S'image'
p12
g5
tp13
(dp14
S'install-stem'
p15
S'vmlinuz'
p16
sS'configs'
p17
(lp18
sS'bootloaders'
p19
(lp20
S'grub-pc'
p21
aS'extlinux'
p22
aS'grub-efi-amd64'
p23
asS'suggests'
p24
S'crda'
p25
ss(S'build'
p26
S'i386'
p27
NS'siduction-686-pae'
p28
tp29
(dp30
S'debug-info'
p31
I00
ss(S'base'
p32
g5
S'none'
p33
tp34
(dp35
S'implicit-flavour'
p36
I01
sS'flavours'
p37
(lp38
S'siduction-amd64'
p39
ass(S'base'
p40
g5
tp41
(dp42
S'kernel-arch'
p43
S'x86'
p44
sS'featuresets'
p45
(lp46
S'none'
p47
ag33
ass(S'description'
p48
g5
g33
S'siduction-amd64'
p49
tp50
(dp51
S'parts'
p52
(lp53
S'xen'
p54
ass(S'description'
p55
g27
NS'siduction-686'
p56
tp57
(dp58
S'hardware'
p59
S'modern PCs'
p60
sS'hardware-long'
p61
S'PCs with Intel Pentium Pro/II/III/4/4M/D/M, Xeon, Celeron, Core or Atom; AMD Geode LX/NX, Athlon (K7), Duron, Opteron, Sempron, Turion or Phenom; Transmeta Efficeon; VIA C3 "Nehemiah" or C7 processors'
p62
ss(S'build'
p63
g27
tp64
(dp65
S'debug-info'
p66
I00
sS'image-file'
p67
S'arch/x86/boot/bzImage'
p68
ss(S'xen'
p69
g5
g33
S'siduction-amd64'
p70
tp71
(dp72
S'flavours'
p73
(lp74
S'siduction-amd64'
p75
ass(S'image'
p76
g27
NS'siduction-686-pae'
p77
tp78
(dp79
S'configs'
p80
(lp81
S'kernelarch-x86/config-arch-32'
p82
aS'kernelarch-x86/config-arch-32-pae'
p83
asS'recommends'
p84
S'libc6-i686'
p85
ss(S'base'
p86
g27
tp87
(dp88
S'kernel-arch'
p89
S'x86'
p90
sS'featuresets'
p91
(lp92
S'none'
p93
ass(S'image'
p94
tp95
(dp96
S'initramfs-generators'
p97
(lp98
S'initramfs-tools'
p99
aS'initramfs-fallback'
p100
asS'type'
p101
S'plain'
p102
ss(S'version'
p103
tp104
(dp105
S'abiname'
p106
S'4.2.3-towo.1'
p107
sS'source'
p108
V4.2-5
p109
sS'upstream'
p110
S'4.2'
p111
ss(S'description'
p112
g27
tp113
(dp114
S'part-long-pae'
p115
S'This kernel requires PAE (Physical Address Extension)\nThis feature is supported by the Intel Pentium Pro/II/III/4/4M/D, Xeon,\nCore and Atom; AMD Geode NX, Athlon (K7), Duron, Opteron, Sempron,\nTurion or Phenom; Transmeta Efficeon; VIA C7; and some other processors.'
p116
ss(S'description'
p117
tp118
(dp119
S'part-long-up'
p120
S'This kernel is not suitable for SMP (multi-processor,\nmulti-core or hyper-threaded) systems.'
p121
sS'part-long-xen'
p122
S'This kernel also runs on a Xen hypervisor.\nIt supports both privileged (dom0) and unprivileged (domU) operation.'
p123
ss(S'abi'
p124
tp125
(dp126
S'abiname'
p127
S'towo.1'
p128
ss(S'image'
p129
g27
tp130
(dp131
S'install-stem'
p132
S'vmlinuz'
p133
sS'configs'
p134
(lp135
sS'bootloaders'
p136
(lp137
S'grub-pc'
p138
aS'extlinux'
p139
aS'grub-efi-ia32'
p140
asS'suggests'
p141
S'crda'
p142
ss(S'base'
p143
g27
S'none'
p144
tp145
(dp146
S'flavours'
p147
(lp148
S'siduction-686'
p149
aS'siduction-686-pae'
p150
ass(S'description'
p151
g27
NS'siduction-686-pae'
p152
tp153
(dp154
S'hardware'
p155
S'modern PCs'
p156
sS'parts'
p157
(lp158
S'pae'
p159
asS'hardware-long'
p160
S'PCs with one or more processors supporting PAE'
p161
ss(S'build'
p162
g5
tp163
(dp164
S'debug-info'
p165
I00
sS'image-file'
p166
S'arch/x86/boot/bzImage'
p167
ss(S'description'
p168
g27
g144
S'686-pae'
p169
tp170
(dp171
S'parts'
p172
(lp173
S'xen'
p174
ass(S'description'
p175
g5
NS'siduction-amd64'
p176
tp177
(dp178
S'hardware'
p179
S'64-bit PCs'
p180
sS'hardware-long'
p181
S'PCs with AMD64 or Intel 64 processors'
p182
ss(S'image'
p183
g27
NS'siduction-686'
p184
tp185
(dp186
S'configs'
p187
(lp188
S'kernelarch-x86/config-arch-32'
p189
asS'recommends'
p190
S'libc6-i686'
p191
ss(S'base'
p192
tp193
(dp194
S'arches'
p195
(lp196
S'amd64'
p197
aS'i386'
p198
asS'featuresets'
p199
(lp200
S'none'
p201
asS'compiler'
p202
S'gcc-5'
p203
ss(S'relations'
p204
tp205
(dp206
S'initramfs-fallback'
p207
S'linux-initramfs-tool'
p208
sS'gcc-5'
p209
S'gcc-5'
p210
sS'initramfs-tools'
p211
S'initramfs-tools (>= 0.110~)'
p212
sstp213
Rp214
.