ccopy_reg
_reconstructor
p1
(cdebian_linux.config
ConfigCore
p2
c__builtin__
dict
p3
(dp4
(S'image'
p5
S'amd64'
p6
tp7
(dp8
S'suggests'
p9
S'crda'
p10
sS'configs'
p11
(lp12
S'kernelarch-x86/config'
p13
asS'bootloaders'
p14
(lp15
S'grub-pc'
p16
aS'extlinux'
p17
aS'grub-efi-amd64'
p18
ass(S'siduction-686_image-dbg'
S'i386'
p19
tp20
(dp21
S'enabled'
p22
S'false'
p23
ss(S'description'
g6
NS'siduction-amd64'
tp24
(dp25
S'hardware'
p26
S'64-bit PCs'
p27
sS'hardware-long'
p28
S'PCs with AMD64 or Intel 64 processors'
p29
ss(S'base'
p30
g6
tp31
(dp32
S'kernel-arch'
p33
S'x86'
p34
sS'featuresets'
p35
(lp36
S'none'
p37
ass(S'description'
g19
NS'siduction-686'
tp38
(dp39
S'hardware'
p40
S'modern PCs'
p41
sS'hardware-long'
p42
S'PCs with Intel Pentium Pro/II/III/4/4M/D/M, Xeon, Celeron, Core or Atom; AMD Geode LX/NX, Athlon (K7), Duron, Opteron, Sempron, Turion or Phenom; Transmeta Efficeon; VIA C3 "Nehemiah" or C7 processors'
p43
ss(S'image'
p44
tp45
(dp46
S'initramfs-generators'
p47
(lp48
S'initramfs-tools'
p49
aS'initramfs-fallback'
p50
asS'type'
p51
S'plain'
p52
ss(S'image'
g19
NS'siduction-686'
tp53
(dp54
S'configs'
p55
(lp56
S'kernelarch-x86/config-arch-32'
p57
asS'recommends'
p58
S'libc6-i686'
p59
ss(S'image'
g19
S'none'
p60
S'siduction-686-pae'
tp61
(dp62
S'configs'
p63
(lp64
S'kernelarch-x86/config-arch-32'
p65
aS'kernelarch-x86/config-arch-32-pae'
p66
asS'recommends'
p67
S'libc6-i686'
p68
ss(S'version'
p69
tp70
(dp71
S'abiname'
p72
S'3.16-3.towo.2'
p73
sS'source'
p74
V3.16-7
p75
ss(S'description'
g19
g60
S'siduction-686-pae'
tp76
(dp77
S'hardware'
p78
S'modern PCs with pae support'
p79
sS'hardware-long'
p80
S'PCs with Intel Xeon, Core or Atom; AMD Geode LX/NX, Athlon (K7), Opteron, Sempron, Turion or Phenom; Transmeta Efficeon; C7 processors'
p81
ss(S'base'
g19
tp82
(dp83
S'kernel-arch'
p84
S'x86'
p85
sS'featuresets'
p86
(lp87
S'none'
p88
ass(S'siduction-amd64-dbg'
p89
g6
tp90
(dp91
S'enabled'
p92
S'false'
p93
ss(S'base'
g19
g60
tp94
(dp95
S'flavours'
p96
(lp97
S'siduction-686'
p98
aS'siduction-686-pae'
p99
ass(S'abi'
p100
tp101
(dp102
S'abiname'
p103
S'3.towo.2'
p104
ss(S'image'
g19
tp105
(dp106
S'suggests'
p107
S'crda'
p108
sS'configs'
p109
(lp110
S'kernelarch-x86/config'
p111
asS'bootloaders'
p112
(lp113
S'grub-pc'
p114
aS'extlinux'
p115
ass(S'siduction-686-pae_image-dbg'
g19
g60
tp116
(dp117
S'enabled'
p118
S'false'
p119
ss(S'image'
g6
NS'siduction-amd64'
tp120
(dp121
S'configs'
p122
(lp123
S'kernelarch-x86/config-arch-64'
p124
ass(S'base'
p125
g6
g37
tp126
(dp127
S'implicit-flavour'
p128
I01
sS'flavours'
p129
(lp130
S'siduction-amd64'
p131
ass(S'base'
p132
tp133
(dp134
S'arches'
p135
(lp136
S'amd64'
p137
aS'i386'
p138
asS'featuresets'
p139
(lp140
S'none'
p141
asS'compiler'
p142
S'gcc-4.9'
p143
ss(S'relations'
p144
tp145
(dp146
S'initramfs-fallback'
p147
S'linux-initramfs-tool'
p148
sS'gcc-4.9'
p149
S'gcc-4.9'
p150
sS'initramfs-tools'
p151
S'initramfs-tools (>= 0.110~)'
p152
sS'elilo'
p153
S'elilo (>= 3.12-3.1~)'
p154
sS'lilo'
p155
S'lilo (>= 22.8-8.2~)'
p156
sstRp157
.