ccopy_reg
_reconstructor
p0
(cdebian_linux.config
ConfigCore
p1
c__builtin__
dict
p2
(dp3
(S'image'
p4
S'amd64'
p5
tp6
(dp7
S'suggests'
p8
S'crda'
p9
sS'configs'
p10
(lp11
S'kernelarch-x86/config'
p12
asS'bootloaders'
p13
(lp14
S'grub-pc'
p15
aS'extlinux'
p16
aS'grub-efi-amd64'
p17
ass(S'siduction-686_image-dbg'
p18
S'i386'
p19
tp20
(dp21
S'enabled'
p22
S'false'
p23
ss(S'description'
p24
g5
NS'siduction-amd64'
p25
tp26
(dp27
S'hardware'
p28
S'64-bit PCs'
p29
sS'hardware-long'
p30
S'PCs with AMD64 or Intel 64 processors'
p31
ss(S'base'
p32
g5
tp33
(dp34
S'kernel-arch'
p35
S'x86'
p36
sS'featuresets'
p37
(lp38
S'none'
p39
ass(S'description'
p40
g19
NS'siduction-686'
p41
tp42
(dp43
S'hardware'
p44
S'modern PCs'
p45
sS'hardware-long'
p46
S'PCs with Intel Pentium Pro/II/III/4/4M/D/M, Xeon, Celeron, Core or Atom; AMD Geode LX/NX, Athlon (K7), Duron, Opteron, Sempron, Turion or Phenom; Transmeta Efficeon; VIA C3 "Nehemiah" or C7 processors'
p47
ss(S'image'
p48
tp49
(dp50
S'initramfs-generators'
p51
(lp52
S'initramfs-tools'
p53
aS'initramfs-fallback'
p54
asS'type'
p55
S'plain'
p56
ss(S'image'
p57
g19
NS'siduction-686'
p58
tp59
(dp60
S'configs'
p61
(lp62
S'kernelarch-x86/config-arch-32'
p63
asS'recommends'
p64
S'libc6-i686'
p65
ss(S'image'
p66
g19
S'none'
p67
S'siduction-686-pae'
p68
tp69
(dp70
S'configs'
p71
(lp72
S'kernelarch-x86/config-arch-32'
p73
aS'kernelarch-x86/config-arch-32-pae'
p74
asS'recommends'
p75
S'libc6-i686'
p76
ss(S'version'
p77
tp78
(dp79
S'abiname'
p80
S'3.16-4.towo'
p81
sS'source'
p82
V3.16-9
p83
sS'upstream'
p84
S'3.16'
p85
ss(S'description'
p86
g19
g67
S'siduction-686-pae'
p87
tp88
(dp89
S'hardware'
p90
S'modern PCs with pae support'
p91
sS'hardware-long'
p92
S'PCs with Intel Xeon, Core or Atom; AMD Geode LX/NX, Athlon (K7), Opteron, Sempron, Turion or Phenom; Transmeta Efficeon; C7 processors'
p93
ss(S'base'
p94
g19
tp95
(dp96
S'kernel-arch'
p97
S'x86'
p98
sS'featuresets'
p99
(lp100
S'none'
p101
ass(S'siduction-amd64-dbg'
p102
g5
tp103
(dp104
S'enabled'
p105
S'false'
p106
ss(S'base'
p107
g19
g67
tp108
(dp109
S'flavours'
p110
(lp111
S'siduction-686'
p112
aS'siduction-686-pae'
p113
ass(S'abi'
p114
tp115
(dp116
S'abiname'
p117
S'4.towo'
p118
ss(S'image'
p119
g19
tp120
(dp121
S'suggests'
p122
S'crda'
p123
sS'configs'
p124
(lp125
S'kernelarch-x86/config'
p126
asS'bootloaders'
p127
(lp128
S'grub-pc'
p129
aS'extlinux'
p130
ass(S'siduction-686-pae_image-dbg'
p131
g19
g67
tp132
(dp133
S'enabled'
p134
S'false'
p135
ss(S'image'
p136
g5
NS'siduction-amd64'
p137
tp138
(dp139
S'configs'
p140
(lp141
S'kernelarch-x86/config-arch-64'
p142
ass(S'base'
p143
g5
g39
tp144
(dp145
S'implicit-flavour'
p146
I01
sS'flavours'
p147
(lp148
S'siduction-amd64'
p149
ass(S'base'
p150
tp151
(dp152
S'arches'
p153
(lp154
S'amd64'
p155
aS'i386'
p156
asS'featuresets'
p157
(lp158
S'none'
p159
asS'compiler'
p160
S'gcc-4.9'
p161
ss(S'relations'
p162
tp163
(dp164
S'initramfs-fallback'
p165
S'linux-initramfs-tool'
p166
sS'gcc-4.9'
p167
S'gcc-4.9'
p168
sS'initramfs-tools'
p169
S'initramfs-tools (>= 0.110~)'
p170
sS'elilo'
p171
S'elilo (>= 3.12-3.1~)'
p172
sS'lilo'
p173
S'lilo (>= 22.8-8.2~)'
p174
sstp175
Rp176
.