ccopy_reg
_reconstructor
p1
(cdebian_linux.config
ConfigCore
p2
c__builtin__
dict
p3
(dp4
(S'description'
S'amd64'
p5
NS'siduction-amd64'
tp6
(dp7
S'hardware'
p8
S'64-bit PCs'
p9
sS'hardware-long'
p10
S'PCs with AMD64 or Intel 64 processors'
p11
ss(S'image'
g5
NS'siduction-amd64'
tp12
(dp13
S'configs'
p14
(lp15
S'kernelarch-x86/config-arch-64'
p16
ass(S'base'
p17
g5
S'none'
p18
tp19
(dp20
S'implicit-flavour'
p21
I01
sS'flavours'
p22
(lp23
S'siduction-amd64'
p24
ass(S'description'
S'i386'
p25
NS'siduction-686'
tp26
(dp27
S'hardware'
p28
S'modern PCs'
p29
sS'hardware-long'
p30
S'PCs with Intel Pentium Pro/II/III/4/4M/D/M, Xeon, Celeron, Core or Atom; AMD Geode LX/NX, Athlon (K7), Duron, Opteron, Sempron, Turion or Phenom; Transmeta Efficeon; VIA C3 "Nehemiah" or C7 processors'
p31
ss(S'image'
g5
tp32
(dp33
S'suggests'
p34
S'crda'
p35
sS'configs'
p36
(lp37
S'kernelarch-x86/config'
p38
asS'bootloaders'
p39
(lp40
S'grub-pc'
p41
aS'extlinux'
p42
aS'grub-efi-amd64'
p43
ass(S'base'
g5
tp44
(dp45
S'kernel-arch'
p46
S'x86'
p47
sS'featuresets'
p48
(lp49
g18
ass(S'image'
p50
tp51
(dp52
S'initramfs-generators'
p53
(lp54
S'initramfs-tools'
p55
aS'initramfs-fallback'
p56
asS'type'
p57
S'plain'
p58
ss(S'image'
g25
S'none'
p59
S'siduction-686-pae'
tp60
(dp61
S'configs'
p62
(lp63
S'kernelarch-x86/config-arch-32'
p64
aS'kernelarch-x86/config-arch-32-pae'
p65
asS'recommends'
p66
S'libc6-i686'
p67
ss(S'version'
p68
tp69
(dp70
S'abiname'
p71
S'3.14-3.towo'
p72
sS'source'
p73
V3.14-8
p74
ss(S'description'
g25
g59
S'siduction-686-pae'
tp75
(dp76
S'hardware'
p77
S'modern PCs with pae support'
p78
sS'hardware-long'
p79
S'PCs with Intel Xeon, Core or Atom; AMD Geode LX/NX, Athlon (K7), Opteron, Sempron, Turion or Phenom; Transmeta Efficeon; C7 processors'
p80
ss(S'base'
p81
g25
tp82
(dp83
S'kernel-arch'
p84
S'x86'
p85
sS'featuresets'
p86
(lp87
S'none'
p88
ass(S'image'
g25
NS'siduction-686'
tp89
(dp90
S'configs'
p91
(lp92
S'kernelarch-x86/config-arch-32'
p93
asS'recommends'
p94
S'libc6-i686'
p95
ss(S'siduction-686_image-dbg'
p96
g25
tp97
(dp98
S'enabled'
p99
S'false'
p100
ss(S'siduction-amd64-dbg'
g5
tp101
(dp102
S'enabled'
p103
S'false'
p104
ss(S'base'
g25
g59
tp105
(dp106
S'flavours'
p107
(lp108
S'siduction-686'
p109
aS'siduction-686-pae'
p110
ass(S'abi'
p111
tp112
(dp113
S'abiname'
p114
S'3.towo'
p115
ss(S'image'
p116
g25
tp117
(dp118
S'suggests'
p119
S'crda'
p120
sS'configs'
p121
(lp122
S'kernelarch-x86/config'
p123
asS'bootloaders'
p124
(lp125
S'grub-pc'
p126
aS'extlinux'
p127
ass(S'siduction-686-pae_image-dbg'
g25
g59
tp128
(dp129
S'enabled'
p130
S'false'
p131
ss(S'base'
p132
tp133
(dp134
S'arches'
p135
(lp136
S'amd64'
p137
aS'i386'
p138
asS'featuresets'
p139
(lp140
S'none'
p141
asS'compiler'
p142
S'gcc-4.8'
p143
ss(S'relations'
p144
tp145
(dp146
S'initramfs-fallback'
p147
S'linux-initramfs-tool'
p148
sS'lilo'
p149
S'lilo (>= 22.8-8.2~)'
p150
sS'gcc-4.8'
p151
S'gcc-4.8'
p152
sS'initramfs-tools'
p153
S'initramfs-tools (>= 0.110~)'
p154
sS'elilo'
p155
S'elilo (>= 3.12-3.1~)'
p156
sstRp157
.