ccopy_reg
_reconstructor
p0
(cdebian_linux.config
ConfigCore
p1
c__builtin__
dict
p2
(dp3
(Vdescription
p4
tp5
(dp6
Vpart-long-xen
p7
VThis kernel also runs on a Xen hypervisor.\u000aIt supports both privileged (dom0) and unprivileged (domU) operation.
p8
sVpart-long-up
p9
VThis kernel is not suitable for SMP (multi-processor,\u000amulti-core or hyper-threaded) systems.
p10
ss(Vbuild
p11
Vi386
p12
NVsiduction-686-pae
p13
tp14
(dp15
Vdebug-info
p16
I00
ss(Vxen
p17
Vamd64
p18
Vnone
p19
Vsiduction-amd64
p20
tp21
(dp22
Vflavours
p23
(lp24
Vsiduction-amd64
p25
ass(Vbase
p26
g12
Vnone
p27
tp28
(dp29
Vflavours
p30
(lp31
Vsiduction-686
p32
aVsiduction-686-pae
p33
ass(Vrelations
p34
tp35
(dp36
Vinitramfs-fallback
p37
Vlinux-initramfs-tool
p38
sVgcc-6
p39
Vgcc-6
p40
sVinitramfs-tools
p41
Vinitramfs-tools (>= 0.110~)
p42
ss(Vdescription
p43
g12
NVsiduction-686-pae
p44
tp45
(dp46
Vparts
p47
(lp48
Vpae
p49
asVhardware
p50
Vmodern PCs
p51
sVhardware-long
p52
VPCs with one or more processors supporting PAE
p53
ss(Vbase
p54
g12
tp55
(dp56
Vkernel-arch
p57
Vx86
p58
sVfeaturesets
p59
(lp60
Vnone
p61
ass(Vdescription
p62
g12
tp63
(dp64
Vpart-long-pae
p65
VThis kernel requires PAE (Physical Address Extension)\u000aThis feature is supported by the Intel Pentium Pro/II/III/4/4M/D, Xeon,\u000aCore and Atom; AMD Geode NX, Athlon (K7), Duron, Opteron, Sempron,\u000aTurion or Phenom; Transmeta Efficeon; VIA C7; and some other processors.
p66
ss(Vdescription
p67
g18
g19
Vsiduction-amd64
p68
tp69
(dp70
Vparts
p71
(lp72
Vxen
p73
ass(Vimage
p74
tp75
(dp76
Vtype
p77
Vplain
p78
sVinitramfs-generators
p79
(lp80
Vinitramfs-tools
p81
aVinitramfs-fallback
p82
ass(Vimage
p83
g18
NVsiduction-amd64
p84
tp85
(dp86
Vconfigs
p87
(lp88
Vkernelarch-x86/config-arch-64
p89
ass(Vversion
p90
tp91
(dp92
Vupstream
p93
V4.8
p94
sVabiname_base
p95
V4.8.11
p96
sVabiname
p97
V4.8.11-towo.2
p98
sVsource
p99
V4.8-19
p100
ss(Vimage
p101
g12
NVsiduction-686
p102
tp103
(dp104
Vrecommends
p105
Vlibc6-i686
p106
sVconfigs
p107
(lp108
Vkernelarch-x86/config-arch-32
p109
ass(Vdescription
p110
g12
NVsiduction-686
p111
tp112
(dp113
Vhardware
p114
Vmodern PCs
p115
sVhardware-long
p116
VPCs with Intel Pentium Pro/II/III/4/4M/D/M, Xeon, Celeron, Core or Atom; AMD Geode LX/NX, Athlon (K7), Duron, Opteron, Sempron, Turion or Phenom; Transmeta Efficeon; VIA C3 "Nehemiah" or C7 processors
p117
ss(Vdescription
p118
g18
NVsiduction-amd64
p119
tp120
(dp121
Vhardware
p122
V64-bit PCs
p123
sVhardware-long
p124
VPCs with AMD64 or Intel 64 processors
p125
ss(Vimage
p126
g12
tp127
(dp128
Vsuggests
p129
Vcrda
p130
sVbootloaders
p131
(lp132
Vgrub-pc
p133
aVextlinux
p134
aVgrub-efi-ia32
p135
asVinstall-stem
p136
Vvmlinuz
p137
sVconfigs
p138
(lp139
ss(Vbase
p140
g18
tp141
(dp142
Vkernel-arch
p143
Vx86
p144
sVfeaturesets
p145
(lp146
Vnone
p147
ag19
ass(Vbase
p148
tp149
(dp150
Varches
p151
(lp152
Vamd64
p153
aVi386
p154
asVcompiler
p155
Vgcc-6
p156
sVfeaturesets
p157
(lp158
Vnone
p159
ass(Vimage
p160
g18
tp161
(dp162
Vsuggests
p163
Vcrda
p164
sVbootloaders
p165
(lp166
Vgrub-pc
p167
aVextlinux
p168
aVgrub-efi-amd64
p169
asVinstall-stem
p170
Vvmlinuz
p171
sVconfigs
p172
(lp173
ss(Vbuild
p174
g12
tp175
(dp176
Vimage-file
p177
Varch/x86/boot/bzImage
p178
sVdebug-info
p179
I00
ss(Vbuild
p180
g18
tp181
(dp182
Vimage-file
p183
Varch/x86/boot/bzImage
p184
sVdebug-info
p185
I00
ss(Vabi
p186
tp187
(dp188
Vabiname
p189
Vtowo.2
p190
ss(Vimage
p191
g12
NVsiduction-686-pae
p192
tp193
(dp194
Vrecommends
p195
Vlibc6-i686
p196
sVconfigs
p197
(lp198
Vkernelarch-x86/config-arch-32
p199
aVkernelarch-x86/config-arch-32-pae
p200
ass(Vbase
p201
g18
g19
tp202
(dp203
Vimplicit-flavour
p204
I01
sVflavours
p205
(lp206
Vsiduction-amd64
p207
ass(Vdescription
p208
g12
g27
V686-pae
p209
tp210
(dp211
Vparts
p212
(lp213
Vxen
p214
asstp215
Rp216
.