ccopy_reg
_reconstructor
p0
(cdebian_linux.config
ConfigCore
p1
c__builtin__
dict
p2
(dp3
(Vbuild
p4
Vi386
p5
NVsiduction-686-pae
p6
tp7
(dp8
Vdebug-info
p9
I00
ss(Vbase
p10
g5
Vnone
p11
tp12
(dp13
Vflavours
p14
(lp15
Vsiduction-686
p16
aVsiduction-686-pae
p17
ass(Vversion
p18
tp19
(dp20
Vabiname_base
p21
V4.8.12
p22
sVabiname
p23
V4.8.12-towo.2
p24
sVupstream
p25
V4.8
p26
sVsource
p27
V4.8-22
p28
ss(Vbase
p29
g5
tp30
(dp31
Vkernel-arch
p32
Vx86
p33
sVfeaturesets
p34
(lp35
Vnone
p36
ass(Vdescription
p37
g5
NVsiduction-686-pae
p38
tp39
(dp40
Vhardware
p41
Vmodern PCs
p42
sVhardware-long
p43
VPCs with one or more processors supporting PAE
p44
sVparts
p45
(lp46
Vpae
p47
ass(Vrelations
p48
tp49
(dp50
Vgcc-6
p51
Vgcc-6
p52
sVinitramfs-tools
p53
Vinitramfs-tools (>= 0.110~)
p54
sVinitramfs-fallback
p55
Vlinux-initramfs-tool
p56
ss(Vbuild
p57
g5
tp58
(dp59
Vdebug-info
p60
I00
sVimage-file
p61
Varch/x86/boot/bzImage
p62
ss(Vimage
p63
Vamd64
p64
tp65
(dp66
Vconfigs
p67
(lp68
sVsuggests
p69
Vcrda
p70
sVinstall-stem
p71
Vvmlinuz
p72
sVbootloaders
p73
(lp74
Vgrub-pc
p75
aVextlinux
p76
aVgrub-efi-amd64
p77
ass(Vdescription
p78
g5
tp79
(dp80
Vpart-long-pae
p81
VThis kernel requires PAE (Physical Address Extension)\u000aThis feature is supported by the Intel Pentium Pro/II/III/4/4M/D, Xeon,\u000aCore and Atom; AMD Geode NX, Athlon (K7), Duron, Opteron, Sempron,\u000aTurion or Phenom; Transmeta Efficeon; VIA C7; and some other processors.
p82
ss(Vbase
p83
tp84
(dp85
Varches
p86
(lp87
Vamd64
p88
aVi386
p89
asVcompiler
p90
Vgcc-6
p91
sVfeaturesets
p92
(lp93
Vnone
p94
ass(Vimage
p95
g5
NVsiduction-686
p96
tp97
(dp98
Vconfigs
p99
(lp100
Vkernelarch-x86/config-arch-32
p101
asVrecommends
p102
Vlibc6-i686
p103
ss(Vdescription
p104
g64
NVsiduction-amd64
p105
tp106
(dp107
Vhardware
p108
V64-bit PCs
p109
sVhardware-long
p110
VPCs with AMD64 or Intel 64 processors
p111
ss(Vimage
p112
g64
NVsiduction-amd64
p113
tp114
(dp115
Vconfigs
p116
(lp117
Vkernelarch-x86/config-arch-64
p118
ass(Vdescription
p119
g64
Vnone
p120
Vsiduction-amd64
p121
tp122
(dp123
Vparts
p124
(lp125
Vxen
p126
ass(Vimage
p127
g5
NVsiduction-686-pae
p128
tp129
(dp130
Vconfigs
p131
(lp132
Vkernelarch-x86/config-arch-32
p133
aVkernelarch-x86/config-arch-32-pae
p134
asVrecommends
p135
Vlibc6-i686
p136
ss(Vbuild
p137
g64
tp138
(dp139
Vdebug-info
p140
I00
sVimage-file
p141
Varch/x86/boot/bzImage
p142
ss(Vimage
p143
tp144
(dp145
Vtype
p146
Vplain
p147
sVinitramfs-generators
p148
(lp149
Vinitramfs-tools
p150
aVinitramfs-fallback
p151
ass(Vbase
p152
g64
g120
tp153
(dp154
Vimplicit-flavour
p155
I01
sVflavours
p156
(lp157
Vsiduction-amd64
p158
ass(Vxen
p159
g64
g120
Vsiduction-amd64
p160
tp161
(dp162
Vflavours
p163
(lp164
Vsiduction-amd64
p165
ass(Vdescription
p166
g5
NVsiduction-686
p167
tp168
(dp169
Vhardware
p170
Vmodern PCs
p171
sVhardware-long
p172
VPCs with Intel Pentium Pro/II/III/4/4M/D/M, Xeon, Celeron, Core or Atom; AMD Geode LX/NX, Athlon (K7), Duron, Opteron, Sempron, Turion or Phenom; Transmeta Efficeon; VIA C3 "Nehemiah" or C7 processors
p173
ss(Vbase
p174
g64
tp175
(dp176
Vkernel-arch
p177
Vx86
p178
sVfeaturesets
p179
(lp180
Vnone
p181
ag120
ass(Vabi
p182
tp183
(dp184
Vabiname
p185
Vtowo.2
p186
ss(Vdescription
p187
tp188
(dp189
Vpart-long-up
p190
VThis kernel is not suitable for SMP (multi-processor,\u000amulti-core or hyper-threaded) systems.
p191
sVpart-long-xen
p192
VThis kernel also runs on a Xen hypervisor.\u000aIt supports both privileged (dom0) and unprivileged (domU) operation.
p193
ss(Vimage
p194
g5
tp195
(dp196
Vconfigs
p197
(lp198
sVsuggests
p199
Vcrda
p200
sVinstall-stem
p201
Vvmlinuz
p202
sVbootloaders
p203
(lp204
Vgrub-pc
p205
aVextlinux
p206
aVgrub-efi-ia32
p207
ass(Vdescription
p208
g5
g11
V686-pae
p209
tp210
(dp211
Vparts
p212
(lp213
Vxen
p214
asstp215
Rp216
.