ccopy_reg
_reconstructor
p0
(cdebian_linux.config
ConfigCore
p1
c__builtin__
dict
p2
(dp3
(Vbuild
p4
Vi386
p5
NVsiduction-686-pae
p6
tp7
(dp8
Vdebug-info
p9
I00
ss(Vdescription
p10
g5
Vnone
p11
V686-pae
p12
tp13
(dp14
Vparts
p15
(lp16
Vxen
p17
ass(Vimage
p18
g5
tp19
(dp20
Vbootloaders
p21
(lp22
Vgrub-pc
p23
aVextlinux
p24
aVgrub-efi-ia32
p25
asVconfigs
p26
(lp27
sVinstall-stem
p28
Vvmlinuz
p29
sVsuggests
p30
Vcrda
p31
ss(Vdescription
p32
g5
NVsiduction-686-pae
p33
tp34
(dp35
Vhardware
p36
Vmodern PCs
p37
sVhardware-long
p38
VPCs with one or more processors supporting PAE
p39
sVparts
p40
(lp41
Vpae
p42
ass(Vbuild
p43
Vamd64
p44
tp45
(dp46
Vimage-file
p47
Varch/x86/boot/bzImage
p48
sVdebug-info
p49
I00
ss(Vbuild
p50
g5
tp51
(dp52
Vimage-file
p53
Varch/x86/boot/bzImage
p54
sVdebug-info
p55
I00
ss(Vbase
p56
g5
g11
tp57
(dp58
Vflavours
p59
(lp60
Vsiduction-686
p61
aVsiduction-686-pae
p62
ass(Vdescription
p63
g44
NVsiduction-amd64
p64
tp65
(dp66
Vhardware
p67
V64-bit PCs
p68
sVhardware-long
p69
VPCs with AMD64 or Intel 64 processors
p70
ss(Vimage
p71
g5
NVsiduction-686-pae
p72
tp73
(dp74
Vconfigs
p75
(lp76
Vkernelarch-x86/config-arch-32
p77
aVkernelarch-x86/config-arch-32-pae
p78
asVrecommends
p79
Vlibc6-i686
p80
ss(Vbase
p81
g44
tp82
(dp83
Vkernel-arch
p84
Vx86
p85
sVfeaturesets
p86
(lp87
Vnone
p88
aVnone
p89
ass(Vdescription
p90
tp91
(dp92
Vpart-long-up
p93
VThis kernel is not suitable for SMP (multi-processor,\u000amulti-core or hyper-threaded) systems.
p94
sVpart-long-xen
p95
VThis kernel also runs on a Xen hypervisor.\u000aIt supports both privileged (dom0) and unprivileged (domU) operation.
p96
ss(Vimage
p97
g44
NVsiduction-amd64
p98
tp99
(dp100
Vconfigs
p101
(lp102
Vkernelarch-x86/config-arch-64
p103
ass(Vbase
p104
tp105
(dp106
Vcompiler
p107
Vgcc-6
p108
sVarches
p109
(lp110
Vamd64
p111
aVi386
p112
asVfeaturesets
p113
(lp114
Vnone
p115
ass(Vrelations
p116
tp117
(dp118
Vgcc-6
p119
Vgcc-6
p120
sVinitramfs-fallback
p121
Vlinux-initramfs-tool
p122
sVinitramfs-tools
p123
Vinitramfs-tools (>= 0.110~)
p124
ss(Vdescription
p125
g44
g89
Vsiduction-amd64
p126
tp127
(dp128
Vparts
p129
(lp130
Vxen
p131
ass(Vbase
p132
g44
g89
tp133
(dp134
Vflavours
p135
(lp136
Vsiduction-amd64
p137
asVimplicit-flavour
p138
I01
ss(Vabi
p139
tp140
(dp141
Vabiname
p142
Vtowo.1
p143
ss(Vimage
p144
g5
NVsiduction-686
p145
tp146
(dp147
Vconfigs
p148
(lp149
Vkernelarch-x86/config-arch-32
p150
asVrecommends
p151
Vlibc6-i686
p152
ss(Vdescription
p153
g5
tp154
(dp155
Vpart-long-pae
p156
VThis kernel requires PAE (Physical Address Extension)\u000aThis feature is supported by the Intel Pentium Pro/II/III/4/4M/D, Xeon,\u000aCore and Atom; AMD Geode NX, Athlon (K7), Duron, Opteron, Sempron,\u000aTurion or Phenom; Transmeta Efficeon; VIA C7; and some other processors.
p157
ss(Vxen
p158
g44
g89
Vsiduction-amd64
p159
tp160
(dp161
Vflavours
p162
(lp163
Vsiduction-amd64
p164
ass(Vimage
p165
g44
tp166
(dp167
Vbootloaders
p168
(lp169
Vgrub-pc
p170
aVextlinux
p171
aVgrub-efi-amd64
p172
asVconfigs
p173
(lp174
sVinstall-stem
p175
Vvmlinuz
p176
sVsuggests
p177
Vcrda
p178
ss(Vversion
p179
tp180
(dp181
Vsource
p182
V4.8-17
p183
sVabiname
p184
V4.8.11-towo.1
p185
sVabiname_base
p186
V4.8.11
p187
sVupstream
p188
V4.8
p189
ss(Vdescription
p190
g5
NVsiduction-686
p191
tp192
(dp193
Vhardware
p194
Vmodern PCs
p195
sVhardware-long
p196
VPCs with Intel Pentium Pro/II/III/4/4M/D/M, Xeon, Celeron, Core or Atom; AMD Geode LX/NX, Athlon (K7), Duron, Opteron, Sempron, Turion or Phenom; Transmeta Efficeon; VIA C3 "Nehemiah" or C7 processors
p197
ss(Vbase
p198
g5
tp199
(dp200
Vkernel-arch
p201
Vx86
p202
sVfeaturesets
p203
(lp204
Vnone
p205
ass(Vimage
p206
tp207
(dp208
Vtype
p209
Vplain
p210
sVinitramfs-generators
p211
(lp212
Vinitramfs-tools
p213
aVinitramfs-fallback
p214
asstp215
Rp216
.