ccopy_reg
_reconstructor
p0
(cdebian_linux.config
ConfigCore
p1
c__builtin__
dict
p2
(dp3
(Vimage
p4
tp5
(dp6
Vinitramfs-generators
p7
(lp8
Vinitramfs-tools
p9
aVinitramfs-fallback
p10
asVtype
p11
Vplain
p12
ss(Vbase
p13
Vamd64
p14
tp15
(dp16
Vkernel-arch
p17
Vx86
p18
sVfeaturesets
p19
(lp20
Vnone
p21
aVnone
p22
ass(Vbuild
p23
Vi386
p24
NVsiduction-686-pae
p25
tp26
(dp27
Vdebug-info
p28
I00
ss(Vversion
p29
tp30
(dp31
Vabiname
p32
V4.8.9-towo.1
p33
sVabiname_base
p34
V4.8.9
p35
sVsource
p36
V4.8-15
p37
sVupstream
p38
V4.8
p39
ss(Vrelations
p40
tp41
(dp42
Vinitramfs-fallback
p43
Vlinux-initramfs-tool
p44
sVinitramfs-tools
p45
Vinitramfs-tools (>= 0.110~)
p46
sVgcc-6
p47
Vgcc-6
p48
ss(Vbase
p49
tp50
(dp51
Varches
p52
(lp53
Vamd64
p54
aVi386
p55
asVcompiler
p56
Vgcc-6
p57
sVfeaturesets
p58
(lp59
Vnone
p60
ass(Vbase
p61
g14
g22
tp62
(dp63
Vflavours
p64
(lp65
Vsiduction-amd64
p66
asVimplicit-flavour
p67
I01
ss(Vimage
p68
g24
NVsiduction-686
p69
tp70
(dp71
Vrecommends
p72
Vlibc6-i686
p73
sVconfigs
p74
(lp75
Vkernelarch-x86/config-arch-32
p76
ass(Vbase
p77
g24
tp78
(dp79
Vkernel-arch
p80
Vx86
p81
sVfeaturesets
p82
(lp83
Vnone
p84
ass(Vdescription
p85
g24
tp86
(dp87
Vpart-long-pae
p88
VThis kernel requires PAE (Physical Address Extension)\u000aThis feature is supported by the Intel Pentium Pro/II/III/4/4M/D, Xeon,\u000aCore and Atom; AMD Geode NX, Athlon (K7), Duron, Opteron, Sempron,\u000aTurion or Phenom; Transmeta Efficeon; VIA C7; and some other processors.
p89
ss(Vimage
p90
g24
tp91
(dp92
Vsuggests
p93
Vcrda
p94
sVinstall-stem
p95
Vvmlinuz
p96
sVbootloaders
p97
(lp98
Vgrub-pc
p99
aVextlinux
p100
aVgrub-efi-ia32
p101
asVconfigs
p102
(lp103
ss(Vdescription
p104
g24
NVsiduction-686-pae
p105
tp106
(dp107
Vparts
p108
(lp109
Vpae
p110
asVhardware
p111
Vmodern PCs
p112
sVhardware-long
p113
VPCs with one or more processors supporting PAE
p114
ss(Vdescription
p115
tp116
(dp117
Vpart-long-up
p118
VThis kernel is not suitable for SMP (multi-processor,\u000amulti-core or hyper-threaded) systems.
p119
sVpart-long-xen
p120
VThis kernel also runs on a Xen hypervisor.\u000aIt supports both privileged (dom0) and unprivileged (domU) operation.
p121
ss(Vabi
p122
tp123
(dp124
Vabiname
p125
Vtowo.1
p126
ss(Vxen
p127
g14
g22
Vsiduction-amd64
p128
tp129
(dp130
Vflavours
p131
(lp132
Vsiduction-amd64
p133
ass(Vimage
p134
g14
tp135
(dp136
Vsuggests
p137
Vcrda
p138
sVinstall-stem
p139
Vvmlinuz
p140
sVbootloaders
p141
(lp142
Vgrub-pc
p143
aVextlinux
p144
aVgrub-efi-amd64
p145
asVconfigs
p146
(lp147
ss(Vbuild
p148
g14
tp149
(dp150
Vdebug-info
p151
I00
sVimage-file
p152
Varch/x86/boot/bzImage
p153
ss(Vdescription
p154
g14
NVsiduction-amd64
p155
tp156
(dp157
Vhardware
p158
V64-bit PCs
p159
sVhardware-long
p160
VPCs with AMD64 or Intel 64 processors
p161
ss(Vdescription
p162
g24
NVsiduction-686
p163
tp164
(dp165
Vhardware
p166
Vmodern PCs
p167
sVhardware-long
p168
VPCs with Intel Pentium Pro/II/III/4/4M/D/M, Xeon, Celeron, Core or Atom; AMD Geode LX/NX, Athlon (K7), Duron, Opteron, Sempron, Turion or Phenom; Transmeta Efficeon; VIA C3 "Nehemiah" or C7 processors
p169
ss(Vdescription
p170
g24
Vnone
p171
V686-pae
p172
tp173
(dp174
Vparts
p175
(lp176
Vxen
p177
ass(Vimage
p178
g14
NVsiduction-amd64
p179
tp180
(dp181
Vconfigs
p182
(lp183
Vkernelarch-x86/config-arch-64
p184
ass(Vimage
p185
g24
NVsiduction-686-pae
p186
tp187
(dp188
Vrecommends
p189
Vlibc6-i686
p190
sVconfigs
p191
(lp192
Vkernelarch-x86/config-arch-32
p193
aVkernelarch-x86/config-arch-32-pae
p194
ass(Vbuild
p195
g24
tp196
(dp197
Vdebug-info
p198
I00
sVimage-file
p199
Varch/x86/boot/bzImage
p200
ss(Vbase
p201
g24
g171
tp202
(dp203
Vflavours
p204
(lp205
Vsiduction-686
p206
aVsiduction-686-pae
p207
ass(Vdescription
p208
g14
g22
Vsiduction-amd64
p209
tp210
(dp211
Vparts
p212
(lp213
Vxen
p214
asstp215
Rp216
.