ccopy_reg
_reconstructor
p0
(cdebian_linux.config
ConfigCore
p1
c__builtin__
dict
p2
(dp3
(Vbuild
p4
Vi386
p5
tp6
(dp7
Vimage-file
p8
Varch/x86/boot/bzImage
p9
sVdebug-info
p10
I00
ss(Vbuild
p11
Vamd64
p12
tp13
(dp14
Vimage-file
p15
Varch/x86/boot/bzImage
p16
sVdebug-info
p17
I00
ss(Vdescription
p18
g5
NVsiduction-686
p19
tp20
(dp21
Vhardware-long
p22
VPCs with Intel Pentium Pro/II/III/4/4M/D/M, Xeon, Celeron, Core or Atom; AMD Geode LX/NX, Athlon (K7), Duron, Opteron, Sempron, Turion or Phenom; Transmeta Efficeon; VIA C3 "Nehemiah" or C7 processors
p23
sVhardware
p24
Vmodern PCs
p25
ss(Vdescription
p26
g12
Vnone
p27
Vsiduction-amd64
p28
tp29
(dp30
Vparts
p31
(lp32
Vxen
p33
ass(Vversion
p34
tp35
(dp36
Vsource
p37
V4.8-3
p38
sVabiname
p39
V4.8.1-towo.2
p40
sVabiname_base
p41
V4.8.1
p42
sVupstream
p43
V4.8
p44
ss(Vimage
p45
g5
tp46
(dp47
Vconfigs
p48
(lp49
sVsuggests
p50
Vcrda
p51
sVbootloaders
p52
(lp53
Vgrub-pc
p54
aVextlinux
p55
aVgrub-efi-ia32
p56
asVinstall-stem
p57
Vvmlinuz
p58
ss(Vabi
p59
tp60
(dp61
Vabiname
p62
Vtowo.2
p63
ss(Vbase
p64
g12
tp65
(dp66
Vfeaturesets
p67
(lp68
Vnone
p69
ag27
asVkernel-arch
p70
Vx86
p71
ss(Vdescription
p72
g5
tp73
(dp74
Vpart-long-pae
p75
VThis kernel requires PAE (Physical Address Extension)\u000aThis feature is supported by the Intel Pentium Pro/II/III/4/4M/D, Xeon,\u000aCore and Atom; AMD Geode NX, Athlon (K7), Duron, Opteron, Sempron,\u000aTurion or Phenom; Transmeta Efficeon; VIA C7; and some other processors.
p76
ss(Vbuild
p77
g5
NVsiduction-686-pae
p78
tp79
(dp80
Vdebug-info
p81
I00
ss(Vdescription
p82
g5
Vnone
p83
V686-pae
p84
tp85
(dp86
Vparts
p87
(lp88
Vxen
p89
ass(Vimage
p90
g5
NVsiduction-686-pae
p91
tp92
(dp93
Vconfigs
p94
(lp95
Vkernelarch-x86/config-arch-32
p96
aVkernelarch-x86/config-arch-32-pae
p97
asVrecommends
p98
Vlibc6-i686
p99
ss(Vbase
p100
g12
g27
tp101
(dp102
Vflavours
p103
(lp104
Vsiduction-amd64
p105
asVimplicit-flavour
p106
I01
ss(Vdescription
p107
g12
NVsiduction-amd64
p108
tp109
(dp110
Vhardware-long
p111
VPCs with AMD64 or Intel 64 processors
p112
sVhardware
p113
V64-bit PCs
p114
ss(Vdescription
p115
tp116
(dp117
Vpart-long-up
p118
VThis kernel is not suitable for SMP (multi-processor,\u000amulti-core or hyper-threaded) systems.
p119
sVpart-long-xen
p120
VThis kernel also runs on a Xen hypervisor.\u000aIt supports both privileged (dom0) and unprivileged (domU) operation.
p121
ss(Vrelations
p122
tp123
(dp124
Vinitramfs-tools
p125
Vinitramfs-tools (>= 0.110~)
p126
sVgcc-6
p127
Vgcc-6
p128
sVinitramfs-fallback
p129
Vlinux-initramfs-tool
p130
ss(Vbase
p131
tp132
(dp133
Vcompiler
p134
Vgcc-6
p135
sVfeaturesets
p136
(lp137
Vnone
p138
asVarches
p139
(lp140
Vamd64
p141
aVi386
p142
ass(Vimage
p143
g5
NVsiduction-686
p144
tp145
(dp146
Vconfigs
p147
(lp148
Vkernelarch-x86/config-arch-32
p149
asVrecommends
p150
Vlibc6-i686
p151
ss(Vimage
p152
g12
NVsiduction-amd64
p153
tp154
(dp155
Vconfigs
p156
(lp157
Vkernelarch-x86/config-arch-64
p158
ass(Vxen
p159
g12
g27
Vsiduction-amd64
p160
tp161
(dp162
Vflavours
p163
(lp164
Vsiduction-amd64
p165
ass(Vbase
p166
g5
g83
tp167
(dp168
Vflavours
p169
(lp170
Vsiduction-686
p171
aVsiduction-686-pae
p172
ass(Vdescription
p173
g5
NVsiduction-686-pae
p174
tp175
(dp176
Vparts
p177
(lp178
Vpae
p179
asVhardware-long
p180
VPCs with one or more processors supporting PAE
p181
sVhardware
p182
Vmodern PCs
p183
ss(Vimage
p184
g12
tp185
(dp186
Vconfigs
p187
(lp188
sVsuggests
p189
Vcrda
p190
sVbootloaders
p191
(lp192
Vgrub-pc
p193
aVextlinux
p194
aVgrub-efi-amd64
p195
asVinstall-stem
p196
Vvmlinuz
p197
ss(Vbase
p198
g5
tp199
(dp200
Vfeaturesets
p201
(lp202
Vnone
p203
asVkernel-arch
p204
Vx86
p205
ss(Vimage
p206
tp207
(dp208
Vtype
p209
Vplain
p210
sVinitramfs-generators
p211
(lp212
Vinitramfs-tools
p213
aVinitramfs-fallback
p214
asstp215
Rp216
.