ccopy_reg
_reconstructor
p0
(cdebian_linux.config
ConfigCore
p1
c__builtin__
dict
p2
(dp3
(Vdescription
p4
Vi386
p5
tp6
(dp7
Vpart-long-pae
p8
VThis kernel requires PAE (Physical Address Extension)\u000aThis feature is supported by the Intel Pentium Pro/II/III/4/4M/D, Xeon,\u000aCore and Atom; AMD Geode NX, Athlon (K7), Duron, Opteron, Sempron,\u000aTurion or Phenom; Transmeta Efficeon; VIA C7; and some other processors.
p9
ss(Vversion
p10
tp11
(dp12
Vsource
p13
V4.8-4
p14
sVabiname
p15
V4.8.2-towo.1
p16
sVabiname_base
p17
V4.8.2
p18
sVupstream
p19
V4.8
p20
ss(Vdescription
p21
Vamd64
p22
NVsiduction-amd64
p23
tp24
(dp25
Vhardware
p26
V64-bit PCs
p27
sVhardware-long
p28
VPCs with AMD64 or Intel 64 processors
p29
ss(Vbuild
p30
g22
tp31
(dp32
Vdebug-info
p33
I00
sVimage-file
p34
Varch/x86/boot/bzImage
p35
ss(Vimage
p36
g5
NVsiduction-686
p37
tp38
(dp39
Vrecommends
p40
Vlibc6-i686
p41
sVconfigs
p42
(lp43
Vkernelarch-x86/config-arch-32
p44
ass(Vimage
p45
tp46
(dp47
Vinitramfs-generators
p48
(lp49
Vinitramfs-tools
p50
aVinitramfs-fallback
p51
asVtype
p52
Vplain
p53
ss(Vabi
p54
tp55
(dp56
Vabiname
p57
Vtowo.1
p58
ss(Vbuild
p59
g5
NVsiduction-686-pae
p60
tp61
(dp62
Vdebug-info
p63
I00
ss(Vdescription
p64
tp65
(dp66
Vpart-long-up
p67
VThis kernel is not suitable for SMP (multi-processor,\u000amulti-core or hyper-threaded) systems.
p68
sVpart-long-xen
p69
VThis kernel also runs on a Xen hypervisor.\u000aIt supports both privileged (dom0) and unprivileged (domU) operation.
p70
ss(Vxen
p71
g22
Vnone
p72
Vsiduction-amd64
p73
tp74
(dp75
Vflavours
p76
(lp77
Vsiduction-amd64
p78
ass(Vimage
p79
g5
NVsiduction-686-pae
p80
tp81
(dp82
Vrecommends
p83
Vlibc6-i686
p84
sVconfigs
p85
(lp86
Vkernelarch-x86/config-arch-32
p87
aVkernelarch-x86/config-arch-32-pae
p88
ass(Vbase
p89
g5
tp90
(dp91
Vkernel-arch
p92
Vx86
p93
sVfeaturesets
p94
(lp95
Vnone
p96
ass(Vdescription
p97
g5
Vnone
p98
V686-pae
p99
tp100
(dp101
Vparts
p102
(lp103
Vxen
p104
ass(Vbase
p105
g22
tp106
(dp107
Vkernel-arch
p108
Vx86
p109
sVfeaturesets
p110
(lp111
Vnone
p112
ag72
ass(Vimage
p113
g5
tp114
(dp115
Vinstall-stem
p116
Vvmlinuz
p117
sVsuggests
p118
Vcrda
p119
sVconfigs
p120
(lp121
sVbootloaders
p122
(lp123
Vgrub-pc
p124
aVextlinux
p125
aVgrub-efi-ia32
p126
ass(Vimage
p127
g22
tp128
(dp129
Vinstall-stem
p130
Vvmlinuz
p131
sVsuggests
p132
Vcrda
p133
sVconfigs
p134
(lp135
sVbootloaders
p136
(lp137
Vgrub-pc
p138
aVextlinux
p139
aVgrub-efi-amd64
p140
ass(Vbase
p141
g22
g72
tp142
(dp143
Vflavours
p144
(lp145
Vsiduction-amd64
p146
asVimplicit-flavour
p147
I01
ss(Vdescription
p148
g5
NVsiduction-686-pae
p149
tp150
(dp151
Vhardware
p152
Vmodern PCs
p153
sVhardware-long
p154
VPCs with one or more processors supporting PAE
p155
sVparts
p156
(lp157
Vpae
p158
ass(Vbase
p159
tp160
(dp161
Varches
p162
(lp163
Vamd64
p164
aVi386
p165
asVcompiler
p166
Vgcc-6
p167
sVfeaturesets
p168
(lp169
Vnone
p170
ass(Vimage
p171
g22
NVsiduction-amd64
p172
tp173
(dp174
Vconfigs
p175
(lp176
Vkernelarch-x86/config-arch-64
p177
ass(Vbuild
p178
g5
tp179
(dp180
Vdebug-info
p181
I00
sVimage-file
p182
Varch/x86/boot/bzImage
p183
ss(Vbase
p184
g5
g98
tp185
(dp186
Vflavours
p187
(lp188
Vsiduction-686
p189
aVsiduction-686-pae
p190
ass(Vdescription
p191
g22
g72
Vsiduction-amd64
p192
tp193
(dp194
Vparts
p195
(lp196
Vxen
p197
ass(Vdescription
p198
g5
NVsiduction-686
p199
tp200
(dp201
Vhardware
p202
Vmodern PCs
p203
sVhardware-long
p204
VPCs with Intel Pentium Pro/II/III/4/4M/D/M, Xeon, Celeron, Core or Atom; AMD Geode LX/NX, Athlon (K7), Duron, Opteron, Sempron, Turion or Phenom; Transmeta Efficeon; VIA C3 "Nehemiah" or C7 processors
p205
ss(Vrelations
p206
tp207
(dp208
Vinitramfs-fallback
p209
Vlinux-initramfs-tool
p210
sVinitramfs-tools
p211
Vinitramfs-tools (>= 0.110~)
p212
sVgcc-6
p213
Vgcc-6
p214
sstp215
Rp216
.