ccopy_reg
_reconstructor
p0
(cdebian_linux.config
ConfigCore
p1
c__builtin__
dict
p2
(dp3
(Vimage
p4
Vi386
p5
tp6
(dp7
Vinstall-stem
p8
Vvmlinuz
p9
sVbootloaders
p10
(lp11
Vgrub-pc
p12
aVextlinux
p13
aVgrub-efi-ia32
p14
asVsuggests
p15
Vcrda
p16
sVconfigs
p17
(lp18
ss(Vimage
p19
g5
NVsiduction-686-pae
p20
tp21
(dp22
Vrecommends
p23
Vlibc6-i686
p24
sVconfigs
p25
(lp26
Vkernelarch-x86/config-arch-32
p27
aVkernelarch-x86/config-arch-32-pae
p28
ass(Vimage
p29
Vamd64
p30
NVsiduction-amd64
p31
tp32
(dp33
Vconfigs
p34
(lp35
Vkernelarch-x86/config-arch-64
p36
ass(Vbuild
p37
g5
tp38
(dp39
Vimage-file
p40
Varch/x86/boot/bzImage
p41
sVdebug-info
p42
I00
ss(Vdescription
p43
g30
NVsiduction-amd64
p44
tp45
(dp46
Vhardware
p47
V64-bit PCs
p48
sVhardware-long
p49
VPCs with AMD64 or Intel 64 processors
p50
ss(Vxen
p51
g30
Vnone
p52
Vsiduction-amd64
p53
tp54
(dp55
Vflavours
p56
(lp57
Vsiduction-amd64
p58
ass(Vbase
p59
g30
g52
tp60
(dp61
Vflavours
p62
(lp63
Vsiduction-amd64
p64
asVimplicit-flavour
p65
I01
ss(Vrelations
p66
tp67
(dp68
Vgcc-5
p69
Vgcc-5
p70
sVinitramfs-tools
p71
Vinitramfs-tools (>= 0.110~)
p72
sVinitramfs-fallback
p73
Vlinux-initramfs-tool
p74
ss(Vdescription
p75
g5
tp76
(dp77
Vpart-long-pae
p78
VThis kernel requires PAE (Physical Address Extension)\u000aThis feature is supported by the Intel Pentium Pro/II/III/4/4M/D, Xeon,\u000aCore and Atom; AMD Geode NX, Athlon (K7), Duron, Opteron, Sempron,\u000aTurion or Phenom; Transmeta Efficeon; VIA C7; and some other processors.
p79
ss(Vdescription
p80
g5
NVsiduction-686
p81
tp82
(dp83
Vhardware
p84
Vmodern PCs
p85
sVhardware-long
p86
VPCs with Intel Pentium Pro/II/III/4/4M/D/M, Xeon, Celeron, Core or Atom; AMD Geode LX/NX, Athlon (K7), Duron, Opteron, Sempron, Turion or Phenom; Transmeta Efficeon; VIA C3 "Nehemiah" or C7 processors
p87
ss(Vabi
p88
tp89
(dp90
Vabiname
p91
Vtowo.1
p92
ss(Vbase
p93
g5
Vnone
p94
tp95
(dp96
Vflavours
p97
(lp98
Vsiduction-686
p99
aVsiduction-686-pae
p100
ass(Vbase
p101
tp102
(dp103
Varches
p104
(lp105
Vamd64
p106
aVi386
p107
asVfeaturesets
p108
(lp109
Vnone
p110
asVcompiler
p111
Vgcc-5
p112
ss(Vdescription
p113
g30
g52
Vsiduction-amd64
p114
tp115
(dp116
Vparts
p117
(lp118
Vxen
p119
ass(Vdescription
p120
g5
NVsiduction-686-pae
p121
tp122
(dp123
Vparts
p124
(lp125
Vpae
p126
asVhardware
p127
Vmodern PCs
p128
sVhardware-long
p129
VPCs with one or more processors supporting PAE
p130
ss(Vdescription
p131
tp132
(dp133
Vpart-long-xen
p134
VThis kernel also runs on a Xen hypervisor.\u000aIt supports both privileged (dom0) and unprivileged (domU) operation.
p135
sVpart-long-up
p136
VThis kernel is not suitable for SMP (multi-processor,\u000amulti-core or hyper-threaded) systems.
p137
ss(Vimage
p138
g30
tp139
(dp140
Vinstall-stem
p141
Vvmlinuz
p142
sVbootloaders
p143
(lp144
Vgrub-pc
p145
aVextlinux
p146
aVgrub-efi-amd64
p147
asVsuggests
p148
Vcrda
p149
sVconfigs
p150
(lp151
ss(Vbuild
p152
g5
NVsiduction-686-pae
p153
tp154
(dp155
Vdebug-info
p156
I00
ss(Vversion
p157
tp158
(dp159
Vupstream
p160
V4.8
p161
sVsource
p162
V4.8-9
p163
sVabiname_base
p164
V4.8.4
p165
sVabiname
p166
V4.8.4-towo.1
p167
ss(Vimage
p168
tp169
(dp170
Vtype
p171
Vplain
p172
sVinitramfs-generators
p173
(lp174
Vinitramfs-tools
p175
aVinitramfs-fallback
p176
ass(Vbase
p177
g30
tp178
(dp179
Vfeaturesets
p180
(lp181
Vnone
p182
ag52
asVkernel-arch
p183
Vx86
p184
ss(Vdescription
p185
g5
g94
V686-pae
p186
tp187
(dp188
Vparts
p189
(lp190
Vxen
p191
ass(Vbuild
p192
g30
tp193
(dp194
Vimage-file
p195
Varch/x86/boot/bzImage
p196
sVdebug-info
p197
I00
ss(Vimage
p198
g5
NVsiduction-686
p199
tp200
(dp201
Vrecommends
p202
Vlibc6-i686
p203
sVconfigs
p204
(lp205
Vkernelarch-x86/config-arch-32
p206
ass(Vbase
p207
g5
tp208
(dp209
Vfeaturesets
p210
(lp211
Vnone
p212
asVkernel-arch
p213
Vx86
p214
sstp215
Rp216
.