ccopy_reg
_reconstructor
p0
(cdebian_linux.config
ConfigCore
p1
c__builtin__
dict
p2
(dp3
(Vrelations
p4
tp5
(dp6
Vgcc-6
p7
Vgcc-6
p8
sVinitramfs-tools
p9
Vinitramfs-tools (>= 0.110~)
p10
sVinitramfs-fallback
p11
Vlinux-initramfs-tool
p12
ss(Vimage
p13
Vi386
p14
NVsiduction-686
p15
tp16
(dp17
Vconfigs
p18
(lp19
Vkernelarch-x86/config-arch-32
p20
asVrecommends
p21
Vlibc6-i686
p22
ss(Vversion
p23
tp24
(dp25
Vsource
p26
V4.8-20
p27
sVupstream
p28
V4.8
p29
sVabiname_base
p30
V4.8.11
p31
sVabiname
p32
V4.8.11-towo.3
p33
ss(Vimage
p34
g14
NVsiduction-686-pae
p35
tp36
(dp37
Vconfigs
p38
(lp39
Vkernelarch-x86/config-arch-32
p40
aVkernelarch-x86/config-arch-32-pae
p41
asVrecommends
p42
Vlibc6-i686
p43
ss(Vbase
p44
g14
Vnone
p45
tp46
(dp47
Vflavours
p48
(lp49
Vsiduction-686
p50
aVsiduction-686-pae
p51
ass(Vdescription
p52
g14
NVsiduction-686
p53
tp54
(dp55
Vhardware
p56
Vmodern PCs
p57
sVhardware-long
p58
VPCs with Intel Pentium Pro/II/III/4/4M/D/M, Xeon, Celeron, Core or Atom; AMD Geode LX/NX, Athlon (K7), Duron, Opteron, Sempron, Turion or Phenom; Transmeta Efficeon; VIA C3 "Nehemiah" or C7 processors
p59
ss(Vbuild
p60
g14
NVsiduction-686-pae
p61
tp62
(dp63
Vdebug-info
p64
I00
ss(Vimage
p65
g14
tp66
(dp67
Vconfigs
p68
(lp69
sVinstall-stem
p70
Vvmlinuz
p71
sVbootloaders
p72
(lp73
Vgrub-pc
p74
aVextlinux
p75
aVgrub-efi-ia32
p76
asVsuggests
p77
Vcrda
p78
ss(Vdescription
p79
g14
NVsiduction-686-pae
p80
tp81
(dp82
Vhardware
p83
Vmodern PCs
p84
sVhardware-long
p85
VPCs with one or more processors supporting PAE
p86
sVparts
p87
(lp88
Vpae
p89
ass(Vbase
p90
Vamd64
p91
Vnone
p92
tp93
(dp94
Vflavours
p95
(lp96
Vsiduction-amd64
p97
asVimplicit-flavour
p98
I01
ss(Vimage
p99
g91
tp100
(dp101
Vconfigs
p102
(lp103
sVinstall-stem
p104
Vvmlinuz
p105
sVbootloaders
p106
(lp107
Vgrub-pc
p108
aVextlinux
p109
aVgrub-efi-amd64
p110
asVsuggests
p111
Vcrda
p112
ss(Vbase
p113
tp114
(dp115
Vfeaturesets
p116
(lp117
Vnone
p118
asVcompiler
p119
Vgcc-6
p120
sVarches
p121
(lp122
Vamd64
p123
aVi386
p124
ass(Vimage
p125
g91
NVsiduction-amd64
p126
tp127
(dp128
Vconfigs
p129
(lp130
Vkernelarch-x86/config-arch-64
p131
ass(Vbuild
p132
g14
tp133
(dp134
Vimage-file
p135
Varch/x86/boot/bzImage
p136
sVdebug-info
p137
I00
ss(Vxen
p138
g91
g92
Vsiduction-amd64
p139
tp140
(dp141
Vflavours
p142
(lp143
Vsiduction-amd64
p144
ass(Vimage
p145
tp146
(dp147
Vtype
p148
Vplain
p149
sVinitramfs-generators
p150
(lp151
Vinitramfs-tools
p152
aVinitramfs-fallback
p153
ass(Vdescription
p154
g91
NVsiduction-amd64
p155
tp156
(dp157
Vhardware
p158
V64-bit PCs
p159
sVhardware-long
p160
VPCs with AMD64 or Intel 64 processors
p161
ss(Vbuild
p162
g91
tp163
(dp164
Vimage-file
p165
Varch/x86/boot/bzImage
p166
sVdebug-info
p167
I00
ss(Vabi
p168
tp169
(dp170
Vabiname
p171
Vtowo.3
p172
ss(Vdescription
p173
g91
g92
Vsiduction-amd64
p174
tp175
(dp176
Vparts
p177
(lp178
Vxen
p179
ass(Vdescription
p180
tp181
(dp182
Vpart-long-up
p183
VThis kernel is not suitable for SMP (multi-processor,\u000amulti-core or hyper-threaded) systems.
p184
sVpart-long-xen
p185
VThis kernel also runs on a Xen hypervisor.\u000aIt supports both privileged (dom0) and unprivileged (domU) operation.
p186
ss(Vbase
p187
g91
tp188
(dp189
Vfeaturesets
p190
(lp191
Vnone
p192
ag92
asVkernel-arch
p193
Vx86
p194
ss(Vdescription
p195
g14
tp196
(dp197
Vpart-long-pae
p198
VThis kernel requires PAE (Physical Address Extension)\u000aThis feature is supported by the Intel Pentium Pro/II/III/4/4M/D, Xeon,\u000aCore and Atom; AMD Geode NX, Athlon (K7), Duron, Opteron, Sempron,\u000aTurion or Phenom; Transmeta Efficeon; VIA C7; and some other processors.
p199
ss(Vdescription
p200
g14
g45
V686-pae
p201
tp202
(dp203
Vparts
p204
(lp205
Vxen
p206
ass(Vbase
p207
g14
tp208
(dp209
Vfeaturesets
p210
(lp211
Vnone
p212
asVkernel-arch
p213
Vx86
p214
sstp215
Rp216
.