ccopy_reg
_reconstructor
p0
(cdebian_linux.config
ConfigCore
p1
c__builtin__
dict
p2
(dp3
(Vbase
p4
Vi386
p5
tp6
(dp7
Vfeaturesets
p8
(lp9
Vnone
p10
asVkernel-arch
p11
Vx86
p12
ss(Vdescription
p13
tp14
(dp15
Vpart-long-up
p16
VThis kernel is not suitable for SMP (multi-processor,\u000amulti-core or hyper-threaded) systems.
p17
sVpart-long-xen
p18
VThis kernel also runs on a Xen hypervisor.\u000aIt supports both privileged (dom0) and unprivileged (domU) operation.
p19
ss(Vbase
p20
Vamd64
p21
Vnone
p22
tp23
(dp24
Vimplicit-flavour
p25
I01
sVflavours
p26
(lp27
Vsiduction-amd64
p28
ass(Vimage
p29
g21
NVsiduction-amd64
p30
tp31
(dp32
Vconfigs
p33
(lp34
Vkernelarch-x86/config-arch-64
p35
ass(Vimage
p36
g5
NVsiduction-686
p37
tp38
(dp39
Vrecommends
p40
Vlibc6-i686
p41
sVconfigs
p42
(lp43
Vkernelarch-x86/config-arch-32
p44
ass(Vdescription
p45
g5
tp46
(dp47
Vpart-long-pae
p48
VThis kernel requires PAE (Physical Address Extension)\u000aThis feature is supported by the Intel Pentium Pro/II/III/4/4M/D, Xeon,\u000aCore and Atom; AMD Geode NX, Athlon (K7), Duron, Opteron, Sempron,\u000aTurion or Phenom; Transmeta Efficeon; VIA C7; and some other processors.
p49
ss(Vdescription
p50
g5
NVsiduction-686-pae
p51
tp52
(dp53
Vhardware-long
p54
VPCs with one or more processors supporting PAE
p55
sVparts
p56
(lp57
Vpae
p58
asVhardware
p59
Vmodern PCs
p60
ss(Vbuild
p61
g5
tp62
(dp63
Vdebug-info
p64
I00
sVimage-file
p65
Varch/x86/boot/bzImage
p66
ss(Vrelations
p67
tp68
(dp69
Vgcc-6
p70
Vgcc-6
p71
sVinitramfs-tools
p72
Vinitramfs-tools (>= 0.110~)
p73
sVinitramfs-fallback
p74
Vlinux-initramfs-tool
p75
ss(Vxen
p76
g21
g22
Vsiduction-amd64
p77
tp78
(dp79
Vflavours
p80
(lp81
Vsiduction-amd64
p82
ass(Vabi
p83
tp84
(dp85
Vabiname
p86
Vtowo.1
p87
ss(Vbase
p88
g5
Vnone
p89
tp90
(dp91
Vflavours
p92
(lp93
Vsiduction-686
p94
aVsiduction-686-pae
p95
ass(Vbase
p96
g21
tp97
(dp98
Vfeaturesets
p99
(lp100
Vnone
p101
ag22
asVkernel-arch
p102
Vx86
p103
ss(Vdescription
p104
g21
g22
Vsiduction-amd64
p105
tp106
(dp107
Vparts
p108
(lp109
Vxen
p110
ass(Vdescription
p111
g5
NVsiduction-686
p112
tp113
(dp114
Vhardware-long
p115
VPCs with Intel Pentium Pro/II/III/4/4M/D/M, Xeon, Celeron, Core or Atom; AMD Geode LX/NX, Athlon (K7), Duron, Opteron, Sempron, Turion or Phenom; Transmeta Efficeon; VIA C3 "Nehemiah" or C7 processors
p116
sVhardware
p117
Vmodern PCs
p118
ss(Vdescription
p119
g5
g89
V686-pae
p120
tp121
(dp122
Vparts
p123
(lp124
Vxen
p125
ass(Vbuild
p126
g21
tp127
(dp128
Vdebug-info
p129
I00
sVimage-file
p130
Varch/x86/boot/bzImage
p131
ss(Vbase
p132
tp133
(dp134
Vfeaturesets
p135
(lp136
Vnone
p137
asVcompiler
p138
Vgcc-6
p139
sVarches
p140
(lp141
Vamd64
p142
aVi386
p143
ass(Vbuild
p144
g5
NVsiduction-686-pae
p145
tp146
(dp147
Vdebug-info
p148
I00
ss(Vimage
p149
g5
NVsiduction-686-pae
p150
tp151
(dp152
Vrecommends
p153
Vlibc6-i686
p154
sVconfigs
p155
(lp156
Vkernelarch-x86/config-arch-32
p157
aVkernelarch-x86/config-arch-32-pae
p158
ass(Vimage
p159
tp160
(dp161
Vinitramfs-generators
p162
(lp163
Vinitramfs-tools
p164
aVinitramfs-fallback
p165
asVtype
p166
Vplain
p167
ss(Vversion
p168
tp169
(dp170
Vupstream
p171
V4.8
p172
sVabiname
p173
V4.8.13-towo.1
p174
sVabiname_base
p175
V4.8.13
p176
sVsource
p177
V4.8-23
p178
ss(Vimage
p179
g21
tp180
(dp181
Vbootloaders
p182
(lp183
Vgrub-pc
p184
aVextlinux
p185
aVgrub-efi-amd64
p186
asVsuggests
p187
Vcrda
p188
sVconfigs
p189
(lp190
sVinstall-stem
p191
Vvmlinuz
p192
ss(Vimage
p193
g5
tp194
(dp195
Vbootloaders
p196
(lp197
Vgrub-pc
p198
aVextlinux
p199
aVgrub-efi-ia32
p200
asVsuggests
p201
Vcrda
p202
sVconfigs
p203
(lp204
sVinstall-stem
p205
Vvmlinuz
p206
ss(Vdescription
p207
g21
NVsiduction-amd64
p208
tp209
(dp210
Vhardware-long
p211
VPCs with AMD64 or Intel 64 processors
p212
sVhardware
p213
V64-bit PCs
p214
sstp215
Rp216
.