ccopy_reg
_reconstructor
p0
(cdebian_linux.config
ConfigCore
p1
c__builtin__
dict
p2
(dp3
(Vdescription
p4
Vamd64
p5
NVsiduction-amd64
p6
tp7
(dp8
Vhardware
p9
V64-bit PCs
p10
sVhardware-long
p11
VPCs with AMD64 or Intel 64 processors
p12
ss(Vbuild
p13
g5
tp14
(dp15
Vimage-file
p16
Varch/x86/boot/bzImage
p17
sVdebug-info
p18
I00
ss(Vxen
p19
g5
Vnone
p20
Vsiduction-amd64
p21
tp22
(dp23
Vflavours
p24
(lp25
Vsiduction-amd64
p26
ass(Vrelations
p27
tp28
(dp29
Vinitramfs-fallback
p30
Vlinux-initramfs-tool
p31
sVgcc-6
p32
Vgcc-6
p33
sVinitramfs-tools
p34
Vinitramfs-tools (>= 0.110~)
p35
ss(Vabi
p36
tp37
(dp38
Vabiname
p39
Vtowo.1
p40
ss(Vdescription
p41
g5
g20
Vsiduction-amd64
p42
tp43
(dp44
Vparts
p45
(lp46
Vxen
p47
ass(Vimage
p48
Vi386
p49
NVsiduction-686
p50
tp51
(dp52
Vrecommends
p53
Vlibc6-i686
p54
sVconfigs
p55
(lp56
Vkernelarch-x86/config-arch-32
p57
ass(Vdescription
p58
tp59
(dp60
Vpart-long-up
p61
VThis kernel is not suitable for SMP (multi-processor,\u000amulti-core or hyper-threaded) systems.
p62
sVpart-long-xen
p63
VThis kernel also runs on a Xen hypervisor.\u000aIt supports both privileged (dom0) and unprivileged (domU) operation.
p64
ss(Vdescription
p65
g49
tp66
(dp67
Vpart-long-pae
p68
VThis kernel requires PAE (Physical Address Extension)\u000aThis feature is supported by the Intel Pentium Pro/II/III/4/4M/D, Xeon,\u000aCore and Atom; AMD Geode NX, Athlon (K7), Duron, Opteron, Sempron,\u000aTurion or Phenom; Transmeta Efficeon; VIA C7; and some other processors.
p69
ss(Vbuild
p70
g49
NVsiduction-686-pae
p71
tp72
(dp73
Vdebug-info
p74
I00
ss(Vimage
p75
g5
NVsiduction-amd64
p76
tp77
(dp78
Vconfigs
p79
(lp80
Vkernelarch-x86/config-arch-64
p81
ass(Vbase
p82
tp83
(dp84
Varches
p85
(lp86
Vamd64
p87
aVi386
p88
asVfeaturesets
p89
(lp90
Vnone
p91
asVcompiler
p92
Vgcc-6
p93
ss(Vimage
p94
tp95
(dp96
Vinitramfs-generators
p97
(lp98
Vinitramfs-tools
p99
aVinitramfs-fallback
p100
asVtype
p101
Vplain
p102
ss(Vbase
p103
g49
Vnone
p104
tp105
(dp106
Vflavours
p107
(lp108
Vsiduction-686
p109
aVsiduction-686-pae
p110
ass(Vimage
p111
g49
NVsiduction-686-pae
p112
tp113
(dp114
Vrecommends
p115
Vlibc6-i686
p116
sVconfigs
p117
(lp118
Vkernelarch-x86/config-arch-32
p119
aVkernelarch-x86/config-arch-32-pae
p120
ass(Vbase
p121
g5
tp122
(dp123
Vfeaturesets
p124
(lp125
Vnone
p126
ag20
asVkernel-arch
p127
Vx86
p128
ss(Vdescription
p129
g49
g104
V686-pae
p130
tp131
(dp132
Vparts
p133
(lp134
Vxen
p135
ass(Vbase
p136
g49
tp137
(dp138
Vfeaturesets
p139
(lp140
Vnone
p141
asVkernel-arch
p142
Vx86
p143
ss(Vimage
p144
g5
tp145
(dp146
Vsuggests
p147
Vcrda
p148
sVinstall-stem
p149
Vvmlinuz
p150
sVconfigs
p151
(lp152
sVbootloaders
p153
(lp154
Vgrub-pc
p155
aVextlinux
p156
aVgrub-efi-amd64
p157
ass(Vversion
p158
tp159
(dp160
Vsource
p161
V4.8-2
p162
sVabiname_base
p163
V4.8.1
p164
sVupstream
p165
V4.8
p166
sVabiname
p167
V4.8.1-towo.1
p168
ss(Vimage
p169
g49
tp170
(dp171
Vsuggests
p172
Vcrda
p173
sVinstall-stem
p174
Vvmlinuz
p175
sVconfigs
p176
(lp177
sVbootloaders
p178
(lp179
Vgrub-pc
p180
aVextlinux
p181
aVgrub-efi-ia32
p182
ass(Vbuild
p183
g49
tp184
(dp185
Vimage-file
p186
Varch/x86/boot/bzImage
p187
sVdebug-info
p188
I00
ss(Vdescription
p189
g49
NVsiduction-686-pae
p190
tp191
(dp192
Vhardware
p193
Vmodern PCs
p194
sVhardware-long
p195
VPCs with one or more processors supporting PAE
p196
sVparts
p197
(lp198
Vpae
p199
ass(Vbase
p200
g5
g20
tp201
(dp202
Vflavours
p203
(lp204
Vsiduction-amd64
p205
asVimplicit-flavour
p206
I01
ss(Vdescription
p207
g49
NVsiduction-686
p208
tp209
(dp210
Vhardware
p211
Vmodern PCs
p212
sVhardware-long
p213
VPCs with Intel Pentium Pro/II/III/4/4M/D/M, Xeon, Celeron, Core or Atom; AMD Geode LX/NX, Athlon (K7), Duron, Opteron, Sempron, Turion or Phenom; Transmeta Efficeon; VIA C3 "Nehemiah" or C7 processors
p214
sstp215
Rp216
.