ccopy_reg
_reconstructor
p0
(cdebian_linux.config
ConfigCore
p1
c__builtin__
dict
p2
(dp3
(Vdescription
p4
Vi386
p5
NVsiduction-686-pae
p6
tp7
(dp8
Vparts
p9
(lp10
Vpae
p11
asVhardware
p12
Vmodern PCs
p13
sVhardware-long
p14
VPCs with one or more processors supporting PAE
p15
ss(Vdescription
p16
tp17
(dp18
Vpart-long-xen
p19
VThis kernel also runs on a Xen hypervisor.\u000aIt supports both privileged (dom0) and unprivileged (domU) operation.
p20
sVpart-long-up
p21
VThis kernel is not suitable for SMP (multi-processor,\u000amulti-core or hyper-threaded) systems.
p22
ss(Vdescription
p23
g5
Vnone
p24
V686-pae
p25
tp26
(dp27
Vparts
p28
(lp29
Vxen
p30
ass(Vbuild
p31
g5
tp32
(dp33
Vimage-file
p34
Varch/x86/boot/bzImage
p35
sVdebug-info
p36
I00
ss(Vdescription
p37
g5
tp38
(dp39
Vpart-long-pae
p40
VThis kernel requires PAE (Physical Address Extension)\u000aThis feature is supported by the Intel Pentium Pro/II/III/4/4M/D, Xeon,\u000aCore and Atom; AMD Geode NX, Athlon (K7), Duron, Opteron, Sempron,\u000aTurion or Phenom; Transmeta Efficeon; VIA C7; and some other processors.
p41
ss(Vbase
p42
g5
tp43
(dp44
Vkernel-arch
p45
Vx86
p46
sVfeaturesets
p47
(lp48
Vnone
p49
ass(Vbase
p50
g5
g24
tp51
(dp52
Vflavours
p53
(lp54
Vsiduction-686
p55
aVsiduction-686-pae
p56
ass(Vbuild
p57
Vamd64
p58
tp59
(dp60
Vimage-file
p61
Varch/x86/boot/bzImage
p62
sVdebug-info
p63
I00
ss(Vimage
p64
tp65
(dp66
Vtype
p67
Vplain
p68
sVinitramfs-generators
p69
(lp70
Vinitramfs-tools
p71
aVinitramfs-fallback
p72
ass(Vbase
p73
tp74
(dp75
Varches
p76
(lp77
Vamd64
p78
aVi386
p79
asVfeaturesets
p80
(lp81
Vnone
p82
asVcompiler
p83
Vgcc-5
p84
ss(Vbase
p85
g58
Vnone
p86
tp87
(dp88
Vimplicit-flavour
p89
I01
sVflavours
p90
(lp91
Vsiduction-amd64
p92
ass(Vbuild
p93
g5
NVsiduction-686-pae
p94
tp95
(dp96
Vdebug-info
p97
I00
ss(Vimage
p98
g58
tp99
(dp100
Vinstall-stem
p101
Vvmlinuz
p102
sVsuggests
p103
Vcrda
p104
sVconfigs
p105
(lp106
sVbootloaders
p107
(lp108
Vgrub-pc
p109
aVextlinux
p110
aVgrub-efi-amd64
p111
ass(Vdescription
p112
g5
NVsiduction-686
p113
tp114
(dp115
Vhardware
p116
Vmodern PCs
p117
sVhardware-long
p118
VPCs with Intel Pentium Pro/II/III/4/4M/D/M, Xeon, Celeron, Core or Atom; AMD Geode LX/NX, Athlon (K7), Duron, Opteron, Sempron, Turion or Phenom; Transmeta Efficeon; VIA C3 "Nehemiah" or C7 processors
p119
ss(Vdescription
p120
g58
g86
Vsiduction-amd64
p121
tp122
(dp123
Vparts
p124
(lp125
Vxen
p126
ass(Vimage
p127
g58
NVsiduction-amd64
p128
tp129
(dp130
Vconfigs
p131
(lp132
Vkernelarch-x86/config-arch-64
p133
ass(Vbase
p134
g58
tp135
(dp136
Vkernel-arch
p137
Vx86
p138
sVfeaturesets
p139
(lp140
Vnone
p141
ag86
ass(Vversion
p142
tp143
(dp144
Vabiname_base
p145
V4.8.5
p146
sVsource
p147
V4.8-10
p148
sVabiname
p149
V4.8.5-towo.1
p150
sVupstream
p151
V4.8
p152
ss(Vimage
p153
g5
NVsiduction-686-pae
p154
tp155
(dp156
Vrecommends
p157
Vlibc6-i686
p158
sVconfigs
p159
(lp160
Vkernelarch-x86/config-arch-32
p161
aVkernelarch-x86/config-arch-32-pae
p162
ass(Vdescription
p163
g58
NVsiduction-amd64
p164
tp165
(dp166
Vhardware
p167
V64-bit PCs
p168
sVhardware-long
p169
VPCs with AMD64 or Intel 64 processors
p170
ss(Vxen
p171
g58
g86
Vsiduction-amd64
p172
tp173
(dp174
Vflavours
p175
(lp176
Vsiduction-amd64
p177
ass(Vimage
p178
g5
tp179
(dp180
Vinstall-stem
p181
Vvmlinuz
p182
sVsuggests
p183
Vcrda
p184
sVconfigs
p185
(lp186
sVbootloaders
p187
(lp188
Vgrub-pc
p189
aVextlinux
p190
aVgrub-efi-ia32
p191
ass(Vabi
p192
tp193
(dp194
Vabiname
p195
Vtowo.1
p196
ss(Vimage
p197
g5
NVsiduction-686
p198
tp199
(dp200
Vrecommends
p201
Vlibc6-i686
p202
sVconfigs
p203
(lp204
Vkernelarch-x86/config-arch-32
p205
ass(Vrelations
p206
tp207
(dp208
Vinitramfs-fallback
p209
Vlinux-initramfs-tool
p210
sVgcc-5
p211
Vgcc-5
p212
sVinitramfs-tools
p213
Vinitramfs-tools (>= 0.110~)
p214
sstp215
Rp216
.