ccopy_reg
_reconstructor
p0
(cdebian_linux.config
ConfigCore
p1
c__builtin__
dict
p2
(dp3
(Vversion
p4
tp5
(dp6
Vabiname
p7
V4.8.14-towo.1
p8
sVabiname_base
p9
V4.8.14
p10
sVsource
p11
V4.8-24
p12
sVupstream
p13
V4.8
p14
ss(Vrelations
p15
tp16
(dp17
Vgcc-6
p18
Vgcc-6
p19
sVinitramfs-tools
p20
Vinitramfs-tools (>= 0.110~)
p21
sVinitramfs-fallback
p22
Vlinux-initramfs-tool
p23
ss(Vdescription
p24
Vamd64
p25
NVsiduction-amd64
p26
tp27
(dp28
Vhardware-long
p29
VPCs with AMD64 or Intel 64 processors
p30
sVhardware
p31
V64-bit PCs
p32
ss(Vdescription
p33
tp34
(dp35
Vpart-long-up
p36
VThis kernel is not suitable for SMP (multi-processor,\u000amulti-core or hyper-threaded) systems.
p37
sVpart-long-xen
p38
VThis kernel also runs on a Xen hypervisor.\u000aIt supports both privileged (dom0) and unprivileged (domU) operation.
p39
ss(Vbase
p40
g25
tp41
(dp42
Vkernel-arch
p43
Vx86
p44
sVfeaturesets
p45
(lp46
Vnone
p47
aVnone
p48
ass(Vdescription
p49
g25
g48
Vsiduction-amd64
p50
tp51
(dp52
Vparts
p53
(lp54
Vxen
p55
ass(Vabi
p56
tp57
(dp58
Vabiname
p59
Vtowo.1
p60
ss(Vimage
p61
g25
NVsiduction-amd64
p62
tp63
(dp64
Vconfigs
p65
(lp66
Vkernelarch-x86/config-arch-64
p67
ass(Vbuild
p68
Vi386
p69
tp70
(dp71
Vdebug-info
p72
I00
sVimage-file
p73
Varch/x86/boot/bzImage
p74
ss(Vbase
p75
g69
tp76
(dp77
Vkernel-arch
p78
Vx86
p79
sVfeaturesets
p80
(lp81
Vnone
p82
ass(Vimage
p83
tp84
(dp85
Vtype
p86
Vplain
p87
sVinitramfs-generators
p88
(lp89
Vinitramfs-tools
p90
aVinitramfs-fallback
p91
ass(Vdescription
p92
g69
NVsiduction-686-pae
p93
tp94
(dp95
Vparts
p96
(lp97
Vpae
p98
asVhardware-long
p99
VPCs with one or more processors supporting PAE
p100
sVhardware
p101
Vmodern PCs
p102
ss(Vbuild
p103
g69
NVsiduction-686-pae
p104
tp105
(dp106
Vdebug-info
p107
I00
ss(Vdescription
p108
g69
NVsiduction-686
p109
tp110
(dp111
Vhardware-long
p112
VPCs with Intel Pentium Pro/II/III/4/4M/D/M, Xeon, Celeron, Core or Atom; AMD Geode LX/NX, Athlon (K7), Duron, Opteron, Sempron, Turion or Phenom; Transmeta Efficeon; VIA C3 "Nehemiah" or C7 processors
p113
sVhardware
p114
Vmodern PCs
p115
ss(Vbuild
p116
g25
tp117
(dp118
Vdebug-info
p119
I00
sVimage-file
p120
Varch/x86/boot/bzImage
p121
ss(Vimage
p122
g69
NVsiduction-686-pae
p123
tp124
(dp125
Vconfigs
p126
(lp127
Vkernelarch-x86/config-arch-32
p128
aVkernelarch-x86/config-arch-32-pae
p129
asVrecommends
p130
Vlibc6-i686
p131
ss(Vbase
p132
g25
g48
tp133
(dp134
Vflavours
p135
(lp136
Vsiduction-amd64
p137
asVimplicit-flavour
p138
I01
ss(Vbase
p139
tp140
(dp141
Vcompiler
p142
Vgcc-6
p143
sVarches
p144
(lp145
Vamd64
p146
aVi386
p147
asVfeaturesets
p148
(lp149
Vnone
p150
ass(Vimage
p151
g69
NVsiduction-686
p152
tp153
(dp154
Vconfigs
p155
(lp156
Vkernelarch-x86/config-arch-32
p157
asVrecommends
p158
Vlibc6-i686
p159
ss(Vimage
p160
g69
tp161
(dp162
Vsuggests
p163
Vcrda
p164
sVconfigs
p165
(lp166
sVbootloaders
p167
(lp168
Vgrub-pc
p169
aVextlinux
p170
aVgrub-efi-ia32
p171
asVinstall-stem
p172
Vvmlinuz
p173
ss(Vdescription
p174
g69
tp175
(dp176
Vpart-long-pae
p177
VThis kernel requires PAE (Physical Address Extension)\u000aThis feature is supported by the Intel Pentium Pro/II/III/4/4M/D, Xeon,\u000aCore and Atom; AMD Geode NX, Athlon (K7), Duron, Opteron, Sempron,\u000aTurion or Phenom; Transmeta Efficeon; VIA C7; and some other processors.
p178
ss(Vbase
p179
g69
Vnone
p180
tp181
(dp182
Vflavours
p183
(lp184
Vsiduction-686
p185
aVsiduction-686-pae
p186
ass(Vxen
p187
g25
g48
Vsiduction-amd64
p188
tp189
(dp190
Vflavours
p191
(lp192
Vsiduction-amd64
p193
ass(Vimage
p194
g25
tp195
(dp196
Vsuggests
p197
Vcrda
p198
sVconfigs
p199
(lp200
sVbootloaders
p201
(lp202
Vgrub-pc
p203
aVextlinux
p204
aVgrub-efi-amd64
p205
asVinstall-stem
p206
Vvmlinuz
p207
ss(Vdescription
p208
g69
g180
V686-pae
p209
tp210
(dp211
Vparts
p212
(lp213
Vxen
p214
asstp215
Rp216
.