ccopy_reg
_reconstructor
p0
(cdebian_linux.config
ConfigCore
p1
c__builtin__
dict
p2
(dp3
(Vimage
p4
Vi386
p5
NVsiduction-686
p6
tp7
(dp8
Vrecommends
p9
Vlibc6-i686
p10
sVconfigs
p11
(lp12
Vkernelarch-x86/config-arch-32
p13
ass(Vbase
p14
g5
Vnone
p15
tp16
(dp17
Vflavours
p18
(lp19
Vsiduction-686
p20
aVsiduction-686-pae
p21
ass(Vxen
p22
Vamd64
p23
Vnone
p24
Vsiduction-amd64
p25
tp26
(dp27
Vflavours
p28
(lp29
Vsiduction-amd64
p30
ass(Vbase
p31
g23
tp32
(dp33
Vfeaturesets
p34
(lp35
Vnone
p36
ag24
asVkernel-arch
p37
Vx86
p38
ss(Vimage
p39
g23
NVsiduction-amd64
p40
tp41
(dp42
Vconfigs
p43
(lp44
Vkernelarch-x86/config-arch-64
p45
ass(Vimage
p46
g5
tp47
(dp48
Vsuggests
p49
Vcrda
p50
sVbootloaders
p51
(lp52
Vgrub-pc
p53
aVextlinux
p54
aVgrub-efi-ia32
p55
asVinstall-stem
p56
Vvmlinuz
p57
sVconfigs
p58
(lp59
ss(Vbase
p60
g5
tp61
(dp62
Vfeaturesets
p63
(lp64
Vnone
p65
asVkernel-arch
p66
Vx86
p67
ss(Vabi
p68
tp69
(dp70
Vabiname
p71
Vtowo.2
p72
ss(Vdescription
p73
tp74
(dp75
Vpart-long-up
p76
VThis kernel is not suitable for SMP (multi-processor,\u000amulti-core or hyper-threaded) systems.
p77
sVpart-long-xen
p78
VThis kernel also runs on a Xen hypervisor.\u000aIt supports both privileged (dom0) and unprivileged (domU) operation.
p79
ss(Vdescription
p80
g23
NVsiduction-amd64
p81
tp82
(dp83
Vhardware-long
p84
VPCs with AMD64 or Intel 64 processors
p85
sVhardware
p86
V64-bit PCs
p87
ss(Vimage
p88
g5
NVsiduction-686-pae
p89
tp90
(dp91
Vrecommends
p92
Vlibc6-i686
p93
sVconfigs
p94
(lp95
Vkernelarch-x86/config-arch-32
p96
aVkernelarch-x86/config-arch-32-pae
p97
ass(Vimage
p98
tp99
(dp100
Vinitramfs-generators
p101
(lp102
Vinitramfs-tools
p103
aVinitramfs-fallback
p104
asVtype
p105
Vplain
p106
ss(Vdescription
p107
g23
g24
Vsiduction-amd64
p108
tp109
(dp110
Vparts
p111
(lp112
Vxen
p113
ass(Vimage
p114
g23
tp115
(dp116
Vsuggests
p117
Vcrda
p118
sVbootloaders
p119
(lp120
Vgrub-pc
p121
aVextlinux
p122
aVgrub-efi-amd64
p123
asVinstall-stem
p124
Vvmlinuz
p125
sVconfigs
p126
(lp127
ss(Vbuild
p128
g5
NVsiduction-686-pae
p129
tp130
(dp131
Vdebug-info
p132
I00
ss(Vdescription
p133
g5
tp134
(dp135
Vpart-long-pae
p136
VThis kernel requires PAE (Physical Address Extension)\u000aThis feature is supported by the Intel Pentium Pro/II/III/4/4M/D, Xeon,\u000aCore and Atom; AMD Geode NX, Athlon (K7), Duron, Opteron, Sempron,\u000aTurion or Phenom; Transmeta Efficeon; VIA C7; and some other processors.
p137
ss(Vbase
p138
tp139
(dp140
Varches
p141
(lp142
Vamd64
p143
aVi386
p144
asVcompiler
p145
Vgcc-6
p146
sVfeaturesets
p147
(lp148
Vnone
p149
ass(Vbuild
p150
g5
tp151
(dp152
Vdebug-info
p153
I00
sVimage-file
p154
Varch/x86/boot/bzImage
p155
ss(Vdescription
p156
g5
g15
V686-pae
p157
tp158
(dp159
Vparts
p160
(lp161
Vxen
p162
ass(Vdescription
p163
g5
NVsiduction-686
p164
tp165
(dp166
Vhardware-long
p167
VPCs with Intel Pentium Pro/II/III/4/4M/D/M, Xeon, Celeron, Core or Atom; AMD Geode LX/NX, Athlon (K7), Duron, Opteron, Sempron, Turion or Phenom; Transmeta Efficeon; VIA C3 "Nehemiah" or C7 processors
p168
sVhardware
p169
Vmodern PCs
p170
ss(Vbuild
p171
g23
tp172
(dp173
Vdebug-info
p174
I00
sVimage-file
p175
Varch/x86/boot/bzImage
p176
ss(Vdescription
p177
g5
NVsiduction-686-pae
p178
tp179
(dp180
Vparts
p181
(lp182
Vpae
p183
asVhardware-long
p184
VPCs with one or more processors supporting PAE
p185
sVhardware
p186
Vmodern PCs
p187
ss(Vrelations
p188
tp189
(dp190
Vinitramfs-fallback
p191
Vlinux-initramfs-tool
p192
sVinitramfs-tools
p193
Vinitramfs-tools (>= 0.110~)
p194
sVgcc-6
p195
Vgcc-6
p196
ss(Vbase
p197
g23
g24
tp198
(dp199
Vflavours
p200
(lp201
Vsiduction-amd64
p202
asVimplicit-flavour
p203
I01
ss(Vversion
p204
tp205
(dp206
Vupstream
p207
V4.8
p208
sVabiname_base
p209
V4.8.5
p210
sVabiname
p211
V4.8.5-towo.2
p212
sVsource
p213
V4.8-11
p214
sstp215
Rp216
.