ccopy_reg
_reconstructor
p0
(cdebian_linux.config
ConfigCore
p1
c__builtin__
dict
p2
(dp3
(Vbase
p4
Vamd64
p5
tp6
(dp7
Vkernel-arch
p8
Vx86
p9
sVfeaturesets
p10
(lp11
Vnone
p12
aVnone
p13
ass(Vabi
p14
tp15
(dp16
Vabiname
p17
Vtowo.1
p18
ss(Vversion
p19
tp20
(dp21
Vsource
p22
V4.8-21
p23
sVabiname_base
p24
V4.8.12
p25
sVupstream
p26
V4.8
p27
sVabiname
p28
V4.8.12-towo.1
p29
ss(Vdescription
p30
tp31
(dp32
Vpart-long-up
p33
VThis kernel is not suitable for SMP (multi-processor,\u000amulti-core or hyper-threaded) systems.
p34
sVpart-long-xen
p35
VThis kernel also runs on a Xen hypervisor.\u000aIt supports both privileged (dom0) and unprivileged (domU) operation.
p36
ss(Vimage
p37
Vi386
p38
tp39
(dp40
Vinstall-stem
p41
Vvmlinuz
p42
sVbootloaders
p43
(lp44
Vgrub-pc
p45
aVextlinux
p46
aVgrub-efi-ia32
p47
asVsuggests
p48
Vcrda
p49
sVconfigs
p50
(lp51
ss(Vdescription
p52
g38
NVsiduction-686-pae
p53
tp54
(dp55
Vhardware-long
p56
VPCs with one or more processors supporting PAE
p57
sVhardware
p58
Vmodern PCs
p59
sVparts
p60
(lp61
Vpae
p62
ass(Vdescription
p63
g38
Vnone
p64
V686-pae
p65
tp66
(dp67
Vparts
p68
(lp69
Vxen
p70
ass(Vimage
p71
g5
tp72
(dp73
Vinstall-stem
p74
Vvmlinuz
p75
sVbootloaders
p76
(lp77
Vgrub-pc
p78
aVextlinux
p79
aVgrub-efi-amd64
p80
asVsuggests
p81
Vcrda
p82
sVconfigs
p83
(lp84
ss(Vimage
p85
tp86
(dp87
Vinitramfs-generators
p88
(lp89
Vinitramfs-tools
p90
aVinitramfs-fallback
p91
asVtype
p92
Vplain
p93
ss(Vdescription
p94
g5
NVsiduction-amd64
p95
tp96
(dp97
Vhardware-long
p98
VPCs with AMD64 or Intel 64 processors
p99
sVhardware
p100
V64-bit PCs
p101
ss(Vbase
p102
g38
tp103
(dp104
Vkernel-arch
p105
Vx86
p106
sVfeaturesets
p107
(lp108
Vnone
p109
ass(Vbase
p110
tp111
(dp112
Varches
p113
(lp114
Vamd64
p115
aVi386
p116
asVfeaturesets
p117
(lp118
Vnone
p119
asVcompiler
p120
Vgcc-6
p121
ss(Vdescription
p122
g38
NVsiduction-686
p123
tp124
(dp125
Vhardware-long
p126
VPCs with Intel Pentium Pro/II/III/4/4M/D/M, Xeon, Celeron, Core or Atom; AMD Geode LX/NX, Athlon (K7), Duron, Opteron, Sempron, Turion or Phenom; Transmeta Efficeon; VIA C3 "Nehemiah" or C7 processors
p127
sVhardware
p128
Vmodern PCs
p129
ss(Vrelations
p130
tp131
(dp132
Vgcc-6
p133
Vgcc-6
p134
sVinitramfs-tools
p135
Vinitramfs-tools (>= 0.110~)
p136
sVinitramfs-fallback
p137
Vlinux-initramfs-tool
p138
ss(Vimage
p139
g38
NVsiduction-686-pae
p140
tp141
(dp142
Vrecommends
p143
Vlibc6-i686
p144
sVconfigs
p145
(lp146
Vkernelarch-x86/config-arch-32
p147
aVkernelarch-x86/config-arch-32-pae
p148
ass(Vdescription
p149
g5
g13
Vsiduction-amd64
p150
tp151
(dp152
Vparts
p153
(lp154
Vxen
p155
ass(Vbuild
p156
g38
NVsiduction-686-pae
p157
tp158
(dp159
Vdebug-info
p160
I00
ss(Vxen
p161
g5
g13
Vsiduction-amd64
p162
tp163
(dp164
Vflavours
p165
(lp166
Vsiduction-amd64
p167
ass(Vbase
p168
g38
g64
tp169
(dp170
Vflavours
p171
(lp172
Vsiduction-686
p173
aVsiduction-686-pae
p174
ass(Vdescription
p175
g38
tp176
(dp177
Vpart-long-pae
p178
VThis kernel requires PAE (Physical Address Extension)\u000aThis feature is supported by the Intel Pentium Pro/II/III/4/4M/D, Xeon,\u000aCore and Atom; AMD Geode NX, Athlon (K7), Duron, Opteron, Sempron,\u000aTurion or Phenom; Transmeta Efficeon; VIA C7; and some other processors.
p179
ss(Vbuild
p180
g38
tp181
(dp182
Vimage-file
p183
Varch/x86/boot/bzImage
p184
sVdebug-info
p185
I00
ss(Vbuild
p186
g5
tp187
(dp188
Vimage-file
p189
Varch/x86/boot/bzImage
p190
sVdebug-info
p191
I00
ss(Vimage
p192
g5
NVsiduction-amd64
p193
tp194
(dp195
Vconfigs
p196
(lp197
Vkernelarch-x86/config-arch-64
p198
ass(Vbase
p199
g5
g13
tp200
(dp201
Vflavours
p202
(lp203
Vsiduction-amd64
p204
asVimplicit-flavour
p205
I01
ss(Vimage
p206
g38
NVsiduction-686
p207
tp208
(dp209
Vrecommends
p210
Vlibc6-i686
p211
sVconfigs
p212
(lp213
Vkernelarch-x86/config-arch-32
p214
asstp215
Rp216
.