ccopy_reg
_reconstructor
p0
(cdebian_linux.config
ConfigCore
p1
c__builtin__
dict
p2
(dp3
(Vdescription
p4
Vamd64
p5
Vnone
p6
Vsiduction-amd64
p7
tp8
(dp9
Vparts
p10
(lp11
Vxen
p12
ass(Vabi
p13
tp14
(dp15
Vabiname
p16
Vtowo.1
p17
ss(Vbase
p18
Vi386
p19
tp20
(dp21
Vkernel-arch
p22
Vx86
p23
sVfeaturesets
p24
(lp25
Vnone
p26
ass(Vbase
p27
g5
g6
tp28
(dp29
Vflavours
p30
(lp31
Vsiduction-amd64
p32
asVimplicit-flavour
p33
I01
ss(Vimage
p34
g19
tp35
(dp36
Vconfigs
p37
(lp38
sVsuggests
p39
Vcrda
p40
sVinstall-stem
p41
Vvmlinuz
p42
sVbootloaders
p43
(lp44
Vgrub-pc
p45
aVextlinux
p46
aVgrub-efi-ia32
p47
ass(Vrelations
p48
tp49
(dp50
Vinitramfs-tools
p51
Vinitramfs-tools (>= 0.110~)
p52
sVgcc-5
p53
Vgcc-5
p54
sVinitramfs-fallback
p55
Vlinux-initramfs-tool
p56
ss(Vimage
p57
tp58
(dp59
Vtype
p60
Vplain
p61
sVinitramfs-generators
p62
(lp63
Vinitramfs-tools
p64
aVinitramfs-fallback
p65
ass(Vdescription
p66
g19
NVsiduction-686
p67
tp68
(dp69
Vhardware-long
p70
VPCs with Intel Pentium Pro/II/III/4/4M/D/M, Xeon, Celeron, Core or Atom; AMD Geode LX/NX, Athlon (K7), Duron, Opteron, Sempron, Turion or Phenom; Transmeta Efficeon; VIA C3 "Nehemiah" or C7 processors
p71
sVhardware
p72
Vmodern PCs
p73
ss(Vbuild
p74
g19
NVsiduction-686-pae
p75
tp76
(dp77
Vdebug-info
p78
I00
ss(Vxen
p79
g5
g6
Vsiduction-amd64
p80
tp81
(dp82
Vflavours
p83
(lp84
Vsiduction-amd64
p85
ass(Vimage
p86
g5
NVsiduction-amd64
p87
tp88
(dp89
Vconfigs
p90
(lp91
Vkernelarch-x86/config-arch-64
p92
ass(Vdescription
p93
tp94
(dp95
Vpart-long-xen
p96
VThis kernel also runs on a Xen hypervisor.\u000aIt supports both privileged (dom0) and unprivileged (domU) operation.
p97
sVpart-long-up
p98
VThis kernel is not suitable for SMP (multi-processor,\u000amulti-core or hyper-threaded) systems.
p99
ss(Vbase
p100
tp101
(dp102
Vcompiler
p103
Vgcc-5
p104
sVarches
p105
(lp106
Vamd64
p107
aVi386
p108
asVfeaturesets
p109
(lp110
Vnone
p111
ass(Vversion
p112
tp113
(dp114
Vabiname
p115
V4.8.3-towo.1
p116
sVabiname_base
p117
V4.8.3
p118
sVupstream
p119
V4.8
p120
sVsource
p121
V4.8-6
p122
ss(Vimage
p123
g19
NVsiduction-686-pae
p124
tp125
(dp126
Vrecommends
p127
Vlibc6-i686
p128
sVconfigs
p129
(lp130
Vkernelarch-x86/config-arch-32
p131
aVkernelarch-x86/config-arch-32-pae
p132
ass(Vimage
p133
g5
tp134
(dp135
Vconfigs
p136
(lp137
sVsuggests
p138
Vcrda
p139
sVinstall-stem
p140
Vvmlinuz
p141
sVbootloaders
p142
(lp143
Vgrub-pc
p144
aVextlinux
p145
aVgrub-efi-amd64
p146
ass(Vbase
p147
g19
Vnone
p148
tp149
(dp150
Vflavours
p151
(lp152
Vsiduction-686
p153
aVsiduction-686-pae
p154
ass(Vdescription
p155
g19
g148
V686-pae
p156
tp157
(dp158
Vparts
p159
(lp160
Vxen
p161
ass(Vbase
p162
g5
tp163
(dp164
Vkernel-arch
p165
Vx86
p166
sVfeaturesets
p167
(lp168
Vnone
p169
ag6
ass(Vbuild
p170
g5
tp171
(dp172
Vdebug-info
p173
I00
sVimage-file
p174
Varch/x86/boot/bzImage
p175
ss(Vdescription
p176
g5
NVsiduction-amd64
p177
tp178
(dp179
Vhardware-long
p180
VPCs with AMD64 or Intel 64 processors
p181
sVhardware
p182
V64-bit PCs
p183
ss(Vdescription
p184
g19
NVsiduction-686-pae
p185
tp186
(dp187
Vhardware-long
p188
VPCs with one or more processors supporting PAE
p189
sVparts
p190
(lp191
Vpae
p192
asVhardware
p193
Vmodern PCs
p194
ss(Vimage
p195
g19
NVsiduction-686
p196
tp197
(dp198
Vrecommends
p199
Vlibc6-i686
p200
sVconfigs
p201
(lp202
Vkernelarch-x86/config-arch-32
p203
ass(Vdescription
p204
g19
tp205
(dp206
Vpart-long-pae
p207
VThis kernel requires PAE (Physical Address Extension)\u000aThis feature is supported by the Intel Pentium Pro/II/III/4/4M/D, Xeon,\u000aCore and Atom; AMD Geode NX, Athlon (K7), Duron, Opteron, Sempron,\u000aTurion or Phenom; Transmeta Efficeon; VIA C7; and some other processors.
p208
ss(Vbuild
p209
g19
tp210
(dp211
Vdebug-info
p212
I00
sVimage-file
p213
Varch/x86/boot/bzImage
p214
sstp215
Rp216
.