ccopy_reg
_reconstructor
p0
(cdebian_linux.config
ConfigCore
p1
c__builtin__
dict
p2
(dp3
(Vrelations
p4
tp5
(dp6
Vinitramfs-fallback
p7
Vlinux-initramfs-tool
p8
sVgcc-6
p9
Vgcc-6
p10
sVinitramfs-tools
p11
Vinitramfs-tools (>= 0.110~)
p12
ss(Vbuild
p13
Vamd64
p14
tp15
(dp16
Vdebug-info
p17
I00
sVimage-file
p18
Varch/x86/boot/bzImage
p19
ss(Vbase
p20
g14
tp21
(dp22
Vkernel-arch
p23
Vx86
p24
sVfeaturesets
p25
(lp26
Vnone
p27
aVnone
p28
ass(Vimage
p29
g14
NVsiduction-amd64
p30
tp31
(dp32
Vconfigs
p33
(lp34
Vkernelarch-x86/config-arch-64
p35
ass(Vdescription
p36
Vi386
p37
NVsiduction-686
p38
tp39
(dp40
Vhardware-long
p41
VPCs with Intel Pentium Pro/II/III/4/4M/D/M, Xeon, Celeron, Core or Atom; AMD Geode LX/NX, Athlon (K7), Duron, Opteron, Sempron, Turion or Phenom; Transmeta Efficeon; VIA C3 "Nehemiah" or C7 processors
p42
sVhardware
p43
Vmodern PCs
p44
ss(Vdescription
p45
g14
NVsiduction-amd64
p46
tp47
(dp48
Vhardware-long
p49
VPCs with AMD64 or Intel 64 processors
p50
sVhardware
p51
V64-bit PCs
p52
ss(Vxen
p53
g14
g28
Vsiduction-amd64
p54
tp55
(dp56
Vflavours
p57
(lp58
Vsiduction-amd64
p59
ass(Vbuild
p60
g37
NVsiduction-686-pae
p61
tp62
(dp63
Vdebug-info
p64
I00
ss(Vbase
p65
g37
tp66
(dp67
Vkernel-arch
p68
Vx86
p69
sVfeaturesets
p70
(lp71
Vnone
p72
ass(Vbase
p73
g37
Vnone
p74
tp75
(dp76
Vflavours
p77
(lp78
Vsiduction-686
p79
aVsiduction-686-pae
p80
ass(Vdescription
p81
g14
g28
Vsiduction-amd64
p82
tp83
(dp84
Vparts
p85
(lp86
Vxen
p87
ass(Vabi
p88
tp89
(dp90
Vabiname
p91
Vtowo.3
p92
ss(Vdescription
p93
g37
NVsiduction-686-pae
p94
tp95
(dp96
Vhardware-long
p97
VPCs with one or more processors supporting PAE
p98
sVparts
p99
(lp100
Vpae
p101
asVhardware
p102
Vmodern PCs
p103
ss(Vversion
p104
tp105
(dp106
Vsource
p107
V4.8-12
p108
sVabiname
p109
V4.8.5-towo.3
p110
sVabiname_base
p111
V4.8.5
p112
sVupstream
p113
V4.8
p114
ss(Vimage
p115
g37
NVsiduction-686-pae
p116
tp117
(dp118
Vconfigs
p119
(lp120
Vkernelarch-x86/config-arch-32
p121
aVkernelarch-x86/config-arch-32-pae
p122
asVrecommends
p123
Vlibc6-i686
p124
ss(Vimage
p125
g14
tp126
(dp127
Vsuggests
p128
Vcrda
p129
sVbootloaders
p130
(lp131
Vgrub-pc
p132
aVextlinux
p133
aVgrub-efi-amd64
p134
asVinstall-stem
p135
Vvmlinuz
p136
sVconfigs
p137
(lp138
ss(Vimage
p139
g37
NVsiduction-686
p140
tp141
(dp142
Vconfigs
p143
(lp144
Vkernelarch-x86/config-arch-32
p145
asVrecommends
p146
Vlibc6-i686
p147
ss(Vbase
p148
g14
g28
tp149
(dp150
Vflavours
p151
(lp152
Vsiduction-amd64
p153
asVimplicit-flavour
p154
I01
ss(Vbuild
p155
g37
tp156
(dp157
Vdebug-info
p158
I00
sVimage-file
p159
Varch/x86/boot/bzImage
p160
ss(Vimage
p161
tp162
(dp163
Vtype
p164
Vplain
p165
sVinitramfs-generators
p166
(lp167
Vinitramfs-tools
p168
aVinitramfs-fallback
p169
ass(Vdescription
p170
g37
g74
V686-pae
p171
tp172
(dp173
Vparts
p174
(lp175
Vxen
p176
ass(Vbase
p177
tp178
(dp179
Varches
p180
(lp181
Vamd64
p182
aVi386
p183
asVcompiler
p184
Vgcc-6
p185
sVfeaturesets
p186
(lp187
Vnone
p188
ass(Vimage
p189
g37
tp190
(dp191
Vsuggests
p192
Vcrda
p193
sVbootloaders
p194
(lp195
Vgrub-pc
p196
aVextlinux
p197
aVgrub-efi-ia32
p198
asVinstall-stem
p199
Vvmlinuz
p200
sVconfigs
p201
(lp202
ss(Vdescription
p203
g37
tp204
(dp205
Vpart-long-pae
p206
VThis kernel requires PAE (Physical Address Extension)\u000aThis feature is supported by the Intel Pentium Pro/II/III/4/4M/D, Xeon,\u000aCore and Atom; AMD Geode NX, Athlon (K7), Duron, Opteron, Sempron,\u000aTurion or Phenom; Transmeta Efficeon; VIA C7; and some other processors.
p207
ss(Vdescription
p208
tp209
(dp210
Vpart-long-up
p211
VThis kernel is not suitable for SMP (multi-processor,\u000amulti-core or hyper-threaded) systems.
p212
sVpart-long-xen
p213
VThis kernel also runs on a Xen hypervisor.\u000aIt supports both privileged (dom0) and unprivileged (domU) operation.
p214
sstp215
Rp216
.