ccopy_reg
_reconstructor
p0
(cdebian_linux.config
ConfigCore
p1
c__builtin__
dict
p2
(dp3
(Vrelations
p4
tp5
(dp6
Vinitramfs-tools
p7
Vinitramfs-tools (>= 0.121~)
p8
sVinitramfs-fallback
p9
Vlinux-initramfs-tool
p10
sVgcc-7
p11
Vgcc-7
p12
ss(Vimage
p13
Vamd64
p14
tp15
(dp16
Vbreaks
p17
Vxserver-xorg-input-vmmouse (<< 1:13.0.99)
p18
sVinstall-stem
p19
Vvmlinuz
p20
sVbootloaders
p21
(lp22
Vgrub-pc
p23
aVextlinux
p24
aVgrub-efi-amd64
p25
asVsuggests
p26
Vcrda
p27
ss(Vbase
p28
g14
Vnone
p29
tp30
(dp31
Vimplicit-flavour
p32
I01
sVflavours
p33
(lp34
Vsiduction-amd64
p35
ass(Vdescription
p36
g14
NVsiduction-amd64
p37
tp38
(dp39
Vhardware-long
p40
VPCs with AMD64 or Intel 64 processors
p41
sVhardware
p42
V64-bit PCs
p43
ss(Vabi
p44
tp45
(dp46
Vabiname
p47
Vtowo.1
p48
ss(Vdescription
p49
tp50
(dp51
Vpart-long-up
p52
VThis kernel is not suitable for SMP (multi-processor,\u000amulti-core or hyper-threaded) systems.
p53
sVpart-long-xen
p54
VThis kernel also runs on a Xen hypervisor.\u000aIt supports both privileged (dom0) and unprivileged (domU) operation.
p55
ss(Vimage
p56
tp57
(dp58
Vinitramfs-generators
p59
(lp60
Vinitramfs-tools
p61
aVinitramfs-fallback
p62
ass(Vbase
p63
tp64
(dp65
Vcompiler
p66
Vgcc-7
p67
sVarches
p68
(lp69
Vamd64
p70
asVfeaturesets
p71
(lp72
Vnone
p73
ass(Vbase
p74
g14
tp75
(dp76
Vkernel-arch
p77
Vx86
p78
sVfeaturesets
p79
(lp80
Vnone
p81
ag29
ass(Vbuild
p82
g14
tp83
(dp84
Vimage-file
p85
Varch/x86/boot/bzImage
p86
sVdebug-info
p87
I00
ss(Vdescription
p88
g14
g29
Vsiduction-amd64
p89
tp90
(dp91
Vparts
p92
(lp93
Vxen
p94
ass(Vversion
p95
tp96
(dp97
Vsource
p98
V4.11-14
p99
sVabiname
p100
V4.11.8-towo.1
p101
sVupstream
p102
V4.11
p103
sVabiname_base
p104
V4.11.8
p105
sstp106
Rp107
.