ccopy_reg
_reconstructor
p0
(cdebian_linux.config
ConfigCore
p1
c__builtin__
dict
p2
(dp3
(Vdescription
p4
Vamd64
p5
Vnone
p6
Vsiduction-amd64
p7
tp8
(dp9
Vparts
p10
(lp11
Vxen
p12
ass(Vdescription
p13
g5
NVsiduction-amd64
p14
tp15
(dp16
Vhardware-long
p17
VPCs with AMD64 or Intel 64 processors
p18
sVhardware
p19
V64-bit PCs
p20
ss(Vversion
p21
tp22
(dp23
Vsource
p24
V4.11-1~exp1
p25
sVabiname
p26
V4.11.0-towo.1
p27
sVupstream
p28
V4.11
p29
sVabiname_base
p30
V4.11.0
p31
ss(Vbuild
p32
g5
tp33
(dp34
Vdebug-info
p35
I00
sVimage-file
p36
Varch/x86/boot/bzImage
p37
ss(Vdescription
p38
tp39
(dp40
Vpart-long-up
p41
VThis kernel is not suitable for SMP (multi-processor,\u000amulti-core or hyper-threaded) systems.
p42
sVpart-long-xen
p43
VThis kernel also runs on a Xen hypervisor.\u000aIt supports both privileged (dom0) and unprivileged (domU) operation.
p44
ss(Vabi
p45
tp46
(dp47
Vabiname
p48
Vtowo.1
p49
ss(Vbase
p50
g5
g6
tp51
(dp52
Vflavours
p53
(lp54
Vsiduction-amd64
p55
asVimplicit-flavour
p56
I01
ss(Vbase
p57
tp58
(dp59
Vcompiler
p60
Vgcc-6
p61
sVarches
p62
(lp63
Vamd64
p64
asVfeaturesets
p65
(lp66
Vnone
p67
ass(Vrelations
p68
tp69
(dp70
Vinitramfs-fallback
p71
Vlinux-initramfs-tool
p72
sVinitramfs-tools
p73
Vinitramfs-tools (>= 0.121~)
p74
sVgcc-6
p75
Vgcc-6
p76
ss(Vbase
p77
g5
tp78
(dp79
Vkernel-arch
p80
Vx86
p81
sVfeaturesets
p82
(lp83
Vnone
p84
ag6
ass(Vimage
p85
tp86
(dp87
Vinitramfs-generators
p88
(lp89
Vinitramfs-tools
p90
aVinitramfs-fallback
p91
ass(Vimage
p92
g5
tp93
(dp94
Vbootloaders
p95
(lp96
Vgrub-pc
p97
aVextlinux
p98
aVgrub-efi-amd64
p99
asVbreaks
p100
Vxserver-xorg-input-vmmouse (<< 1:13.0.99)
p101
sVinstall-stem
p102
Vvmlinuz
p103
sVsuggests
p104
Vcrda
p105
sstp106
Rp107
.