ccopy_reg
_reconstructor
p0
(cdebian_linux.config
ConfigCore
p1
c__builtin__
dict
p2
(dp3
(Vabi
p4
tp5
(dp6
Vabiname
p7
Vtowo.1
p8
ss(Vimage
p9
tp10
(dp11
Vinitramfs-generators
p12
(lp13
Vinitramfs-tools
p14
aVinitramfs-fallback
p15
ass(Vbase
p16
tp17
(dp18
Varches
p19
(lp20
Vamd64
p21
asVcompiler
p22
Vgcc-6
p23
sVfeaturesets
p24
(lp25
Vnone
p26
ass(Vrelations
p27
tp28
(dp29
Vgcc-6
p30
Vgcc-6
p31
sVinitramfs-tools
p32
Vinitramfs-tools (>= 0.121~)
p33
sVinitramfs-fallback
p34
Vlinux-initramfs-tool
p35
ss(Vversion
p36
tp37
(dp38
Vupstream
p39
V4.11
p40
sVabiname_base
p41
V4.11.3
p42
sVsource
p43
V4.11-5~exp1
p44
sVabiname
p45
V4.11.3-towo.1
p46
ss(Vdescription
p47
Vamd64
p48
Vnone
p49
Vsiduction-amd64
p50
tp51
(dp52
Vparts
p53
(lp54
Vxen
p55
ass(Vbase
p56
g48
g49
tp57
(dp58
Vimplicit-flavour
p59
I01
sVflavours
p60
(lp61
Vsiduction-amd64
p62
ass(Vbase
p63
g48
tp64
(dp65
Vfeaturesets
p66
(lp67
Vnone
p68
ag49
asVkernel-arch
p69
Vx86
p70
ss(Vimage
p71
g48
tp72
(dp73
Vbootloaders
p74
(lp75
Vgrub-pc
p76
aVextlinux
p77
aVgrub-efi-amd64
p78
asVsuggests
p79
Vcrda
p80
sVbreaks
p81
Vxserver-xorg-input-vmmouse (<< 1:13.0.99)
p82
sVinstall-stem
p83
Vvmlinuz
p84
ss(Vbuild
p85
g48
tp86
(dp87
Vdebug-info
p88
I00
sVimage-file
p89
Varch/x86/boot/bzImage
p90
ss(Vdescription
p91
g48
NVsiduction-amd64
p92
tp93
(dp94
Vhardware-long
p95
VPCs with AMD64 or Intel 64 processors
p96
sVhardware
p97
V64-bit PCs
p98
ss(Vdescription
p99
tp100
(dp101
Vpart-long-xen
p102
VThis kernel also runs on a Xen hypervisor.\u000aIt supports both privileged (dom0) and unprivileged (domU) operation.
p103
sVpart-long-up
p104
VThis kernel is not suitable for SMP (multi-processor,\u000amulti-core or hyper-threaded) systems.
p105
sstp106
Rp107
.