ccopy_reg
_reconstructor
p0
(cdebian_linux.config
ConfigCore
p1
c__builtin__
dict
p2
(dp3
(Vdescription
p4
Vamd64
p5
Vnone
p6
Vsiduction-amd64
p7
tp8
(dp9
Vparts
p10
(lp11
Vxen
p12
ass(Vbase
p13
g5
g6
tp14
(dp15
Vflavours
p16
(lp17
Vsiduction-amd64
p18
asVimplicit-flavour
p19
I01
ss(Vbuild
p20
g5
tp21
(dp22
Vdebug-info
p23
I00
sVimage-file
p24
Varch/x86/boot/bzImage
p25
ss(Vdescription
p26
tp27
(dp28
Vpart-long-up
p29
VThis kernel is not suitable for SMP (multi-processor,\u000amulti-core or hyper-threaded) systems.
p30
sVpart-long-xen
p31
VThis kernel also runs on a Xen hypervisor.\u000aIt supports both privileged (dom0) and unprivileged (domU) operation.
p32
ss(Vbase
p33
g5
tp34
(dp35
Vfeaturesets
p36
(lp37
Vnone
p38
ag6
asVkernel-arch
p39
Vx86
p40
ss(Vdescription
p41
g5
NVsiduction-amd64
p42
tp43
(dp44
Vhardware-long
p45
VPCs with AMD64 or Intel 64 processors
p46
sVhardware
p47
V64-bit PCs
p48
ss(Vbase
p49
tp50
(dp51
Vcompiler
p52
Vgcc-6
p53
sVarches
p54
(lp55
Vamd64
p56
asVfeaturesets
p57
(lp58
Vnone
p59
ass(Vversion
p60
tp61
(dp62
Vabiname
p63
V4.11.1-towo.1
p64
sVabiname_base
p65
V4.11.1
p66
sVupstream
p67
V4.11
p68
sVsource
p69
V4.11-3~exp1
p70
ss(Vimage
p71
tp72
(dp73
Vinitramfs-generators
p74
(lp75
Vinitramfs-tools
p76
aVinitramfs-fallback
p77
ass(Vrelations
p78
tp79
(dp80
Vinitramfs-tools
p81
Vinitramfs-tools (>= 0.121~)
p82
sVinitramfs-fallback
p83
Vlinux-initramfs-tool
p84
sVgcc-6
p85
Vgcc-6
p86
ss(Vimage
p87
g5
tp88
(dp89
Vinstall-stem
p90
Vvmlinuz
p91
sVbreaks
p92
Vxserver-xorg-input-vmmouse (<< 1:13.0.99)
p93
sVbootloaders
p94
(lp95
Vgrub-pc
p96
aVextlinux
p97
aVgrub-efi-amd64
p98
asVsuggests
p99
Vcrda
p100
ss(Vabi
p101
tp102
(dp103
Vabiname
p104
Vtowo.1
p105
sstp106
Rp107
.