ccopy_reg
_reconstructor
p0
(cdebian_linux.config
ConfigCore
p1
c__builtin__
dict
p2
(dp3
(Vbuild
p4
Vamd64
p5
tp6
(dp7
Vimage-file
p8
Varch/x86/boot/bzImage
p9
sVdebug-info
p10
I00
ss(Vrelations
p11
tp12
(dp13
Vgcc-6
p14
Vgcc-6
p15
sVinitramfs-tools
p16
Vinitramfs-tools (>= 0.121~)
p17
sVinitramfs-fallback
p18
Vlinux-initramfs-tool
p19
ss(Vbase
p20
g5
tp21
(dp22
Vfeaturesets
p23
(lp24
Vnone
p25
aVnone
p26
asVkernel-arch
p27
Vx86
p28
ss(Vimage
p29
tp30
(dp31
Vinitramfs-generators
p32
(lp33
Vinitramfs-tools
p34
aVinitramfs-fallback
p35
ass(Vabi
p36
tp37
(dp38
Vabiname
p39
Vtowo.1
p40
ss(Vdescription
p41
tp42
(dp43
Vpart-long-up
p44
VThis kernel is not suitable for SMP (multi-processor,\u000amulti-core or hyper-threaded) systems.
p45
sVpart-long-xen
p46
VThis kernel also runs on a Xen hypervisor.\u000aIt supports both privileged (dom0) and unprivileged (domU) operation.
p47
ss(Vbase
p48
g5
g26
tp49
(dp50
Vflavours
p51
(lp52
Vsiduction-amd64
p53
asVimplicit-flavour
p54
I01
ss(Vbase
p55
tp56
(dp57
Vfeaturesets
p58
(lp59
Vnone
p60
asVcompiler
p61
Vgcc-6
p62
sVarches
p63
(lp64
Vamd64
p65
ass(Vdescription
p66
g5
NVsiduction-amd64
p67
tp68
(dp69
Vhardware-long
p70
VPCs with AMD64 or Intel 64 processors
p71
sVhardware
p72
V64-bit PCs
p73
ss(Vdescription
p74
g5
g26
Vsiduction-amd64
p75
tp76
(dp77
Vparts
p78
(lp79
Vxen
p80
ass(Vimage
p81
g5
tp82
(dp83
Vinstall-stem
p84
Vvmlinuz
p85
sVsuggests
p86
Vcrda
p87
sVbreaks
p88
Vxserver-xorg-input-vmmouse (<< 1:13.0.99)
p89
sVbootloaders
p90
(lp91
Vgrub-pc
p92
aVextlinux
p93
aVgrub-efi-amd64
p94
ass(Vversion
p95
tp96
(dp97
Vabiname_base
p98
V4.11.5
p99
sVsource
p100
V4.11-10
p101
sVupstream
p102
V4.11
p103
sVabiname
p104
V4.11.5-towo.1
p105
sstp106
Rp107
.