ccopy_reg
_reconstructor
p0
(cdebian_linux.config
ConfigCore
p1
c__builtin__
dict
p2
(dp3
(Vbase
p4
tp5
(dp6
Varches
p7
(lp8
Vamd64
p9
asVfeaturesets
p10
(lp11
Vnone
p12
asVcompiler
p13
Vgcc-7
p14
ss(Vbase
p15
Vamd64
p16
Vnone
p17
tp18
(dp19
Vflavours
p20
(lp21
Vsiduction-amd64
p22
asVimplicit-flavour
p23
I01
ss(Vdescription
p24
g16
g17
Vsiduction-amd64
p25
tp26
(dp27
Vparts
p28
(lp29
Vxen
p30
ass(Vrelations
p31
tp32
(dp33
Vinitramfs-fallback
p34
Vlinux-initramfs-tool
p35
sVgcc-7
p36
Vgcc-7
p37
sVinitramfs-tools
p38
Vinitramfs-tools (>= 0.121~)
p39
ss(Vdescription
p40
g16
NVsiduction-amd64
p41
tp42
(dp43
Vhardware
p44
V64-bit PCs
p45
sVhardware-long
p46
VPCs with AMD64 or Intel 64 processors
p47
ss(Vdescription
p48
tp49
(dp50
Vpart-long-xen
p51
VThis kernel also runs on a Xen hypervisor.\u000aIt supports both privileged (dom0) and unprivileged (domU) operation.
p52
sVpart-long-up
p53
VThis kernel is not suitable for SMP (multi-processor,\u000amulti-core or hyper-threaded) systems.
p54
ss(Vimage
p55
tp56
(dp57
Vinitramfs-generators
p58
(lp59
Vinitramfs-tools
p60
aVinitramfs-fallback
p61
ass(Vbuild
p62
g16
tp63
(dp64
Vdebug-info
p65
I00
sVimage-file
p66
Varch/x86/boot/bzImage
p67
ss(Vimage
p68
g16
tp69
(dp70
Vbreaks
p71
Vxserver-xorg-input-vmmouse (<< 1:13.0.99)
p72
sVbootloaders
p73
(lp74
Vgrub-pc
p75
aVextlinux
p76
aVgrub-efi-amd64
p77
asVsuggests
p78
Vcrda
p79
sVinstall-stem
p80
Vvmlinuz
p81
ss(Vabi
p82
tp83
(dp84
Vabiname
p85
Vtowo.1
p86
ss(Vbase
p87
g16
tp88
(dp89
Vfeaturesets
p90
(lp91
Vnone
p92
ag17
asVkernel-arch
p93
Vx86
p94
ss(Vversion
p95
tp96
(dp97
Vabiname
p98
V4.11.9-towo.1
p99
sVabiname_base
p100
V4.11.9
p101
sVsource
p102
V4.11-15
p103
sVupstream
p104
V4.11
p105
sstp106
Rp107
.