ccopy_reg
_reconstructor
p0
(cdebian_linux.config
ConfigCore
p1
c__builtin__
dict
p2
(dp3
(Vrelations
p4
tp5
(dp6
Vinitramfs-fallback
p7
Vlinux-initramfs-tool
p8
sVgcc-6
p9
Vgcc-6
p10
sVinitramfs-tools
p11
Vinitramfs-tools (>= 0.121~)
p12
ss(Vbase
p13
Vamd64
p14
Vnone
p15
tp16
(dp17
Vimplicit-flavour
p18
I01
sVflavours
p19
(lp20
Vsiduction-amd64
p21
ass(Vdescription
p22
g14
g15
Vsiduction-amd64
p23
tp24
(dp25
Vparts
p26
(lp27
Vxen
p28
ass(Vimage
p29
tp30
(dp31
Vinitramfs-generators
p32
(lp33
Vinitramfs-tools
p34
aVinitramfs-fallback
p35
ass(Vbase
p36
g14
tp37
(dp38
Vkernel-arch
p39
Vx86
p40
sVfeaturesets
p41
(lp42
Vnone
p43
ag15
ass(Vbuild
p44
g14
tp45
(dp46
Vdebug-info
p47
I00
sVimage-file
p48
Varch/x86/boot/bzImage
p49
ss(Vdescription
p50
g14
NVsiduction-amd64
p51
tp52
(dp53
Vhardware
p54
V64-bit PCs
p55
sVhardware-long
p56
VPCs with AMD64 or Intel 64 processors
p57
ss(Vversion
p58
tp59
(dp60
Vsource
p61
V4.11-8
p62
sVabiname
p63
V4.11.4-towo.1
p64
sVabiname_base
p65
V4.11.4
p66
sVupstream
p67
V4.11
p68
ss(Vbase
p69
tp70
(dp71
Vcompiler
p72
Vgcc-6
p73
sVarches
p74
(lp75
Vamd64
p76
asVfeaturesets
p77
(lp78
Vnone
p79
ass(Vdescription
p80
tp81
(dp82
Vpart-long-xen
p83
VThis kernel also runs on a Xen hypervisor.\u000aIt supports both privileged (dom0) and unprivileged (domU) operation.
p84
sVpart-long-up
p85
VThis kernel is not suitable for SMP (multi-processor,\u000amulti-core or hyper-threaded) systems.
p86
ss(Vimage
p87
g14
tp88
(dp89
Vsuggests
p90
Vcrda
p91
sVbootloaders
p92
(lp93
Vgrub-pc
p94
aVextlinux
p95
aVgrub-efi-amd64
p96
asVbreaks
p97
Vxserver-xorg-input-vmmouse (<< 1:13.0.99)
p98
sVinstall-stem
p99
Vvmlinuz
p100
ss(Vabi
p101
tp102
(dp103
Vabiname
p104
Vtowo.1
p105
sstp106
Rp107
.