ccopy_reg
_reconstructor
p0
(cdebian_linux.config
ConfigCore
p1
c__builtin__
dict
p2
(dp3
(Vbase
p4
Vamd64
p5
Vnone
p6
tp7
(dp8
Vflavours
p9
(lp10
Vsiduction-amd64
p11
asVimplicit-flavour
p12
I01
ss(Vbuild
p13
g5
tp14
(dp15
Vdebug-info
p16
I00
sVimage-file
p17
Varch/x86/boot/bzImage
p18
ss(Vimage
p19
tp20
(dp21
Vinitramfs-generators
p22
(lp23
Vinitramfs-tools
p24
aVinitramfs-fallback
p25
ass(Vdescription
p26
g5
NVsiduction-amd64
p27
tp28
(dp29
Vhardware
p30
V64-bit PCs
p31
sVhardware-long
p32
VPCs with AMD64 or Intel 64 processors
p33
ss(Vbase
p34
g5
tp35
(dp36
Vfeaturesets
p37
(lp38
Vnone
p39
ag6
asVkernel-arch
p40
Vx86
p41
ss(Vversion
p42
tp43
(dp44
Vabiname_base
p45
V4.11.10
p46
sVsource
p47
V4.11-16
p48
sVabiname
p49
V4.11.10-towo.1
p50
sVupstream
p51
V4.11
p52
ss(Vdescription
p53
g5
g6
Vsiduction-amd64
p54
tp55
(dp56
Vparts
p57
(lp58
Vxen
p59
ass(Vbase
p60
tp61
(dp62
Vfeaturesets
p63
(lp64
Vnone
p65
asVarches
p66
(lp67
Vamd64
p68
asVcompiler
p69
Vgcc-7
p70
ss(Vdescription
p71
tp72
(dp73
Vpart-long-xen
p74
VThis kernel also runs on a Xen hypervisor.\u000aIt supports both privileged (dom0) and unprivileged (domU) operation.
p75
sVpart-long-up
p76
VThis kernel is not suitable for SMP (multi-processor,\u000amulti-core or hyper-threaded) systems.
p77
ss(Vabi
p78
tp79
(dp80
Vabiname
p81
Vtowo.1
p82
ss(Vimage
p83
g5
tp84
(dp85
Vinstall-stem
p86
Vvmlinuz
p87
sVsuggests
p88
Vcrda
p89
sVbootloaders
p90
(lp91
Vgrub-pc
p92
aVextlinux
p93
aVgrub-efi-amd64
p94
asVbreaks
p95
Vxserver-xorg-input-vmmouse (<< 1:13.0.99)
p96
ss(Vrelations
p97
tp98
(dp99
Vinitramfs-fallback
p100
Vlinux-initramfs-tool
p101
sVgcc-7
p102
Vgcc-7
p103
sVinitramfs-tools
p104
Vinitramfs-tools (>= 0.121~)
p105
sstp106
Rp107
.