ccopy_reg
_reconstructor
p0
(cdebian_linux.config
ConfigCore
p1
c__builtin__
dict
p2
(dp3
(Vbase
p4
tp5
(dp6
Varches
p7
(lp8
Vamd64
p9
asVcompiler
p10
Vgcc-6
p11
sVfeaturesets
p12
(lp13
Vnone
p14
ass(Vdescription
p15
Vamd64
p16
Vnone
p17
Vsiduction-amd64
p18
tp19
(dp20
Vparts
p21
(lp22
Vxen
p23
ass(Vdescription
p24
tp25
(dp26
Vpart-long-up
p27
VThis kernel is not suitable for SMP (multi-processor,\u000amulti-core or hyper-threaded) systems.
p28
sVpart-long-xen
p29
VThis kernel also runs on a Xen hypervisor.\u000aIt supports both privileged (dom0) and unprivileged (domU) operation.
p30
ss(Vdescription
p31
g16
NVsiduction-amd64
p32
tp33
(dp34
Vhardware
p35
V64-bit PCs
p36
sVhardware-long
p37
VPCs with AMD64 or Intel 64 processors
p38
ss(Vabi
p39
tp40
(dp41
Vabiname
p42
Vtowo.1
p43
ss(Vbase
p44
g16
g17
tp45
(dp46
Vimplicit-flavour
p47
I01
sVflavours
p48
(lp49
Vsiduction-amd64
p50
ass(Vbuild
p51
g16
tp52
(dp53
Vimage-file
p54
Varch/x86/boot/bzImage
p55
sVdebug-info
p56
I00
ss(Vimage
p57
g16
tp58
(dp59
Vsuggests
p60
Vcrda
p61
sVinstall-stem
p62
Vvmlinuz
p63
sVbootloaders
p64
(lp65
Vgrub-pc
p66
aVextlinux
p67
aVgrub-efi-amd64
p68
asVbreaks
p69
Vxserver-xorg-input-vmmouse (<< 1:13.0.99)
p70
ss(Vrelations
p71
tp72
(dp73
Vinitramfs-fallback
p74
Vlinux-initramfs-tool
p75
sVgcc-6
p76
Vgcc-6
p77
sVinitramfs-tools
p78
Vinitramfs-tools (>= 0.121~)
p79
ss(Vbase
p80
g16
tp81
(dp82
Vkernel-arch
p83
Vx86
p84
sVfeaturesets
p85
(lp86
Vnone
p87
ag17
ass(Vimage
p88
tp89
(dp90
Vinitramfs-generators
p91
(lp92
Vinitramfs-tools
p93
aVinitramfs-fallback
p94
ass(Vversion
p95
tp96
(dp97
Vabiname
p98
V4.11.0-towo.1
p99
sVabiname_base
p100
V4.11.0
p101
sVupstream
p102
V4.11
p103
sVsource
p104
V4.11-1
p105
sstp106
Rp107
.