ccopy_reg
_reconstructor
p0
(cdebian_linux.config
ConfigCore
p1
c__builtin__
dict
p2
(dp3
(Vrelations
p4
tp5
(dp6
Vgcc-6
p7
Vgcc-6
p8
sVinitramfs-fallback
p9
Vlinux-initramfs-tool
p10
sVinitramfs-tools
p11
Vinitramfs-tools (>= 0.121~)
p12
ss(Vversion
p13
tp14
(dp15
Vabiname_base
p16
V4.11.6
p17
sVupstream
p18
V4.11
p19
sVsource
p20
V4.11-12
p21
sVabiname
p22
V4.11.6-towo.2
p23
ss(Vdescription
p24
tp25
(dp26
Vpart-long-up
p27
VThis kernel is not suitable for SMP (multi-processor,\u000amulti-core or hyper-threaded) systems.
p28
sVpart-long-xen
p29
VThis kernel also runs on a Xen hypervisor.\u000aIt supports both privileged (dom0) and unprivileged (domU) operation.
p30
ss(Vimage
p31
Vamd64
p32
tp33
(dp34
Vbootloaders
p35
(lp36
Vgrub-pc
p37
aVextlinux
p38
aVgrub-efi-amd64
p39
asVinstall-stem
p40
Vvmlinuz
p41
sVsuggests
p42
Vcrda
p43
sVbreaks
p44
Vxserver-xorg-input-vmmouse (<< 1:13.0.99)
p45
ss(Vbase
p46
tp47
(dp48
Vfeaturesets
p49
(lp50
Vnone
p51
asVarches
p52
(lp53
Vamd64
p54
asVcompiler
p55
Vgcc-6
p56
ss(Vabi
p57
tp58
(dp59
Vabiname
p60
Vtowo.2
p61
ss(Vbase
p62
g32
Vnone
p63
tp64
(dp65
Vflavours
p66
(lp67
Vsiduction-amd64
p68
asVimplicit-flavour
p69
I01
ss(Vbase
p70
g32
tp71
(dp72
Vfeaturesets
p73
(lp74
Vnone
p75
ag63
asVkernel-arch
p76
Vx86
p77
ss(Vdescription
p78
g32
NVsiduction-amd64
p79
tp80
(dp81
Vhardware
p82
V64-bit PCs
p83
sVhardware-long
p84
VPCs with AMD64 or Intel 64 processors
p85
ss(Vbuild
p86
g32
tp87
(dp88
Vimage-file
p89
Varch/x86/boot/bzImage
p90
sVdebug-info
p91
I00
ss(Vimage
p92
tp93
(dp94
Vinitramfs-generators
p95
(lp96
Vinitramfs-tools
p97
aVinitramfs-fallback
p98
ass(Vdescription
p99
g32
g63
Vsiduction-amd64
p100
tp101
(dp102
Vparts
p103
(lp104
Vxen
p105
asstp106
Rp107
.