ccopy_reg
_reconstructor
p0
(cdebian_linux.config
ConfigCore
p1
c__builtin__
dict
p2
(dp3
(Vbase
p4
Vamd64
p5
tp6
(dp7
Vkernel-arch
p8
Vx86
p9
sVfeaturesets
p10
(lp11
Vnone
p12
aVnone
p13
ass(Vdescription
p14
g5
g13
Vsiduction-amd64
p15
tp16
(dp17
Vparts
p18
(lp19
Vxen
p20
ass(Vdescription
p21
g5
NVsiduction-amd64
p22
tp23
(dp24
Vhardware
p25
V64-bit PCs
p26
sVhardware-long
p27
VPCs with AMD64 or Intel 64 processors
p28
ss(Vversion
p29
tp30
(dp31
Vupstream
p32
V4.11
p33
sVabiname_base
p34
V4.11.3
p35
sVsource
p36
V4.11-7
p37
sVabiname
p38
V4.11.3-towo.3
p39
ss(Vbase
p40
tp41
(dp42
Varches
p43
(lp44
Vamd64
p45
asVcompiler
p46
Vgcc-6
p47
sVfeaturesets
p48
(lp49
Vnone
p50
ass(Vabi
p51
tp52
(dp53
Vabiname
p54
Vtowo.3
p55
ss(Vbase
p56
g5
g13
tp57
(dp58
Vimplicit-flavour
p59
I01
sVflavours
p60
(lp61
Vsiduction-amd64
p62
ass(Vimage
p63
g5
tp64
(dp65
Vbreaks
p66
Vxserver-xorg-input-vmmouse (<< 1:13.0.99)
p67
sVbootloaders
p68
(lp69
Vgrub-pc
p70
aVextlinux
p71
aVgrub-efi-amd64
p72
asVinstall-stem
p73
Vvmlinuz
p74
sVsuggests
p75
Vcrda
p76
ss(Vimage
p77
tp78
(dp79
Vinitramfs-generators
p80
(lp81
Vinitramfs-tools
p82
aVinitramfs-fallback
p83
ass(Vdescription
p84
tp85
(dp86
Vpart-long-up
p87
VThis kernel is not suitable for SMP (multi-processor,\u000amulti-core or hyper-threaded) systems.
p88
sVpart-long-xen
p89
VThis kernel also runs on a Xen hypervisor.\u000aIt supports both privileged (dom0) and unprivileged (domU) operation.
p90
ss(Vrelations
p91
tp92
(dp93
Vinitramfs-tools
p94
Vinitramfs-tools (>= 0.121~)
p95
sVinitramfs-fallback
p96
Vlinux-initramfs-tool
p97
sVgcc-6
p98
Vgcc-6
p99
ss(Vbuild
p100
g5
tp101
(dp102
Vdebug-info
p103
I00
sVimage-file
p104
Varch/x86/boot/bzImage
p105
sstp106
Rp107
.