ccopy_reg
_reconstructor
p0
(cdebian_linux.config
ConfigCore
p1
c__builtin__
dict
p2
(dp3
(Vdescription
p4
Vamd64
p5
Vnone
p6
Vsiduction-amd64
p7
tp8
(dp9
Vparts
p10
(lp11
Vxen
p12
ass(Vabi
p13
tp14
(dp15
Vabiname
p16
Vtowo.1
p17
ss(Vdescription
p18
tp19
(dp20
Vpart-long-up
p21
VThis kernel is not suitable for SMP (multi-processor,\u000amulti-core or hyper-threaded) systems.
p22
sVpart-long-xen
p23
VThis kernel also runs on a Xen hypervisor.\u000aIt supports both privileged (dom0) and unprivileged (domU) operation.
p24
ss(Vrelations
p25
tp26
(dp27
Vinitramfs-fallback
p28
Vlinux-initramfs-tool
p29
sVinitramfs-tools
p30
Vinitramfs-tools (>= 0.121~)
p31
sVgcc-7
p32
Vgcc-7
p33
ss(Vbase
p34
tp35
(dp36
Varches
p37
(lp38
Vamd64
p39
asVcompiler
p40
Vgcc-7
p41
sVfeaturesets
p42
(lp43
Vnone
p44
ass(Vbuild
p45
g5
tp46
(dp47
Vdebug-info
p48
I00
sVimage-file
p49
Varch/x86/boot/bzImage
p50
ss(Vimage
p51
g5
tp52
(dp53
Vbreaks
p54
Vxserver-xorg-input-vmmouse (<< 1:13.0.99)
p55
sVinstall-stem
p56
Vvmlinuz
p57
sVbootloaders
p58
(lp59
Vgrub-pc
p60
aVextlinux
p61
aVgrub-efi-amd64
p62
asVsuggests
p63
Vcrda
p64
ss(Vbase
p65
g5
tp66
(dp67
Vkernel-arch
p68
Vx86
p69
sVfeaturesets
p70
(lp71
Vnone
p72
ag6
ass(Vbase
p73
g5
g6
tp74
(dp75
Vflavours
p76
(lp77
Vsiduction-amd64
p78
asVimplicit-flavour
p79
I01
ss(Vversion
p80
tp81
(dp82
Vsource
p83
V4.11-17
p84
sVabiname
p85
V4.11.11-towo.1
p86
sVabiname_base
p87
V4.11.11
p88
sVupstream
p89
V4.11
p90
ss(Vimage
p91
tp92
(dp93
Vinitramfs-generators
p94
(lp95
Vinitramfs-tools
p96
aVinitramfs-fallback
p97
ass(Vdescription
p98
g5
NVsiduction-amd64
p99
tp100
(dp101
Vhardware
p102
V64-bit PCs
p103
sVhardware-long
p104
VPCs with AMD64 or Intel 64 processors
p105
sstp106
Rp107
.