ccopy_reg
_reconstructor
p0
(cdebian_linux.config
ConfigCore
p1
c__builtin__
dict
p2
(dp3
(Vbase
p4
tp5
(dp6
Vcompiler
p7
Vgcc-6
p8
sVarches
p9
(lp10
Vamd64
p11
asVfeaturesets
p12
(lp13
Vnone
p14
ass(Vbase
p15
Vamd64
p16
tp17
(dp18
Vkernel-arch
p19
Vx86
p20
sVfeaturesets
p21
(lp22
Vnone
p23
aVnone
p24
ass(Vrelations
p25
tp26
(dp27
Vinitramfs-fallback
p28
Vlinux-initramfs-tool
p29
sVinitramfs-tools
p30
Vinitramfs-tools (>= 0.121~)
p31
sVgcc-6
p32
Vgcc-6
p33
ss(Vbuild
p34
g16
tp35
(dp36
Vimage-file
p37
Varch/x86/boot/bzImage
p38
sVdebug-info
p39
I00
ss(Vdescription
p40
g16
g24
Vsiduction-amd64
p41
tp42
(dp43
Vparts
p44
(lp45
Vxen
p46
ass(Vbase
p47
g16
g24
tp48
(dp49
Vflavours
p50
(lp51
Vsiduction-amd64
p52
asVimplicit-flavour
p53
I01
ss(Vimage
p54
g16
tp55
(dp56
Vbootloaders
p57
(lp58
Vgrub-pc
p59
aVextlinux
p60
aVgrub-efi-amd64
p61
asVbreaks
p62
Vxserver-xorg-input-vmmouse (<< 1:13.0.99)
p63
sVsuggests
p64
Vcrda
p65
sVinstall-stem
p66
Vvmlinuz
p67
ss(Vversion
p68
tp69
(dp70
Vsource
p71
V4.11-4~exp1
p72
sVabiname_base
p73
V4.11.2
p74
sVupstream
p75
V4.11
p76
sVabiname
p77
V4.11.2-towo.1
p78
ss(Vdescription
p79
g16
NVsiduction-amd64
p80
tp81
(dp82
Vhardware
p83
V64-bit PCs
p84
sVhardware-long
p85
VPCs with AMD64 or Intel 64 processors
p86
ss(Vimage
p87
tp88
(dp89
Vinitramfs-generators
p90
(lp91
Vinitramfs-tools
p92
aVinitramfs-fallback
p93
ass(Vdescription
p94
tp95
(dp96
Vpart-long-up
p97
VThis kernel is not suitable for SMP (multi-processor,\u000amulti-core or hyper-threaded) systems.
p98
sVpart-long-xen
p99
VThis kernel also runs on a Xen hypervisor.\u000aIt supports both privileged (dom0) and unprivileged (domU) operation.
p100
ss(Vabi
p101
tp102
(dp103
Vabiname
p104
Vtowo.1
p105
sstp106
Rp107
.