ccopy_reg
_reconstructor
p0
(cdebian_linux.config
ConfigCore
p1
c__builtin__
dict
p2
(dp3
(Vabi
p4
tp5
(dp6
Vabiname
p7
Vtowo.1
p8
ss(Vdescription
p9
Vamd64
p10
Vnone
p11
Vsiduction-amd64
p12
tp13
(dp14
Vparts
p15
(lp16
Vxen
p17
ass(Vbase
p18
tp19
(dp20
Varches
p21
(lp22
Vamd64
p23
asVcompiler
p24
Vgcc-6
p25
sVfeaturesets
p26
(lp27
Vnone
p28
ass(Vimage
p29
g10
tp30
(dp31
Vbootloaders
p32
(lp33
Vgrub-pc
p34
aVextlinux
p35
aVgrub-efi-amd64
p36
asVbreaks
p37
Vxserver-xorg-input-vmmouse (<< 1:13.0.99)
p38
sVsuggests
p39
Vcrda
p40
sVinstall-stem
p41
Vvmlinuz
p42
ss(Vdescription
p43
tp44
(dp45
Vpart-long-up
p46
VThis kernel is not suitable for SMP (multi-processor,\u000amulti-core or hyper-threaded) systems.
p47
sVpart-long-xen
p48
VThis kernel also runs on a Xen hypervisor.\u000aIt supports both privileged (dom0) and unprivileged (domU) operation.
p49
ss(Vversion
p50
tp51
(dp52
Vabiname
p53
V4.11.6-towo.1
p54
sVupstream
p55
V4.11
p56
sVsource
p57
V4.11-11
p58
sVabiname_base
p59
V4.11.6
p60
ss(Vbase
p61
g10
g11
tp62
(dp63
Vimplicit-flavour
p64
I01
sVflavours
p65
(lp66
Vsiduction-amd64
p67
ass(Vbuild
p68
g10
tp69
(dp70
Vdebug-info
p71
I00
sVimage-file
p72
Varch/x86/boot/bzImage
p73
ss(Vdescription
p74
g10
NVsiduction-amd64
p75
tp76
(dp77
Vhardware
p78
V64-bit PCs
p79
sVhardware-long
p80
VPCs with AMD64 or Intel 64 processors
p81
ss(Vimage
p82
tp83
(dp84
Vinitramfs-generators
p85
(lp86
Vinitramfs-tools
p87
aVinitramfs-fallback
p88
ass(Vbase
p89
g10
tp90
(dp91
Vkernel-arch
p92
Vx86
p93
sVfeaturesets
p94
(lp95
Vnone
p96
ag11
ass(Vrelations
p97
tp98
(dp99
Vinitramfs-tools
p100
Vinitramfs-tools (>= 0.121~)
p101
sVgcc-6
p102
Vgcc-6
p103
sVinitramfs-fallback
p104
Vlinux-initramfs-tool
p105
sstp106
Rp107
.