ccopy_reg
_reconstructor
p0
(cdebian_linux.config
ConfigCore
p1
c__builtin__
dict
p2
(dp3
(Vimage
p4
Vamd64
p5
tp6
(dp7
Vbootloaders
p8
(lp9
Vgrub-pc
p10
aVextlinux
p11
aVgrub-efi-amd64
p12
asVinstall-stem
p13
Vvmlinuz
p14
sVsuggests
p15
Vcrda
p16
sVbreaks
p17
Vxserver-xorg-input-vmmouse (<< 1:13.0.99)
p18
ss(Vbase
p19
tp20
(dp21
Vfeaturesets
p22
(lp23
Vnone
p24
asVarches
p25
(lp26
Vamd64
p27
asVcompiler
p28
Vgcc-6
p29
ss(Vdescription
p30
g5
NVsiduction-amd64
p31
tp32
(dp33
Vhardware-long
p34
VPCs with AMD64 or Intel 64 processors
p35
sVhardware
p36
V64-bit PCs
p37
ss(Vdescription
p38
g5
Vnone
p39
Vsiduction-amd64
p40
tp41
(dp42
Vparts
p43
(lp44
Vxen
p45
ass(Vabi
p46
tp47
(dp48
Vabiname
p49
Vtowo.2
p50
ss(Vimage
p51
tp52
(dp53
Vinitramfs-generators
p54
(lp55
Vinitramfs-tools
p56
aVinitramfs-fallback
p57
ass(Vbase
p58
g5
tp59
(dp60
Vfeaturesets
p61
(lp62
Vnone
p63
ag39
asVkernel-arch
p64
Vx86
p65
ss(Vdescription
p66
tp67
(dp68
Vpart-long-xen
p69
VThis kernel also runs on a Xen hypervisor.\u000aIt supports both privileged (dom0) and unprivileged (domU) operation.
p70
sVpart-long-up
p71
VThis kernel is not suitable for SMP (multi-processor,\u000amulti-core or hyper-threaded) systems.
p72
ss(Vbase
p73
g5
g39
tp74
(dp75
Vflavours
p76
(lp77
Vsiduction-amd64
p78
asVimplicit-flavour
p79
I01
ss(Vbuild
p80
g5
tp81
(dp82
Vimage-file
p83
Varch/x86/boot/bzImage
p84
sVdebug-info
p85
I00
ss(Vrelations
p86
tp87
(dp88
Vgcc-6
p89
Vgcc-6
p90
sVinitramfs-fallback
p91
Vlinux-initramfs-tool
p92
sVinitramfs-tools
p93
Vinitramfs-tools (>= 0.121~)
p94
ss(Vversion
p95
tp96
(dp97
Vabiname
p98
V4.11.4-towo.2
p99
sVupstream
p100
V4.11
p101
sVsource
p102
V4.11-9
p103
sVabiname_base
p104
V4.11.4
p105
sstp106
Rp107
.