ccopy_reg
_reconstructor
p1
(cdebian_linux.config
ConfigCore
p2
c__builtin__
dict
p3
(dp4
(S'image'
S'amd64'
p5
tp6
(dp7
S'suggests'
p8
S'crda'
p9
sS'configs'
p10
(lp11
S'kernelarch-x86/config'
p12
asS'bootloaders'
p13
(lp14
S'grub-pc'
p15
aS'extlinux'
p16
aS'grub-efi-amd64'
p17
ass(S'siduction-686_image-dbg'
p18
S'i386'
p19
tp20
(dp21
S'enabled'
p22
S'false'
p23
ss(S'base'
p24
g5
S'none'
p25
tp26
(dp27
S'implicit-flavour'
p28
I01
sS'flavours'
p29
(lp30
S'siduction-amd64'
p31
ass(S'base'
g5
tp32
(dp33
S'kernel-arch'
p34
S'x86'
p35
sS'featuresets'
p36
(lp37
g25
ass(S'image'
p38
tp39
(dp40
S'initramfs-generators'
p41
(lp42
S'initramfs-tools'
p43
aS'initramfs-fallback'
p44
asS'type'
p45
S'plain'
p46
ss(S'image'
g5
NS'siduction-amd64'
tp47
(dp48
S'configs'
p49
(lp50
S'kernelarch-x86/config-arch-64'
p51
ass(S'image'
g19
S'none'
p52
S'siduction-686-pae'
tp53
(dp54
S'configs'
p55
(lp56
S'kernelarch-x86/config-arch-32'
p57
aS'kernelarch-x86/config-arch-32-pae'
p58
asS'recommends'
p59
S'libc6-i686'
p60
ss(S'version'
p61
tp62
(dp63
S'abiname'
p64
S'3.5-3.towo'
p65
sS'source'
p66
V3.5-8
p67
ss(S'description'
g19
g52
S'siduction-686-pae'
tp68
(dp69
S'hardware'
p70
S'modern PCs with pae support'
p71
sS'hardware-long'
p72
S'PCs with Intel Xeon, Core or Atom; AMD Geode LX/NX, Athlon (K7), Opteron, Sempron, Turion or Phenom; Transmeta Efficeon; C7 processors'
p73
ss(S'base'
p74
g19
tp75
(dp76
S'kernel-arch'
p77
S'x86'
p78
sS'featuresets'
p79
(lp80
S'none'
p81
ass(S'description'
g5
NS'siduction-amd64'
tp82
(dp83
S'hardware'
p84
S'64-bit PCs'
p85
sS'hardware-long'
p86
S'PCs with AMD64 or Intel 64 processors'
p87
ss(S'siduction-amd64-dbg'
g5
tp88
(dp89
S'enabled'
p90
S'false'
p91
ss(S'base'
g19
g52
tp92
(dp93
S'flavours'
p94
(lp95
S'siduction-686'
p96
aS'siduction-686-pae'
p97
ass(S'abi'
p98
tp99
(dp100
S'abiname'
p101
S'3.towo'
p102
ss(S'image'
p103
g19
tp104
(dp105
S'suggests'
p106
S'crda'
p107
sS'configs'
p108
(lp109
S'kernelarch-x86/config'
p110
asS'bootloaders'
p111
(lp112
S'grub-pc'
p113
aS'extlinux'
p114
ass(S'description'
g19
NS'siduction-686'
tp115
(dp116
S'hardware'
p117
S'modern PCs'
p118
sS'hardware-long'
p119
S'PCs with Intel Pentium Pro/II/III/4/4M/D/M, Xeon, Celeron, Core or Atom; AMD Geode LX/NX, Athlon (K7), Duron, Opteron, Sempron, Turion or Phenom; Transmeta Efficeon; VIA C3 "Nehemiah" or C7 processors'
p120
ss(S'siduction-686-pae_image-dbg'
g19
g52
tp121
(dp122
S'enabled'
p123
S'false'
p124
ss(S'image'
g19
NS'siduction-686'
tp125
(dp126
S'configs'
p127
(lp128
S'kernelarch-x86/config-arch-32'
p129
asS'recommends'
p130
S'libc6-i686'
p131
ss(S'base'
p132
tp133
(dp134
S'arches'
p135
(lp136
S'amd64'
p137
aS'i386'
p138
asS'featuresets'
p139
(lp140
S'none'
p141
asS'compiler'
p142
S'gcc-4.7'
p143
ss(S'relations'
p144
tp145
(dp146
S'initramfs-fallback'
p147
S'linux-initramfs-tool'
p148
sS'lilo'
p149
S'lilo (>= 22.8-8.2~)'
p150
sS'gcc-4.7'
p151
S'gcc-4.7'
p152
sS'initramfs-tools'
p153
S'initramfs-tools (>= 0.99~)'
p154
sS'elilo'
p155
S'elilo (>= 3.12-3.1~)'
p156
sstRp157
.