ccopy_reg
_reconstructor
p0
(cdebian_linux.config
ConfigCore
p1
c__builtin__
dict
p2
(dp3
(S'description'
p4
S'amd64'
p5
NS'siduction-amd64'
p6
tp7
(dp8
S'hardware'
p9
S'64-bit PCs'
p10
sS'hardware-long'
p11
S'PCs with AMD64 or Intel 64 processors'
p12
ss(S'image'
p13
g5
tp14
(dp15
S'install-stem'
p16
S'vmlinuz'
p17
sS'configs'
p18
(lp19
sS'bootloaders'
p20
(lp21
S'grub-pc'
p22
aS'extlinux'
p23
aS'grub-efi-amd64'
p24
asS'suggests'
p25
S'crda'
p26
ss(S'image'
p27
g5
NS'siduction-amd64'
p28
tp29
(dp30
S'configs'
p31
(lp32
S'kernelarch-x86/config-arch-64'
p33
ass(S'base'
p34
g5
S'none'
p35
tp36
(dp37
S'implicit-flavour'
p38
I01
sS'flavours'
p39
(lp40
S'siduction-amd64'
p41
ass(S'build'
p42
S'i386'
p43
NS'siduction-686-pae'
p44
tp45
(dp46
S'debug-info'
p47
I00
ss(S'base'
p48
g5
tp49
(dp50
S'kernel-arch'
p51
S'x86'
p52
sS'featuresets'
p53
(lp54
S'none'
p55
ag35
ass(S'description'
p56
g5
g35
S'siduction-amd64'
p57
tp58
(dp59
S'parts'
p60
(lp61
S'xen'
p62
ass(S'build'
p63
g43
tp64
(dp65
S'debug-info'
p66
I00
sS'image-file'
p67
S'arch/x86/boot/bzImage'
p68
ss(S'description'
p69
g43
NS'siduction-686'
p70
tp71
(dp72
S'hardware'
p73
S'modern PCs'
p74
sS'hardware-long'
p75
S'PCs with Intel Pentium Pro/II/III/4/4M/D/M, Xeon, Celeron, Core or Atom; AMD Geode LX/NX, Athlon (K7), Duron, Opteron, Sempron, Turion or Phenom; Transmeta Efficeon; VIA C3 "Nehemiah" or C7 processors'
p76
ss(S'xen'
p77
g5
g35
S'siduction-amd64'
p78
tp79
(dp80
S'flavours'
p81
(lp82
S'siduction-amd64'
p83
ass(S'base'
p84
g43
tp85
(dp86
S'kernel-arch'
p87
S'x86'
p88
sS'featuresets'
p89
(lp90
S'none'
p91
ass(S'image'
p92
tp93
(dp94
S'initramfs-generators'
p95
(lp96
S'initramfs-tools'
p97
aS'initramfs-fallback'
p98
asS'type'
p99
S'plain'
p100
ss(S'version'
p101
tp102
(dp103
S'abiname'
p104
S'4.5.6-towo.1'
p105
sS'source'
p106
V4.5-12
p107
sS'upstream'
p108
S'4.5'
p109
ss(S'description'
p110
g43
NS'siduction-686-pae'
p111
tp112
(dp113
S'hardware'
p114
S'modern PCs'
p115
sS'parts'
p116
(lp117
S'pae'
p118
asS'hardware-long'
p119
S'PCs with one or more processors supporting PAE'
p120
ss(S'description'
p121
tp122
(dp123
S'part-long-up'
p124
S'This kernel is not suitable for SMP (multi-processor,\nmulti-core or hyper-threaded) systems.'
p125
sS'part-long-xen'
p126
S'This kernel also runs on a Xen hypervisor.\nIt supports both privileged (dom0) and unprivileged (domU) operation.'
p127
ss(S'abi'
p128
tp129
(dp130
S'abiname'
p131
S'towo.1'
p132
ss(S'image'
p133
g43
tp134
(dp135
S'install-stem'
p136
S'vmlinuz'
p137
sS'configs'
p138
(lp139
sS'bootloaders'
p140
(lp141
S'grub-pc'
p142
aS'extlinux'
p143
aS'grub-efi-ia32'
p144
asS'suggests'
p145
S'crda'
p146
ss(S'image'
p147
g43
NS'siduction-686-pae'
p148
tp149
(dp150
S'configs'
p151
(lp152
S'kernelarch-x86/config-arch-32'
p153
aS'kernelarch-x86/config-arch-32-pae'
p154
asS'recommends'
p155
S'libc6-i686'
p156
ss(S'base'
p157
g43
S'none'
p158
tp159
(dp160
S'flavours'
p161
(lp162
S'siduction-686'
p163
aS'siduction-686-pae'
p164
ass(S'description'
p165
g43
tp166
(dp167
S'part-long-pae'
p168
S'This kernel requires PAE (Physical Address Extension)\nThis feature is supported by the Intel Pentium Pro/II/III/4/4M/D, Xeon,\nCore and Atom; AMD Geode NX, Athlon (K7), Duron, Opteron, Sempron,\nTurion or Phenom; Transmeta Efficeon; VIA C7; and some other processors.'
p169
ss(S'build'
p170
g5
tp171
(dp172
S'debug-info'
p173
I00
sS'image-file'
p174
S'arch/x86/boot/bzImage'
p175
ss(S'description'
p176
g43
g158
S'686-pae'
p177
tp178
(dp179
S'parts'
p180
(lp181
S'xen'
p182
ass(S'image'
p183
g43
NS'siduction-686'
p184
tp185
(dp186
S'configs'
p187
(lp188
S'kernelarch-x86/config-arch-32'
p189
asS'recommends'
p190
S'libc6-i686'
p191
ss(S'base'
p192
tp193
(dp194
S'arches'
p195
(lp196
S'amd64'
p197
aS'i386'
p198
asS'featuresets'
p199
(lp200
S'none'
p201
asS'compiler'
p202
S'gcc-5'
p203
ss(S'relations'
p204
tp205
(dp206
S'initramfs-fallback'
p207
S'linux-initramfs-tool'
p208
sS'gcc-4.9'
p209
S'gcc-4.9'
p210
sS'gcc-5'
p211
S'gcc-5'
p212
sS'initramfs-tools'
p213
S'initramfs-tools (>= 0.110~)'
p214
sstp215
Rp216
.