ccopy_reg
_reconstructor
p1
(cdebian_linux.config
ConfigCore
p2
c__builtin__
dict
p3
(dp4
(S'image'
S'amd64'
p5
tp6
(dp7
S'suggests'
p8
S'crda'
p9
sS'configs'
p10
(lp11
S'kernelarch-x86/config'
p12
asS'bootloaders'
p13
(lp14
S'grub-pc'
p15
aS'extlinux'
p16
aS'grub-efi-amd64'
p17
ass(S'siduction-686_image-dbg'
p18
S'i386'
p19
tp20
(dp21
S'enabled'
p22
S'false'
p23
ss(S'base'
p24
g5
S'none'
p25
tp26
(dp27
S'implicit-flavour'
p28
I01
sS'flavours'
p29
(lp30
S'siduction-amd64'
p31
ass(S'base'
g5
tp32
(dp33
S'kernel-arch'
p34
S'x86'
p35
sS'featuresets'
p36
(lp37
g25
ass(S'image'
p38
tp39
(dp40
S'initramfs-generators'
p41
(lp42
S'initramfs-tools'
p43
aS'initramfs-fallback'
p44
asS'type'
p45
S'plain'
p46
ss(S'image'
g19
S'none'
p47
S'siduction-686-pae'
tp48
(dp49
S'configs'
p50
(lp51
S'kernelarch-x86/config-arch-32'
p52
aS'kernelarch-x86/config-arch-32-pae'
p53
asS'recommends'
p54
S'libc6-i686'
p55
ss(S'version'
p56
tp57
(dp58
S'abiname'
p59
S'3.8-2.towo'
p60
sS'source'
p61
V3.8-5
p62
ss(S'description'
g19
g47
S'siduction-686-pae'
tp63
(dp64
S'hardware'
p65
S'modern PCs with pae support'
p66
sS'hardware-long'
p67
S'PCs with Intel Xeon, Core or Atom; AMD Geode LX/NX, Athlon (K7), Opteron, Sempron, Turion or Phenom; Transmeta Efficeon; C7 processors'
p68
ss(S'base'
p69
g19
tp70
(dp71
S'kernel-arch'
p72
S'x86'
p73
sS'featuresets'
p74
(lp75
S'none'
p76
ass(S'siduction-amd64-dbg'
g5
tp77
(dp78
S'enabled'
p79
S'false'
p80
ss(S'base'
g19
g47
tp81
(dp82
S'flavours'
p83
(lp84
S'siduction-686'
p85
aS'siduction-686-pae'
p86
ass(S'abi'
p87
tp88
(dp89
S'abiname'
p90
S'2.towo'
p91
ss(S'image'
p92
g19
tp93
(dp94
S'suggests'
p95
S'crda'
p96
sS'configs'
p97
(lp98
S'kernelarch-x86/config'
p99
asS'bootloaders'
p100
(lp101
S'grub-pc'
p102
aS'extlinux'
p103
ass(S'siduction-686-pae_image-dbg'
g19
g47
tp104
(dp105
S'enabled'
p106
S'false'
p107
ss(S'description'
g5
NS'siduction-amd64'
tp108
(dp109
S'hardware'
p110
S'64-bit PCs'
p111
sS'hardware-long'
p112
S'PCs with AMD64 or Intel 64 processors'
p113
ss(S'description'
g19
NS'siduction-686'
tp114
(dp115
S'hardware'
p116
S'modern PCs'
p117
sS'hardware-long'
p118
S'PCs with Intel Pentium Pro/II/III/4/4M/D/M, Xeon, Celeron, Core or Atom; AMD Geode LX/NX, Athlon (K7), Duron, Opteron, Sempron, Turion or Phenom; Transmeta Efficeon; VIA C3 "Nehemiah" or C7 processors'
p119
ss(S'base'
p120
tp121
(dp122
S'arches'
p123
(lp124
S'amd64'
p125
aS'i386'
p126
asS'featuresets'
p127
(lp128
S'none'
p129
asS'compiler'
p130
S'gcc-4.7'
p131
ss(S'relations'
p132
tp133
(dp134
S'initramfs-fallback'
p135
S'linux-initramfs-tool'
p136
sS'lilo'
p137
S'lilo (>= 22.8-8.2~)'
p138
sS'gcc-4.7'
p139
S'gcc-4.7'
p140
sS'initramfs-tools'
p141
S'initramfs-tools (>= 0.110~)'
p142
sS'elilo'
p143
S'elilo (>= 3.12-3.1~)'
p144
ss(S'image'
g5
NS'siduction-amd64'
tp145
(dp146
S'configs'
p147
(lp148
S'kernelarch-x86/config-arch-64'
p149
ass(S'image'
g19
NS'siduction-686'
tp150
(dp151
S'configs'
p152
(lp153
S'kernelarch-x86/config-arch-32'
p154
asS'recommends'
p155
S'libc6-i686'
p156
sstRp157
.