ccopy_reg
_reconstructor
p1
(cdebian_linux.config
ConfigCore
p2
c__builtin__
dict
p3
(dp4
(S'image'
S'amd64'
p5
tp6
(dp7
S'suggests'
p8
S'crda'
p9
sS'configs'
p10
(lp11
S'kernelarch-x86/config'
p12
asS'bootloaders'
p13
(lp14
S'grub-pc'
p15
aS'extlinux'
p16
aS'grub-efi-amd64'
p17
ass(S'description'
g5
NS'siduction-amd64'
tp18
(dp19
S'hardware'
p20
S'64-bit PCs'
p21
sS'hardware-long'
p22
S'PCs with AMD64 or Intel 64 processors'
p23
ss(S'base'
p24
g5
S'none'
p25
tp26
(dp27
S'implicit-flavour'
p28
I01
sS'flavours'
p29
(lp30
S'siduction-amd64'
p31
ass(S'image'
S'i386'
p32
NS'siduction-686'
tp33
(dp34
S'configs'
p35
(lp36
S'kernelarch-x86/config-arch-32'
p37
asS'recommends'
p38
S'libc6-i686'
p39
ss(S'image'
g5
NS'siduction-amd64'
tp40
(dp41
S'configs'
p42
(lp43
S'kernelarch-x86/config-arch-64'
p44
ass(S'base'
g5
tp45
(dp46
S'kernel-arch'
p47
S'x86'
p48
sS'featuresets'
p49
(lp50
g25
ass(S'image'
p51
tp52
(dp53
S'initramfs-generators'
p54
(lp55
S'initramfs-tools'
p56
aS'initramfs-fallback'
p57
asS'type'
p58
S'plain'
p59
ss(S'image'
g32
S'none'
p60
S'siduction-686-pae'
tp61
(dp62
S'configs'
p63
(lp64
S'kernelarch-x86/config-arch-32'
p65
aS'kernelarch-x86/config-arch-32-pae'
p66
asS'recommends'
p67
S'libc6-i686'
p68
ss(S'version'
p69
tp70
(dp71
S'abiname'
p72
S'3.8-0.towo'
p73
sS'source'
p74
V3.8-1
p75
ss(S'description'
g32
g60
S'siduction-686-pae'
tp76
(dp77
S'hardware'
p78
S'modern PCs with pae support'
p79
sS'hardware-long'
p80
S'PCs with Intel Xeon, Core or Atom; AMD Geode LX/NX, Athlon (K7), Opteron, Sempron, Turion or Phenom; Transmeta Efficeon; C7 processors'
p81
ss(S'base'
p82
g32
tp83
(dp84
S'kernel-arch'
p85
S'x86'
p86
sS'featuresets'
p87
(lp88
S'none'
p89
ass(S'description'
g32
NS'siduction-686'
tp90
(dp91
S'hardware'
p92
S'modern PCs'
p93
sS'hardware-long'
p94
S'PCs with Intel Pentium Pro/II/III/4/4M/D/M, Xeon, Celeron, Core or Atom; AMD Geode LX/NX, Athlon (K7), Duron, Opteron, Sempron, Turion or Phenom; Transmeta Efficeon; VIA C3 "Nehemiah" or C7 processors'
p95
ss(S'siduction-686_image-dbg'
p96
g32
tp97
(dp98
S'enabled'
p99
S'false'
p100
ss(S'siduction-amd64-dbg'
g5
tp101
(dp102
S'enabled'
p103
S'false'
p104
ss(S'base'
g32
g60
tp105
(dp106
S'flavours'
p107
(lp108
S'siduction-686'
p109
aS'siduction-686-pae'
p110
ass(S'abi'
p111
tp112
(dp113
S'abiname'
p114
S'0.towo'
p115
ss(S'image'
p116
g32
tp117
(dp118
S'suggests'
p119
S'crda'
p120
sS'configs'
p121
(lp122
S'kernelarch-x86/config'
p123
asS'bootloaders'
p124
(lp125
S'grub-pc'
p126
aS'extlinux'
p127
ass(S'siduction-686-pae_image-dbg'
g32
g60
tp128
(dp129
S'enabled'
p130
S'false'
p131
ss(S'base'
p132
tp133
(dp134
S'arches'
p135
(lp136
S'amd64'
p137
aS'i386'
p138
asS'featuresets'
p139
(lp140
S'none'
p141
asS'compiler'
p142
S'gcc-4.7'
p143
ss(S'relations'
p144
tp145
(dp146
S'initramfs-fallback'
p147
S'linux-initramfs-tool'
p148
sS'lilo'
p149
S'lilo (>= 22.8-8.2~)'
p150
sS'gcc-4.7'
p151
S'gcc-4.7'
p152
sS'initramfs-tools'
p153
S'initramfs-tools (>= 0.99~)'
p154
sS'elilo'
p155
S'elilo (>= 3.12-3.1~)'
p156
sstRp157
.