ccopy_reg
_reconstructor
p1
(cdebian_linux.config
ConfigCore
p2
c__builtin__
dict
p3
(dp4
(S'image'
S'amd64'
p5
tp6
(dp7
S'suggests'
p8
S'crda'
p9
sS'configs'
p10
(lp11
S'kernelarch-x86/config'
p12
asS'bootloaders'
p13
(lp14
S'grub-pc'
p15
aS'extlinux'
p16
aS'grub-efi-amd64'
p17
ass(S'siduction-686_image-dbg'
p18
S'i386'
p19
tp20
(dp21
S'enabled'
p22
S'false'
p23
ss(S'base'
p24
g5
S'none'
p25
tp26
(dp27
S'implicit-flavour'
p28
I01
sS'flavours'
p29
(lp30
S'siduction-amd64'
p31
ass(S'base'
g5
tp32
(dp33
S'kernel-arch'
p34
S'x86'
p35
sS'featuresets'
p36
(lp37
g25
ass(S'image'
p38
tp39
(dp40
S'initramfs-generators'
p41
(lp42
S'initramfs-tools'
p43
aS'initramfs-fallback'
p44
asS'type'
p45
S'plain'
p46
ss(S'image'
g5
NS'siduction-amd64'
tp47
(dp48
S'configs'
p49
(lp50
S'kernelarch-x86/config-arch-64'
p51
ass(S'image'
g19
S'none'
p52
S'siduction-686-pae'
tp53
(dp54
S'configs'
p55
(lp56
S'kernelarch-x86/config-arch-32'
p57
aS'kernelarch-x86/config-arch-32-pae'
p58
asS'recommends'
p59
S'libc6-i686'
p60
ss(S'image'
p61
g19
tp62
(dp63
S'suggests'
p64
S'crda'
p65
sS'configs'
p66
(lp67
S'kernelarch-x86/config'
p68
asS'bootloaders'
p69
(lp70
S'grub-pc'
p71
aS'extlinux'
p72
ass(S'version'
p73
tp74
(dp75
S'abiname'
p76
S'3.7-0.towo'
p77
sS'source'
p78
V3.7-3
p79
ss(S'description'
g19
g52
S'siduction-686-pae'
tp80
(dp81
S'hardware'
p82
S'modern PCs with pae support'
p83
sS'hardware-long'
p84
S'PCs with Intel Xeon, Core or Atom; AMD Geode LX/NX, Athlon (K7), Opteron, Sempron, Turion or Phenom; Transmeta Efficeon; C7 processors'
p85
ss(S'base'
p86
g19
tp87
(dp88
S'kernel-arch'
p89
S'x86'
p90
sS'featuresets'
p91
(lp92
S'none'
p93
ass(S'description'
g5
NS'siduction-amd64'
tp94
(dp95
S'hardware'
p96
S'64-bit PCs'
p97
sS'hardware-long'
p98
S'PCs with AMD64 or Intel 64 processors'
p99
ss(S'description'
g19
NS'siduction-686'
tp100
(dp101
S'hardware'
p102
S'modern PCs'
p103
sS'hardware-long'
p104
S'PCs with Intel Pentium Pro/II/III/4/4M/D/M, Xeon, Celeron, Core or Atom; AMD Geode LX/NX, Athlon (K7), Duron, Opteron, Sempron, Turion or Phenom; Transmeta Efficeon; VIA C3 "Nehemiah" or C7 processors'
p105
ss(S'siduction-amd64-dbg'
g5
tp106
(dp107
S'enabled'
p108
S'false'
p109
ss(S'base'
g19
g52
tp110
(dp111
S'flavours'
p112
(lp113
S'siduction-686'
p114
aS'siduction-686-pae'
p115
ass(S'abi'
p116
tp117
(dp118
S'abiname'
p119
S'0.towo'
p120
ss(S'image'
g19
NS'siduction-686'
tp121
(dp122
S'configs'
p123
(lp124
S'kernelarch-x86/config-arch-32'
p125
asS'recommends'
p126
S'libc6-i686'
p127
ss(S'siduction-686-pae_image-dbg'
g19
g52
tp128
(dp129
S'enabled'
p130
S'false'
p131
ss(S'base'
p132
tp133
(dp134
S'arches'
p135
(lp136
S'amd64'
p137
aS'i386'
p138
asS'featuresets'
p139
(lp140
S'none'
p141
asS'compiler'
p142
S'gcc-4.7'
p143
ss(S'relations'
p144
tp145
(dp146
S'initramfs-fallback'
p147
S'linux-initramfs-tool'
p148
sS'lilo'
p149
S'lilo (>= 22.8-8.2~)'
p150
sS'gcc-4.7'
p151
S'gcc-4.7'
p152
sS'initramfs-tools'
p153
S'initramfs-tools (>= 0.99~)'
p154
sS'elilo'
p155
S'elilo (>= 3.12-3.1~)'
p156
sstRp157
.