ccopy_reg
_reconstructor
p0
(cdebian_linux.config
ConfigCore
p1
c__builtin__
dict
p2
(dp3
(Vdescription
p4
Vi386
p5
Vnone
p6
V686-pae
p7
tp8
(dp9
Vparts
p10
(lp11
Vxen
p12
ass(Vimage
p13
g5
tp14
(dp15
Vbootloaders
p16
(lp17
Vgrub-pc
p18
aVextlinux
p19
aVgrub-efi-ia32
p20
asVinstall-stem
p21
Vvmlinuz
p22
sVconfigs
p23
(lp24
sVsuggests
p25
Vcrda
p26
ss(Vversion
p27
tp28
(dp29
Vabiname
p30
V4.6.2-towo.1
p31
sVsource
p32
V4.6-2
p33
sVabiname_base
p34
V4.6.2
p35
sVupstream
p36
V4.6
p37
ss(Vxen
p38
Vamd64
p39
Vnone
p40
Vsiduction-amd64
p41
tp42
(dp43
Vflavours
p44
(lp45
Vsiduction-amd64
p46
ass(Vbuild
p47
g5
tp48
(dp49
Vimage-file
p50
Varch/x86/boot/bzImage
p51
sVdebug-info
p52
I00
ss(Vimage
p53
g5
NVsiduction-686
p54
tp55
(dp56
Vconfigs
p57
(lp58
Vkernelarch-x86/config-arch-32
p59
asVrecommends
p60
Vlibc6-i686
p61
ss(Vbuild
p62
g5
NVsiduction-686-pae
p63
tp64
(dp65
Vdebug-info
p66
I00
ss(Vbase
p67
tp68
(dp69
Vcompiler
p70
Vgcc-6
p71
sVarches
p72
(lp73
Vamd64
p74
aVi386
p75
asVfeaturesets
p76
(lp77
Vnone
p78
ass(Vdescription
p79
tp80
(dp81
Vpart-long-up
p82
VThis kernel is not suitable for SMP (multi-processor,\u000amulti-core or hyper-threaded) systems.
p83
sVpart-long-xen
p84
VThis kernel also runs on a Xen hypervisor.\u000aIt supports both privileged (dom0) and unprivileged (domU) operation.
p85
ss(Vbase
p86
g39
tp87
(dp88
Vkernel-arch
p89
Vx86
p90
sVfeaturesets
p91
(lp92
Vnone
p93
ag40
ass(Vdescription
p94
g39
g40
Vsiduction-amd64
p95
tp96
(dp97
Vparts
p98
(lp99
Vxen
p100
ass(Vdescription
p101
g5
NVsiduction-686-pae
p102
tp103
(dp104
Vhardware-long
p105
VPCs with one or more processors supporting PAE
p106
sVparts
p107
(lp108
Vpae
p109
asVhardware
p110
Vmodern PCs
p111
ss(Vimage
p112
g39
NVsiduction-amd64
p113
tp114
(dp115
Vconfigs
p116
(lp117
Vkernelarch-x86/config-arch-64
p118
ass(Vbase
p119
g5
tp120
(dp121
Vfeaturesets
p122
(lp123
Vnone
p124
asVkernel-arch
p125
Vx86
p126
ss(Vimage
p127
g5
NVsiduction-686-pae
p128
tp129
(dp130
Vconfigs
p131
(lp132
Vkernelarch-x86/config-arch-32
p133
aVkernelarch-x86/config-arch-32-pae
p134
asVrecommends
p135
Vlibc6-i686
p136
ss(Vrelations
p137
tp138
(dp139
Vinitramfs-tools
p140
Vinitramfs-tools (>= 0.110~)
p141
sVinitramfs-fallback
p142
Vlinux-initramfs-tool
p143
sVgcc-6
p144
Vgcc-6
p145
ss(Vdescription
p146
g5
NVsiduction-686
p147
tp148
(dp149
Vhardware-long
p150
VPCs with Intel Pentium Pro/II/III/4/4M/D/M, Xeon, Celeron, Core or Atom; AMD Geode LX/NX, Athlon (K7), Duron, Opteron, Sempron, Turion or Phenom; Transmeta Efficeon; VIA C3 "Nehemiah" or C7 processors
p151
sVhardware
p152
Vmodern PCs
p153
ss(Vimage
p154
tp155
(dp156
Vinitramfs-generators
p157
(lp158
Vinitramfs-tools
p159
aVinitramfs-fallback
p160
asVtype
p161
Vplain
p162
ss(Vdescription
p163
g5
tp164
(dp165
Vpart-long-pae
p166
VThis kernel requires PAE (Physical Address Extension)\u000aThis feature is supported by the Intel Pentium Pro/II/III/4/4M/D, Xeon,\u000aCore and Atom; AMD Geode NX, Athlon (K7), Duron, Opteron, Sempron,\u000aTurion or Phenom; Transmeta Efficeon; VIA C7; and some other processors.
p167
ss(Vbuild
p168
g39
tp169
(dp170
Vimage-file
p171
Varch/x86/boot/bzImage
p172
sVdebug-info
p173
I00
ss(Vimage
p174
g39
tp175
(dp176
Vbootloaders
p177
(lp178
Vgrub-pc
p179
aVextlinux
p180
aVgrub-efi-amd64
p181
asVinstall-stem
p182
Vvmlinuz
p183
sVconfigs
p184
(lp185
sVsuggests
p186
Vcrda
p187
ss(Vbase
p188
g39
g40
tp189
(dp190
Vimplicit-flavour
p191
I01
sVflavours
p192
(lp193
Vsiduction-amd64
p194
ass(Vabi
p195
tp196
(dp197
Vabiname
p198
Vtowo.1
p199
ss(Vbase
p200
g5
g6
tp201
(dp202
Vflavours
p203
(lp204
Vsiduction-686
p205
aVsiduction-686-pae
p206
ass(Vdescription
p207
g39
NVsiduction-amd64
p208
tp209
(dp210
Vhardware-long
p211
VPCs with AMD64 or Intel 64 processors
p212
sVhardware
p213
V64-bit PCs
p214
sstp215
Rp216
.