ccopy_reg
_reconstructor
p0
(cdebian_linux.config
ConfigCore
p1
c__builtin__
dict
p2
(dp3
(Vimage
p4
tp5
(dp6
Vtype
p7
Vplain
p8
sVinitramfs-generators
p9
(lp10
Vinitramfs-tools
p11
aVinitramfs-fallback
p12
ass(Vdescription
p13
Vamd64
p14
Vnone
p15
Vsiduction-amd64
p16
tp17
(dp18
Vparts
p19
(lp20
Vxen
p21
ass(Vdescription
p22
tp23
(dp24
Vpart-long-up
p25
VThis kernel is not suitable for SMP (multi-processor,\u000amulti-core or hyper-threaded) systems.
p26
sVpart-long-xen
p27
VThis kernel also runs on a Xen hypervisor.\u000aIt supports both privileged (dom0) and unprivileged (domU) operation.
p28
ss(Vbase
p29
Vi386
p30
Vnone
p31
tp32
(dp33
Vflavours
p34
(lp35
Vsiduction-686
p36
aVsiduction-686-pae
p37
ass(Vimage
p38
g30
tp39
(dp40
Vsuggests
p41
Vcrda
p42
sVconfigs
p43
(lp44
sVbootloaders
p45
(lp46
Vgrub-pc
p47
aVextlinux
p48
aVgrub-efi-ia32
p49
asVinstall-stem
p50
Vvmlinuz
p51
ss(Vbuild
p52
g30
NVsiduction-686-pae
p53
tp54
(dp55
Vdebug-info
p56
I00
ss(Vabi
p57
tp58
(dp59
Vabiname
p60
Vtowo.1
p61
ss(Vimage
p62
g30
NVsiduction-686
p63
tp64
(dp65
Vconfigs
p66
(lp67
Vkernelarch-x86/config-arch-32
p68
asVrecommends
p69
Vlibc6-i686
p70
ss(Vbase
p71
tp72
(dp73
Vcompiler
p74
Vgcc-6
p75
sVfeaturesets
p76
(lp77
Vnone
p78
asVarches
p79
(lp80
Vamd64
p81
aVi386
p82
ass(Vrelations
p83
tp84
(dp85
Vgcc-6
p86
Vgcc-6
p87
sVinitramfs-tools
p88
Vinitramfs-tools (>= 0.110~)
p89
sVinitramfs-fallback
p90
Vlinux-initramfs-tool
p91
ss(Vbuild
p92
g30
tp93
(dp94
Vimage-file
p95
Varch/x86/boot/bzImage
p96
sVdebug-info
p97
I00
ss(Vdescription
p98
g14
NVsiduction-amd64
p99
tp100
(dp101
Vhardware-long
p102
VPCs with AMD64 or Intel 64 processors
p103
sVhardware
p104
V64-bit PCs
p105
ss(Vbase
p106
g14
g15
tp107
(dp108
Vflavours
p109
(lp110
Vsiduction-amd64
p111
asVimplicit-flavour
p112
I01
ss(Vdescription
p113
g30
NVsiduction-686
p114
tp115
(dp116
Vhardware-long
p117
VPCs with Intel Pentium Pro/II/III/4/4M/D/M, Xeon, Celeron, Core or Atom; AMD Geode LX/NX, Athlon (K7), Duron, Opteron, Sempron, Turion or Phenom; Transmeta Efficeon; VIA C3 "Nehemiah" or C7 processors
p118
sVhardware
p119
Vmodern PCs
p120
ss(Vbuild
p121
g14
tp122
(dp123
Vimage-file
p124
Varch/x86/boot/bzImage
p125
sVdebug-info
p126
I00
ss(Vdescription
p127
g30
NVsiduction-686-pae
p128
tp129
(dp130
Vparts
p131
(lp132
Vpae
p133
asVhardware-long
p134
VPCs with one or more processors supporting PAE
p135
sVhardware
p136
Vmodern PCs
p137
ss(Vxen
p138
g14
g15
Vsiduction-amd64
p139
tp140
(dp141
Vflavours
p142
(lp143
Vsiduction-amd64
p144
ass(Vbase
p145
g30
tp146
(dp147
Vkernel-arch
p148
Vx86
p149
sVfeaturesets
p150
(lp151
Vnone
p152
ass(Vimage
p153
g30
NVsiduction-686-pae
p154
tp155
(dp156
Vconfigs
p157
(lp158
Vkernelarch-x86/config-arch-32
p159
aVkernelarch-x86/config-arch-32-pae
p160
asVrecommends
p161
Vlibc6-i686
p162
ss(Vdescription
p163
g30
g31
V686-pae
p164
tp165
(dp166
Vparts
p167
(lp168
Vxen
p169
ass(Vversion
p170
tp171
(dp172
Vabiname_base
p173
V4.6.1
p174
sVabiname
p175
V4.6.1-towo.1
p176
sVupstream
p177
V4.6
p178
sVsource
p179
V4.6-0~exp3
p180
ss(Vimage
p181
g14
NVsiduction-amd64
p182
tp183
(dp184
Vconfigs
p185
(lp186
Vkernelarch-x86/config-arch-64
p187
ass(Vbase
p188
g14
tp189
(dp190
Vkernel-arch
p191
Vx86
p192
sVfeaturesets
p193
(lp194
Vnone
p195
ag15
ass(Vdescription
p196
g30
tp197
(dp198
Vpart-long-pae
p199
VThis kernel requires PAE (Physical Address Extension)\u000aThis feature is supported by the Intel Pentium Pro/II/III/4/4M/D, Xeon,\u000aCore and Atom; AMD Geode NX, Athlon (K7), Duron, Opteron, Sempron,\u000aTurion or Phenom; Transmeta Efficeon; VIA C7; and some other processors.
p200
ss(Vimage
p201
g14
tp202
(dp203
Vsuggests
p204
Vcrda
p205
sVconfigs
p206
(lp207
sVbootloaders
p208
(lp209
Vgrub-pc
p210
aVextlinux
p211
aVgrub-efi-amd64
p212
asVinstall-stem
p213
Vvmlinuz
p214
sstp215
Rp216
.