ccopy_reg
_reconstructor
p0
(cdebian_linux.config
ConfigCore
p1
c__builtin__
dict
p2
(dp3
(Vxen
p4
Vamd64
p5
Vnone
p6
Vsiduction-amd64
p7
tp8
(dp9
Vflavours
p10
(lp11
Vsiduction-amd64
p12
ass(Vdescription
p13
Vi386
p14
NVsiduction-686
p15
tp16
(dp17
Vhardware
p18
Vmodern PCs
p19
sVhardware-long
p20
VPCs with Intel Pentium Pro/II/III/4/4M/D/M, Xeon, Celeron, Core or Atom; AMD Geode LX/NX, Athlon (K7), Duron, Opteron, Sempron, Turion or Phenom; Transmeta Efficeon; VIA C3 "Nehemiah" or C7 processors
p21
ss(Vimage
p22
tp23
(dp24
Vinitramfs-generators
p25
(lp26
Vinitramfs-tools
p27
aVinitramfs-fallback
p28
asVtype
p29
Vplain
p30
ss(Vbase
p31
g5
tp32
(dp33
Vkernel-arch
p34
Vx86
p35
sVfeaturesets
p36
(lp37
Vnone
p38
ag6
ass(Vbuild
p39
g14
NVsiduction-686-pae
p40
tp41
(dp42
Vdebug-info
p43
I00
ss(Vimage
p44
g5
tp45
(dp46
Vconfigs
p47
(lp48
sVsuggests
p49
Vcrda
p50
sVinstall-stem
p51
Vvmlinuz
p52
sVbootloaders
p53
(lp54
Vgrub-pc
p55
aVextlinux
p56
aVgrub-efi-amd64
p57
ass(Vdescription
p58
g14
tp59
(dp60
Vpart-long-pae
p61
VThis kernel requires PAE (Physical Address Extension)\u000aThis feature is supported by the Intel Pentium Pro/II/III/4/4M/D, Xeon,\u000aCore and Atom; AMD Geode NX, Athlon (K7), Duron, Opteron, Sempron,\u000aTurion or Phenom; Transmeta Efficeon; VIA C7; and some other processors.
p62
ss(Vversion
p63
tp64
(dp65
Vsource
p66
V4.6-5
p67
sVabiname
p68
V4.6.4-towo.1
p69
sVabiname_base
p70
V4.6.4
p71
sVupstream
p72
V4.6
p73
ss(Vbase
p74
tp75
(dp76
Vcompiler
p77
Vgcc-6
p78
sVarches
p79
(lp80
Vamd64
p81
aVi386
p82
asVfeaturesets
p83
(lp84
Vnone
p85
ass(Vbase
p86
g14
tp87
(dp88
Vkernel-arch
p89
Vx86
p90
sVfeaturesets
p91
(lp92
Vnone
p93
ass(Vbuild
p94
g5
tp95
(dp96
Vimage-file
p97
Varch/x86/boot/bzImage
p98
sVdebug-info
p99
I00
ss(Vdescription
p100
g14
NVsiduction-686-pae
p101
tp102
(dp103
Vparts
p104
(lp105
Vpae
p106
asVhardware
p107
Vmodern PCs
p108
sVhardware-long
p109
VPCs with one or more processors supporting PAE
p110
ss(Vdescription
p111
tp112
(dp113
Vpart-long-up
p114
VThis kernel is not suitable for SMP (multi-processor,\u000amulti-core or hyper-threaded) systems.
p115
sVpart-long-xen
p116
VThis kernel also runs on a Xen hypervisor.\u000aIt supports both privileged (dom0) and unprivileged (domU) operation.
p117
ss(Vbase
p118
g14
Vnone
p119
tp120
(dp121
Vflavours
p122
(lp123
Vsiduction-686
p124
aVsiduction-686-pae
p125
ass(Vabi
p126
tp127
(dp128
Vabiname
p129
Vtowo.1
p130
ss(Vbuild
p131
g14
tp132
(dp133
Vimage-file
p134
Varch/x86/boot/bzImage
p135
sVdebug-info
p136
I00
ss(Vbase
p137
g5
g6
tp138
(dp139
Vflavours
p140
(lp141
Vsiduction-amd64
p142
asVimplicit-flavour
p143
I01
ss(Vdescription
p144
g5
NVsiduction-amd64
p145
tp146
(dp147
Vhardware
p148
V64-bit PCs
p149
sVhardware-long
p150
VPCs with AMD64 or Intel 64 processors
p151
ss(Vrelations
p152
tp153
(dp154
Vinitramfs-fallback
p155
Vlinux-initramfs-tool
p156
sVinitramfs-tools
p157
Vinitramfs-tools (>= 0.110~)
p158
sVgcc-6
p159
Vgcc-6
p160
ss(Vimage
p161
g14
tp162
(dp163
Vconfigs
p164
(lp165
sVsuggests
p166
Vcrda
p167
sVinstall-stem
p168
Vvmlinuz
p169
sVbootloaders
p170
(lp171
Vgrub-pc
p172
aVextlinux
p173
aVgrub-efi-ia32
p174
ass(Vimage
p175
g14
NVsiduction-686
p176
tp177
(dp178
Vconfigs
p179
(lp180
Vkernelarch-x86/config-arch-32
p181
asVrecommends
p182
Vlibc6-i686
p183
ss(Vimage
p184
g14
NVsiduction-686-pae
p185
tp186
(dp187
Vconfigs
p188
(lp189
Vkernelarch-x86/config-arch-32
p190
aVkernelarch-x86/config-arch-32-pae
p191
asVrecommends
p192
Vlibc6-i686
p193
ss(Vdescription
p194
g5
g6
Vsiduction-amd64
p195
tp196
(dp197
Vparts
p198
(lp199
Vxen
p200
ass(Vimage
p201
g5
NVsiduction-amd64
p202
tp203
(dp204
Vconfigs
p205
(lp206
Vkernelarch-x86/config-arch-64
p207
ass(Vdescription
p208
g14
g119
V686-pae
p209
tp210
(dp211
Vparts
p212
(lp213
Vxen
p214
asstp215
Rp216
.