ccopy_reg
_reconstructor
p0
(cdebian_linux.config
ConfigCore
p1
c__builtin__
dict
p2
(dp3
(Vbase
p4
Vamd64
p5
tp6
(dp7
Vfeaturesets
p8
(lp9
Vnone
p10
aVnone
p11
asVkernel-arch
p12
Vx86
p13
ss(Vimage
p14
tp15
(dp16
Vtype
p17
Vplain
p18
sVinitramfs-generators
p19
(lp20
Vinitramfs-tools
p21
aVinitramfs-fallback
p22
ass(Vimage
p23
g5
NVsiduction-amd64
p24
tp25
(dp26
Vconfigs
p27
(lp28
Vkernelarch-x86/config-arch-64
p29
ass(Vbuild
p30
Vi386
p31
tp32
(dp33
Vimage-file
p34
Varch/x86/boot/bzImage
p35
sVdebug-info
p36
I00
ss(Vbase
p37
tp38
(dp39
Varches
p40
(lp41
Vamd64
p42
aVi386
p43
asVcompiler
p44
Vgcc-6
p45
sVfeaturesets
p46
(lp47
Vnone
p48
ass(Vdescription
p49
tp50
(dp51
Vpart-long-up
p52
VThis kernel is not suitable for SMP (multi-processor,\u000amulti-core or hyper-threaded) systems.
p53
sVpart-long-xen
p54
VThis kernel also runs on a Xen hypervisor.\u000aIt supports both privileged (dom0) and unprivileged (domU) operation.
p55
ss(Vdescription
p56
g5
NVsiduction-amd64
p57
tp58
(dp59
Vhardware
p60
V64-bit PCs
p61
sVhardware-long
p62
VPCs with AMD64 or Intel 64 processors
p63
ss(Vimage
p64
g31
NVsiduction-686-pae
p65
tp66
(dp67
Vrecommends
p68
Vlibc6-i686
p69
sVconfigs
p70
(lp71
Vkernelarch-x86/config-arch-32
p72
aVkernelarch-x86/config-arch-32-pae
p73
ass(Vdescription
p74
g31
tp75
(dp76
Vpart-long-pae
p77
VThis kernel requires PAE (Physical Address Extension)\u000aThis feature is supported by the Intel Pentium Pro/II/III/4/4M/D, Xeon,\u000aCore and Atom; AMD Geode NX, Athlon (K7), Duron, Opteron, Sempron,\u000aTurion or Phenom; Transmeta Efficeon; VIA C7; and some other processors.
p78
ss(Vdescription
p79
g5
g11
Vsiduction-amd64
p80
tp81
(dp82
Vparts
p83
(lp84
Vxen
p85
ass(Vimage
p86
g5
tp87
(dp88
Vinstall-stem
p89
Vvmlinuz
p90
sVsuggests
p91
Vcrda
p92
sVconfigs
p93
(lp94
sVbootloaders
p95
(lp96
Vgrub-pc
p97
aVextlinux
p98
aVgrub-efi-amd64
p99
ass(Vbuild
p100
g31
NVsiduction-686-pae
p101
tp102
(dp103
Vdebug-info
p104
I00
ss(Vbase
p105
g5
g11
tp106
(dp107
Vflavours
p108
(lp109
Vsiduction-amd64
p110
asVimplicit-flavour
p111
I01
ss(Vrelations
p112
tp113
(dp114
Vgcc-6
p115
Vgcc-6
p116
sVinitramfs-tools
p117
Vinitramfs-tools (>= 0.110~)
p118
sVinitramfs-fallback
p119
Vlinux-initramfs-tool
p120
ss(Vversion
p121
tp122
(dp123
Vsource
p124
V4.6-6
p125
sVabiname
p126
V4.6.5-towo.1
p127
sVabiname_base
p128
V4.6.5
p129
sVupstream
p130
V4.6
p131
ss(Vabi
p132
tp133
(dp134
Vabiname
p135
Vtowo.1
p136
ss(Vdescription
p137
g31
NVsiduction-686
p138
tp139
(dp140
Vhardware
p141
Vmodern PCs
p142
sVhardware-long
p143
VPCs with Intel Pentium Pro/II/III/4/4M/D/M, Xeon, Celeron, Core or Atom; AMD Geode LX/NX, Athlon (K7), Duron, Opteron, Sempron, Turion or Phenom; Transmeta Efficeon; VIA C3 "Nehemiah" or C7 processors
p144
ss(Vimage
p145
g31
NVsiduction-686
p146
tp147
(dp148
Vrecommends
p149
Vlibc6-i686
p150
sVconfigs
p151
(lp152
Vkernelarch-x86/config-arch-32
p153
ass(Vxen
p154
g5
g11
Vsiduction-amd64
p155
tp156
(dp157
Vflavours
p158
(lp159
Vsiduction-amd64
p160
ass(Vdescription
p161
g31
NVsiduction-686-pae
p162
tp163
(dp164
Vhardware
p165
Vmodern PCs
p166
sVparts
p167
(lp168
Vpae
p169
asVhardware-long
p170
VPCs with one or more processors supporting PAE
p171
ss(Vdescription
p172
g31
Vnone
p173
V686-pae
p174
tp175
(dp176
Vparts
p177
(lp178
Vxen
p179
ass(Vbase
p180
g31
tp181
(dp182
Vfeaturesets
p183
(lp184
Vnone
p185
asVkernel-arch
p186
Vx86
p187
ss(Vimage
p188
g31
tp189
(dp190
Vinstall-stem
p191
Vvmlinuz
p192
sVsuggests
p193
Vcrda
p194
sVconfigs
p195
(lp196
sVbootloaders
p197
(lp198
Vgrub-pc
p199
aVextlinux
p200
aVgrub-efi-ia32
p201
ass(Vbuild
p202
g5
tp203
(dp204
Vimage-file
p205
Varch/x86/boot/bzImage
p206
sVdebug-info
p207
I00
ss(Vbase
p208
g31
g173
tp209
(dp210
Vflavours
p211
(lp212
Vsiduction-686
p213
aVsiduction-686-pae
p214
asstp215
Rp216
.