ccopy_reg
_reconstructor
p0
(cdebian_linux.config
ConfigCore
p1
c__builtin__
dict
p2
(dp3
(Vbase
p4
Vi386
p5
Vnone
p6
tp7
(dp8
Vflavours
p9
(lp10
Vsiduction-686
p11
aVsiduction-686-pae
p12
ass(Vdescription
p13
Vamd64
p14
Vnone
p15
Vsiduction-amd64
p16
tp17
(dp18
Vparts
p19
(lp20
Vxen
p21
ass(Vimage
p22
tp23
(dp24
Vinitramfs-generators
p25
(lp26
Vinitramfs-tools
p27
aVinitramfs-fallback
p28
asVtype
p29
Vplain
p30
ss(Vimage
p31
g14
tp32
(dp33
Vsuggests
p34
Vcrda
p35
sVbootloaders
p36
(lp37
Vgrub-pc
p38
aVextlinux
p39
aVgrub-efi-amd64
p40
asVconfigs
p41
(lp42
sVinstall-stem
p43
Vvmlinuz
p44
ss(Vbuild
p45
g5
NVsiduction-686-pae
p46
tp47
(dp48
Vdebug-info
p49
I00
ss(Vbuild
p50
g5
tp51
(dp52
Vdebug-info
p53
I00
sVimage-file
p54
Varch/x86/boot/bzImage
p55
ss(Vdescription
p56
g5
NVsiduction-686
p57
tp58
(dp59
Vhardware
p60
Vmodern PCs
p61
sVhardware-long
p62
VPCs with Intel Pentium Pro/II/III/4/4M/D/M, Xeon, Celeron, Core or Atom; AMD Geode LX/NX, Athlon (K7), Duron, Opteron, Sempron, Turion or Phenom; Transmeta Efficeon; VIA C3 "Nehemiah" or C7 processors
p63
ss(Vimage
p64
g5
tp65
(dp66
Vsuggests
p67
Vcrda
p68
sVbootloaders
p69
(lp70
Vgrub-pc
p71
aVextlinux
p72
aVgrub-efi-ia32
p73
asVconfigs
p74
(lp75
sVinstall-stem
p76
Vvmlinuz
p77
ss(Vdescription
p78
g14
NVsiduction-amd64
p79
tp80
(dp81
Vhardware
p82
V64-bit PCs
p83
sVhardware-long
p84
VPCs with AMD64 or Intel 64 processors
p85
ss(Vbuild
p86
g14
tp87
(dp88
Vdebug-info
p89
I00
sVimage-file
p90
Varch/x86/boot/bzImage
p91
ss(Vimage
p92
g14
NVsiduction-amd64
p93
tp94
(dp95
Vconfigs
p96
(lp97
Vkernelarch-x86/config-arch-64
p98
ass(Vbase
p99
tp100
(dp101
Varches
p102
(lp103
Vamd64
p104
aVi386
p105
asVcompiler
p106
Vgcc-6
p107
sVfeaturesets
p108
(lp109
Vnone
p110
ass(Vabi
p111
tp112
(dp113
Vabiname
p114
Vtowo.2
p115
ss(Vversion
p116
tp117
(dp118
Vupstream
p119
V4.6
p120
sVsource
p121
V4.6-3
p122
sVabiname_base
p123
V4.6.2
p124
sVabiname
p125
V4.6.2-towo.2
p126
ss(Vbase
p127
g14
g15
tp128
(dp129
Vflavours
p130
(lp131
Vsiduction-amd64
p132
asVimplicit-flavour
p133
I01
ss(Vdescription
p134
g5
tp135
(dp136
Vpart-long-pae
p137
VThis kernel requires PAE (Physical Address Extension)\u000aThis feature is supported by the Intel Pentium Pro/II/III/4/4M/D, Xeon,\u000aCore and Atom; AMD Geode NX, Athlon (K7), Duron, Opteron, Sempron,\u000aTurion or Phenom; Transmeta Efficeon; VIA C7; and some other processors.
p138
ss(Vdescription
p139
tp140
(dp141
Vpart-long-up
p142
VThis kernel is not suitable for SMP (multi-processor,\u000amulti-core or hyper-threaded) systems.
p143
sVpart-long-xen
p144
VThis kernel also runs on a Xen hypervisor.\u000aIt supports both privileged (dom0) and unprivileged (domU) operation.
p145
ss(Vdescription
p146
g5
NVsiduction-686-pae
p147
tp148
(dp149
Vparts
p150
(lp151
Vpae
p152
asVhardware
p153
Vmodern PCs
p154
sVhardware-long
p155
VPCs with one or more processors supporting PAE
p156
ss(Vxen
p157
g14
g15
Vsiduction-amd64
p158
tp159
(dp160
Vflavours
p161
(lp162
Vsiduction-amd64
p163
ass(Vbase
p164
g5
tp165
(dp166
Vkernel-arch
p167
Vx86
p168
sVfeaturesets
p169
(lp170
Vnone
p171
ass(Vimage
p172
g5
NVsiduction-686-pae
p173
tp174
(dp175
Vrecommends
p176
Vlibc6-i686
p177
sVconfigs
p178
(lp179
Vkernelarch-x86/config-arch-32
p180
aVkernelarch-x86/config-arch-32-pae
p181
ass(Vbase
p182
g14
tp183
(dp184
Vkernel-arch
p185
Vx86
p186
sVfeaturesets
p187
(lp188
Vnone
p189
ag15
ass(Vdescription
p190
g5
g6
V686-pae
p191
tp192
(dp193
Vparts
p194
(lp195
Vxen
p196
ass(Vrelations
p197
tp198
(dp199
Vgcc-6
p200
Vgcc-6
p201
sVinitramfs-fallback
p202
Vlinux-initramfs-tool
p203
sVinitramfs-tools
p204
Vinitramfs-tools (>= 0.110~)
p205
ss(Vimage
p206
g5
NVsiduction-686
p207
tp208
(dp209
Vrecommends
p210
Vlibc6-i686
p211
sVconfigs
p212
(lp213
Vkernelarch-x86/config-arch-32
p214
asstp215
Rp216
.