ccopy_reg
_reconstructor
p0
(cdebian_linux.config
ConfigCore
p1
c__builtin__
dict
p2
(dp3
(Vimage
p4
Vamd64
p5
NVsiduction-amd64
p6
tp7
(dp8
Vconfigs
p9
(lp10
Vkernelarch-x86/config-arch-64
p11
ass(Vxen
p12
g5
Vnone
p13
Vsiduction-amd64
p14
tp15
(dp16
Vflavours
p17
(lp18
Vsiduction-amd64
p19
ass(Vdescription
p20
g5
NVsiduction-amd64
p21
tp22
(dp23
Vhardware-long
p24
VPCs with AMD64 or Intel 64 processors
p25
sVhardware
p26
V64-bit PCs
p27
ss(Vimage
p28
tp29
(dp30
Vinitramfs-generators
p31
(lp32
Vinitramfs-tools
p33
aVinitramfs-fallback
p34
asVtype
p35
Vplain
p36
ss(Vimage
p37
Vi386
p38
NVsiduction-686-pae
p39
tp40
(dp41
Vconfigs
p42
(lp43
Vkernelarch-x86/config-arch-32
p44
aVkernelarch-x86/config-arch-32-pae
p45
asVrecommends
p46
Vlibc6-i686
p47
ss(Vimage
p48
g38
tp49
(dp50
Vconfigs
p51
(lp52
sVbootloaders
p53
(lp54
Vgrub-pc
p55
aVextlinux
p56
aVgrub-efi-ia32
p57
asVinstall-stem
p58
Vvmlinuz
p59
sVsuggests
p60
Vcrda
p61
ss(Vbuild
p62
g38
tp63
(dp64
Vdebug-info
p65
I00
sVimage-file
p66
Varch/x86/boot/bzImage
p67
ss(Vbuild
p68
g38
NVsiduction-686-pae
p69
tp70
(dp71
Vdebug-info
p72
I00
ss(Vbase
p73
g5
g13
tp74
(dp75
Vimplicit-flavour
p76
I01
sVflavours
p77
(lp78
Vsiduction-amd64
p79
ass(Vdescription
p80
g38
Vnone
p81
V686-pae
p82
tp83
(dp84
Vparts
p85
(lp86
Vxen
p87
ass(Vdescription
p88
g38
NVsiduction-686
p89
tp90
(dp91
Vhardware-long
p92
VPCs with Intel Pentium Pro/II/III/4/4M/D/M, Xeon, Celeron, Core or Atom; AMD Geode LX/NX, Athlon (K7), Duron, Opteron, Sempron, Turion or Phenom; Transmeta Efficeon; VIA C3 "Nehemiah" or C7 processors
p93
sVhardware
p94
Vmodern PCs
p95
ss(Vrelations
p96
tp97
(dp98
Vgcc-6
p99
Vgcc-6
p100
sVinitramfs-fallback
p101
Vlinux-initramfs-tool
p102
sVinitramfs-tools
p103
Vinitramfs-tools (>= 0.110~)
p104
ss(Vdescription
p105
tp106
(dp107
Vpart-long-xen
p108
VThis kernel also runs on a Xen hypervisor.\u000aIt supports both privileged (dom0) and unprivileged (domU) operation.
p109
sVpart-long-up
p110
VThis kernel is not suitable for SMP (multi-processor,\u000amulti-core or hyper-threaded) systems.
p111
ss(Vversion
p112
tp113
(dp114
Vupstream
p115
V4.6
p116
sVsource
p117
V4.6-0~exp1
p118
sVabiname_base
p119
V4.6.0
p120
sVabiname
p121
V4.6.0-towo.1
p122
ss(Vbase
p123
tp124
(dp125
Varches
p126
(lp127
Vamd64
p128
aVi386
p129
asVcompiler
p130
Vgcc-6
p131
sVfeaturesets
p132
(lp133
Vnone
p134
ass(Vimage
p135
g38
NVsiduction-686
p136
tp137
(dp138
Vconfigs
p139
(lp140
Vkernelarch-x86/config-arch-32
p141
asVrecommends
p142
Vlibc6-i686
p143
ss(Vbuild
p144
g5
tp145
(dp146
Vdebug-info
p147
I00
sVimage-file
p148
Varch/x86/boot/bzImage
p149
ss(Vimage
p150
g5
tp151
(dp152
Vconfigs
p153
(lp154
sVbootloaders
p155
(lp156
Vgrub-pc
p157
aVextlinux
p158
aVgrub-efi-amd64
p159
asVinstall-stem
p160
Vvmlinuz
p161
sVsuggests
p162
Vcrda
p163
ss(Vdescription
p164
g5
g13
Vsiduction-amd64
p165
tp166
(dp167
Vparts
p168
(lp169
Vxen
p170
ass(Vbase
p171
g38
tp172
(dp173
Vkernel-arch
p174
Vx86
p175
sVfeaturesets
p176
(lp177
Vnone
p178
ass(Vbase
p179
g38
g81
tp180
(dp181
Vflavours
p182
(lp183
Vsiduction-686
p184
aVsiduction-686-pae
p185
ass(Vabi
p186
tp187
(dp188
Vabiname
p189
Vtowo.1
p190
ss(Vdescription
p191
g38
NVsiduction-686-pae
p192
tp193
(dp194
Vhardware-long
p195
VPCs with one or more processors supporting PAE
p196
sVhardware
p197
Vmodern PCs
p198
sVparts
p199
(lp200
Vpae
p201
ass(Vdescription
p202
g38
tp203
(dp204
Vpart-long-pae
p205
VThis kernel requires PAE (Physical Address Extension)\u000aThis feature is supported by the Intel Pentium Pro/II/III/4/4M/D, Xeon,\u000aCore and Atom; AMD Geode NX, Athlon (K7), Duron, Opteron, Sempron,\u000aTurion or Phenom; Transmeta Efficeon; VIA C7; and some other processors.
p206
ss(Vbase
p207
g5
tp208
(dp209
Vkernel-arch
p210
Vx86
p211
sVfeaturesets
p212
(lp213
Vnone
p214
ag13
asstp215
Rp216
.