ccopy_reg
_reconstructor
p0
(cdebian_linux.config
ConfigCore
p1
c__builtin__
dict
p2
(dp3
(Vbase
p4
Vi386
p5
tp6
(dp7
Vfeaturesets
p8
(lp9
Vnone
p10
asVkernel-arch
p11
Vx86
p12
ss(Vxen
p13
Vamd64
p14
Vnone
p15
Vsiduction-amd64
p16
tp17
(dp18
Vflavours
p19
(lp20
Vsiduction-amd64
p21
ass(Vbuild
p22
g5
NVsiduction-686-pae
p23
tp24
(dp25
Vdebug-info
p26
I00
ss(Vbase
p27
g14
g15
tp28
(dp29
Vimplicit-flavour
p30
I01
sVflavours
p31
(lp32
Vsiduction-amd64
p33
ass(Vdescription
p34
g14
g15
Vsiduction-amd64
p35
tp36
(dp37
Vparts
p38
(lp39
Vxen
p40
ass(Vimage
p41
g5
NVsiduction-686
p42
tp43
(dp44
Vrecommends
p45
Vlibc6-i686
p46
sVconfigs
p47
(lp48
Vkernelarch-x86/config-arch-32
p49
ass(Vbase
p50
tp51
(dp52
Varches
p53
(lp54
Vamd64
p55
aVi386
p56
asVcompiler
p57
Vgcc-6
p58
sVfeaturesets
p59
(lp60
Vnone
p61
ass(Vbuild
p62
g14
tp63
(dp64
Vdebug-info
p65
I00
sVimage-file
p66
Varch/x86/boot/bzImage
p67
ss(Vbase
p68
g5
Vnone
p69
tp70
(dp71
Vflavours
p72
(lp73
Vsiduction-686
p74
aVsiduction-686-pae
p75
ass(Vimage
p76
g5
NVsiduction-686-pae
p77
tp78
(dp79
Vrecommends
p80
Vlibc6-i686
p81
sVconfigs
p82
(lp83
Vkernelarch-x86/config-arch-32
p84
aVkernelarch-x86/config-arch-32-pae
p85
ass(Vbuild
p86
g5
tp87
(dp88
Vdebug-info
p89
I00
sVimage-file
p90
Varch/x86/boot/bzImage
p91
ss(Vdescription
p92
g5
tp93
(dp94
Vpart-long-pae
p95
VThis kernel requires PAE (Physical Address Extension)\u000aThis feature is supported by the Intel Pentium Pro/II/III/4/4M/D, Xeon,\u000aCore and Atom; AMD Geode NX, Athlon (K7), Duron, Opteron, Sempron,\u000aTurion or Phenom; Transmeta Efficeon; VIA C7; and some other processors.
p96
ss(Vdescription
p97
g14
NVsiduction-amd64
p98
tp99
(dp100
Vhardware
p101
V64-bit PCs
p102
sVhardware-long
p103
VPCs with AMD64 or Intel 64 processors
p104
ss(Vbase
p105
g14
tp106
(dp107
Vfeaturesets
p108
(lp109
Vnone
p110
ag15
asVkernel-arch
p111
Vx86
p112
ss(Vrelations
p113
tp114
(dp115
Vinitramfs-fallback
p116
Vlinux-initramfs-tool
p117
sVinitramfs-tools
p118
Vinitramfs-tools (>= 0.110~)
p119
sVgcc-6
p120
Vgcc-6
p121
ss(Vdescription
p122
g5
NVsiduction-686-pae
p123
tp124
(dp125
Vparts
p126
(lp127
Vpae
p128
asVhardware
p129
Vmodern PCs
p130
sVhardware-long
p131
VPCs with one or more processors supporting PAE
p132
ss(Vimage
p133
g14
NVsiduction-amd64
p134
tp135
(dp136
Vconfigs
p137
(lp138
Vkernelarch-x86/config-arch-64
p139
ass(Vimage
p140
tp141
(dp142
Vtype
p143
Vplain
p144
sVinitramfs-generators
p145
(lp146
Vinitramfs-tools
p147
aVinitramfs-fallback
p148
ass(Vversion
p149
tp150
(dp151
Vsource
p152
V4.6-4
p153
sVabiname
p154
V4.6.3-towo.1
p155
sVupstream
p156
V4.6
p157
sVabiname_base
p158
V4.6.3
p159
ss(Vimage
p160
g5
tp161
(dp162
Vsuggests
p163
Vcrda
p164
sVconfigs
p165
(lp166
sVbootloaders
p167
(lp168
Vgrub-pc
p169
aVextlinux
p170
aVgrub-efi-ia32
p171
asVinstall-stem
p172
Vvmlinuz
p173
ss(Vdescription
p174
g5
g69
V686-pae
p175
tp176
(dp177
Vparts
p178
(lp179
Vxen
p180
ass(Vdescription
p181
g5
NVsiduction-686
p182
tp183
(dp184
Vhardware
p185
Vmodern PCs
p186
sVhardware-long
p187
VPCs with Intel Pentium Pro/II/III/4/4M/D/M, Xeon, Celeron, Core or Atom; AMD Geode LX/NX, Athlon (K7), Duron, Opteron, Sempron, Turion or Phenom; Transmeta Efficeon; VIA C3 "Nehemiah" or C7 processors
p188
ss(Vdescription
p189
tp190
(dp191
Vpart-long-up
p192
VThis kernel is not suitable for SMP (multi-processor,\u000amulti-core or hyper-threaded) systems.
p193
sVpart-long-xen
p194
VThis kernel also runs on a Xen hypervisor.\u000aIt supports both privileged (dom0) and unprivileged (domU) operation.
p195
ss(Vabi
p196
tp197
(dp198
Vabiname
p199
Vtowo.1
p200
ss(Vimage
p201
g14
tp202
(dp203
Vsuggests
p204
Vcrda
p205
sVconfigs
p206
(lp207
sVbootloaders
p208
(lp209
Vgrub-pc
p210
aVextlinux
p211
aVgrub-efi-amd64
p212
asVinstall-stem
p213
Vvmlinuz
p214
sstp215
Rp216
.