ccopy_reg
_reconstructor
p0
(cdebian_linux.config
ConfigCore
p1
c__builtin__
dict
p2
(dp3
(Vversion
p4
tp5
(dp6
Vupstream
p7
V4.10
p8
sVsource
p9
V4.10-9
p10
sVabiname_base
p11
V4.10.4
p12
sVabiname
p13
V4.10.4-towo.1
p14
ss(Vbase
p15
Vamd64
p16
Vnone
p17
tp18
(dp19
Vflavours
p20
(lp21
Vsiduction-amd64
p22
asVimplicit-flavour
p23
I01
ss(Vimage
p24
tp25
(dp26
Vinitramfs-generators
p27
(lp28
Vinitramfs-tools
p29
aVinitramfs-fallback
p30
ass(Vrelations
p31
tp32
(dp33
Vgcc-6
p34
Vgcc-6
p35
sVinitramfs-tools
p36
Vinitramfs-tools (>= 0.121~)
p37
sVinitramfs-fallback
p38
Vlinux-initramfs-tool
p39
ss(Vbase
p40
g16
tp41
(dp42
Vkernel-arch
p43
Vx86
p44
sVfeaturesets
p45
(lp46
Vnone
p47
ag17
ass(Vimage
p48
g16
tp49
(dp50
Vbreaks
p51
Vxserver-xorg-input-vmmouse (<< 1:13.0.99)
p52
sVsuggests
p53
Vcrda
p54
sVinstall-stem
p55
Vvmlinuz
p56
sVbootloaders
p57
(lp58
Vgrub-pc
p59
aVextlinux
p60
aVgrub-efi-amd64
p61
ass(Vdescription
p62
tp63
(dp64
Vpart-long-up
p65
VThis kernel is not suitable for SMP (multi-processor,\u000amulti-core or hyper-threaded) systems.
p66
sVpart-long-xen
p67
VThis kernel also runs on a Xen hypervisor.\u000aIt supports both privileged (dom0) and unprivileged (domU) operation.
p68
ss(Vabi
p69
tp70
(dp71
Vabiname
p72
Vtowo.1
p73
ss(Vbase
p74
tp75
(dp76
Varches
p77
(lp78
Vamd64
p79
asVcompiler
p80
Vgcc-6
p81
sVfeaturesets
p82
(lp83
Vnone
p84
ass(Vdescription
p85
g16
NVsiduction-amd64
p86
tp87
(dp88
Vhardware-long
p89
VPCs with AMD64 or Intel 64 processors
p90
sVhardware
p91
V64-bit PCs
p92
ss(Vdescription
p93
g16
g17
Vsiduction-amd64
p94
tp95
(dp96
Vparts
p97
(lp98
Vxen
p99
ass(Vbuild
p100
g16
tp101
(dp102
Vdebug-info
p103
I00
sVimage-file
p104
Varch/x86/boot/bzImage
p105
sstp106
Rp107
.