ccopy_reg
_reconstructor
p0
(cdebian_linux.config
ConfigCore
p1
c__builtin__
dict
p2
(dp3
(Vabi
p4
tp5
(dp6
Vabiname
p7
Vtowo.1
p8
ss(Vimage
p9
Vamd64
p10
tp11
(dp12
Vsuggests
p13
Vcrda
p14
sVinstall-stem
p15
Vvmlinuz
p16
sVbreaks
p17
Vxserver-xorg-input-vmmouse (<< 1:13.0.99)
p18
sVbootloaders
p19
(lp20
Vgrub-pc
p21
aVextlinux
p22
aVgrub-efi-amd64
p23
ass(Vimage
p24
tp25
(dp26
Vinitramfs-generators
p27
(lp28
Vinitramfs-tools
p29
aVinitramfs-fallback
p30
ass(Vrelations
p31
tp32
(dp33
Vinitramfs-tools
p34
Vinitramfs-tools (>= 0.121~)
p35
sVinitramfs-fallback
p36
Vlinux-initramfs-tool
p37
sVgcc-6
p38
Vgcc-6
p39
ss(Vbuild
p40
g10
tp41
(dp42
Vdebug-info
p43
I00
sVimage-file
p44
Varch/x86/boot/bzImage
p45
ss(Vdescription
p46
tp47
(dp48
Vpart-long-up
p49
VThis kernel is not suitable for SMP (multi-processor,\u000amulti-core or hyper-threaded) systems.
p50
sVpart-long-xen
p51
VThis kernel also runs on a Xen hypervisor.\u000aIt supports both privileged (dom0) and unprivileged (domU) operation.
p52
ss(Vdescription
p53
g10
Vnone
p54
Vsiduction-amd64
p55
tp56
(dp57
Vparts
p58
(lp59
Vxen
p60
ass(Vdescription
p61
g10
NVsiduction-amd64
p62
tp63
(dp64
Vhardware
p65
V64-bit PCs
p66
sVhardware-long
p67
VPCs with AMD64 or Intel 64 processors
p68
ss(Vversion
p69
tp70
(dp71
Vupstream
p72
V4.10
p73
sVabiname
p74
V4.10.12-towo.1
p75
sVsource
p76
V4.10-20
p77
sVabiname_base
p78
V4.10.12
p79
ss(Vbase
p80
g10
g54
tp81
(dp82
Vimplicit-flavour
p83
I01
sVflavours
p84
(lp85
Vsiduction-amd64
p86
ass(Vbase
p87
tp88
(dp89
Vcompiler
p90
Vgcc-6
p91
sVarches
p92
(lp93
Vamd64
p94
asVfeaturesets
p95
(lp96
Vnone
p97
ass(Vbase
p98
g10
tp99
(dp100
Vfeaturesets
p101
(lp102
Vnone
p103
ag54
asVkernel-arch
p104
Vx86
p105
sstp106
Rp107
.