ccopy_reg
_reconstructor
p0
(cdebian_linux.config
ConfigCore
p1
c__builtin__
dict
p2
(dp3
(Vrelations
p4
tp5
(dp6
Vgcc-6
p7
Vgcc-6
p8
sVinitramfs-fallback
p9
Vlinux-initramfs-tool
p10
sVinitramfs-tools
p11
Vinitramfs-tools (>= 0.121~)
p12
ss(Vbase
p13
tp14
(dp15
Varches
p16
(lp17
Vamd64
p18
asVcompiler
p19
Vgcc-6
p20
sVfeaturesets
p21
(lp22
Vnone
p23
ass(Vimage
p24
Vamd64
p25
tp26
(dp27
Vbootloaders
p28
(lp29
Vgrub-pc
p30
aVextlinux
p31
aVgrub-efi-amd64
p32
asVinstall-stem
p33
Vvmlinuz
p34
sVbreaks
p35
Vxserver-xorg-input-vmmouse (<< 1:13.0.99)
p36
sVsuggests
p37
Vcrda
p38
ss(Vdescription
p39
g25
Vnone
p40
Vsiduction-amd64
p41
tp42
(dp43
Vparts
p44
(lp45
Vxen
p46
ass(Vdescription
p47
g25
NVsiduction-amd64
p48
tp49
(dp50
Vhardware
p51
V64-bit PCs
p52
sVhardware-long
p53
VPCs with AMD64 or Intel 64 processors
p54
ss(Vdescription
p55
tp56
(dp57
Vpart-long-xen
p58
VThis kernel also runs on a Xen hypervisor.\u000aIt supports both privileged (dom0) and unprivileged (domU) operation.
p59
sVpart-long-up
p60
VThis kernel is not suitable for SMP (multi-processor,\u000amulti-core or hyper-threaded) systems.
p61
ss(Vbase
p62
g25
g40
tp63
(dp64
Vflavours
p65
(lp66
Vsiduction-amd64
p67
asVimplicit-flavour
p68
I01
ss(Vbase
p69
g25
tp70
(dp71
Vfeaturesets
p72
(lp73
Vnone
p74
ag40
asVkernel-arch
p75
Vx86
p76
ss(Vimage
p77
tp78
(dp79
Vinitramfs-generators
p80
(lp81
Vinitramfs-tools
p82
aVinitramfs-fallback
p83
ass(Vbuild
p84
g25
tp85
(dp86
Vdebug-info
p87
I00
sVimage-file
p88
Varch/x86/boot/bzImage
p89
ss(Vabi
p90
tp91
(dp92
Vabiname
p93
Vtowo.1
p94
ss(Vversion
p95
tp96
(dp97
Vupstream
p98
V4.10
p99
sVsource
p100
V4.10-24
p101
sVabiname_base
p102
V4.10.17
p103
sVabiname
p104
V4.10.17-towo.1
p105
sstp106
Rp107
.