ccopy_reg
_reconstructor
p0
(cdebian_linux.config
ConfigCore
p1
c__builtin__
dict
p2
(dp3
(Vimage
p4
tp5
(dp6
Vinitramfs-generators
p7
(lp8
Vinitramfs-tools
p9
aVinitramfs-fallback
p10
ass(Vdescription
p11
Vamd64
p12
NVsiduction-amd64
p13
tp14
(dp15
Vhardware
p16
V64-bit PCs
p17
sVhardware-long
p18
VPCs with AMD64 or Intel 64 processors
p19
ss(Vdescription
p20
tp21
(dp22
Vpart-long-up
p23
VThis kernel is not suitable for SMP (multi-processor,\u000amulti-core or hyper-threaded) systems.
p24
sVpart-long-xen
p25
VThis kernel also runs on a Xen hypervisor.\u000aIt supports both privileged (dom0) and unprivileged (domU) operation.
p26
ss(Vabi
p27
tp28
(dp29
Vabiname
p30
Vtowo.1
p31
ss(Vdescription
p32
g12
Vnone
p33
Vsiduction-amd64
p34
tp35
(dp36
Vparts
p37
(lp38
Vxen
p39
ass(Vbase
p40
tp41
(dp42
Vcompiler
p43
Vgcc-6
p44
sVarches
p45
(lp46
Vamd64
p47
asVfeaturesets
p48
(lp49
Vnone
p50
ass(Vbase
p51
g12
tp52
(dp53
Vkernel-arch
p54
Vx86
p55
sVfeaturesets
p56
(lp57
Vnone
p58
ag33
ass(Vbase
p59
g12
g33
tp60
(dp61
Vflavours
p62
(lp63
Vsiduction-amd64
p64
asVimplicit-flavour
p65
I01
ss(Vimage
p66
g12
tp67
(dp68
Vsuggests
p69
Vcrda
p70
sVbootloaders
p71
(lp72
Vgrub-pc
p73
aVextlinux
p74
aVgrub-efi-amd64
p75
asVinstall-stem
p76
Vvmlinuz
p77
sVbreaks
p78
Vxserver-xorg-input-vmmouse (<< 1:13.0.99)
p79
ss(Vbuild
p80
g12
tp81
(dp82
Vdebug-info
p83
I00
sVimage-file
p84
Varch/x86/boot/bzImage
p85
ss(Vversion
p86
tp87
(dp88
Vupstream
p89
V4.10
p90
sVabiname_base
p91
V4.10.8
p92
sVsource
p93
V4.10-14
p94
sVabiname
p95
V4.10.8-towo.1
p96
ss(Vrelations
p97
tp98
(dp99
Vgcc-6
p100
Vgcc-6
p101
sVinitramfs-fallback
p102
Vlinux-initramfs-tool
p103
sVinitramfs-tools
p104
Vinitramfs-tools (>= 0.121~)
p105
sstp106
Rp107
.