ccopy_reg
_reconstructor
p0
(cdebian_linux.config
ConfigCore
p1
c__builtin__
dict
p2
(dp3
(Vdescription
p4
Vamd64
p5
Vnone
p6
Vsiduction-amd64
p7
tp8
(dp9
Vparts
p10
(lp11
Vxen
p12
ass(Vdescription
p13
g5
NVsiduction-amd64
p14
tp15
(dp16
Vhardware-long
p17
VPCs with AMD64 or Intel 64 processors
p18
sVhardware
p19
V64-bit PCs
p20
ss(Vimage
p21
tp22
(dp23
Vinitramfs-generators
p24
(lp25
Vinitramfs-tools
p26
aVinitramfs-fallback
p27
ass(Vbuild
p28
g5
tp29
(dp30
Vimage-file
p31
Varch/x86/boot/bzImage
p32
sVdebug-info
p33
I00
ss(Vbase
p34
tp35
(dp36
Varches
p37
(lp38
Vamd64
p39
asVcompiler
p40
Vgcc-6
p41
sVfeaturesets
p42
(lp43
Vnone
p44
ass(Vdescription
p45
tp46
(dp47
Vpart-long-up
p48
VThis kernel is not suitable for SMP (multi-processor,\u000amulti-core or hyper-threaded) systems.
p49
sVpart-long-xen
p50
VThis kernel also runs on a Xen hypervisor.\u000aIt supports both privileged (dom0) and unprivileged (domU) operation.
p51
ss(Vimage
p52
g5
tp53
(dp54
Vsuggests
p55
Vcrda
p56
sVbootloaders
p57
(lp58
Vgrub-pc
p59
aVextlinux
p60
aVgrub-efi-amd64
p61
asVbreaks
p62
Vxserver-xorg-input-vmmouse (<< 1:13.0.99)
p63
sVinstall-stem
p64
Vvmlinuz
p65
ss(Vversion
p66
tp67
(dp68
Vupstream
p69
V4.10
p70
sVabiname
p71
V4.10.6-towo.1
p72
sVsource
p73
V4.10-11
p74
sVabiname_base
p75
V4.10.6
p76
ss(Vbase
p77
g5
g6
tp78
(dp79
Vflavours
p80
(lp81
Vsiduction-amd64
p82
asVimplicit-flavour
p83
I01
ss(Vabi
p84
tp85
(dp86
Vabiname
p87
Vtowo.1
p88
ss(Vrelations
p89
tp90
(dp91
Vgcc-6
p92
Vgcc-6
p93
sVinitramfs-tools
p94
Vinitramfs-tools (>= 0.121~)
p95
sVinitramfs-fallback
p96
Vlinux-initramfs-tool
p97
ss(Vbase
p98
g5
tp99
(dp100
Vkernel-arch
p101
Vx86
p102
sVfeaturesets
p103
(lp104
Vnone
p105
ag6
asstp106
Rp107
.