ccopy_reg
_reconstructor
p0
(cdebian_linux.config
ConfigCore
p1
c__builtin__
dict
p2
(dp3
(Vdescription
p4
Vamd64
p5
Vnone
p6
Vsiduction-amd64
p7
tp8
(dp9
Vparts
p10
(lp11
Vxen
p12
ass(Vabi
p13
tp14
(dp15
Vabiname
p16
Vtowo.1
p17
ss(Vbase
p18
g5
tp19
(dp20
Vfeaturesets
p21
(lp22
Vnone
p23
ag6
asVkernel-arch
p24
Vx86
p25
ss(Vbuild
p26
g5
tp27
(dp28
Vdebug-info
p29
I00
sVimage-file
p30
Varch/x86/boot/bzImage
p31
ss(Vimage
p32
tp33
(dp34
Vinitramfs-generators
p35
(lp36
Vinitramfs-tools
p37
aVinitramfs-fallback
p38
ass(Vdescription
p39
g5
NVsiduction-amd64
p40
tp41
(dp42
Vhardware-long
p43
VPCs with AMD64 or Intel 64 processors
p44
sVhardware
p45
V64-bit PCs
p46
ss(Vrelations
p47
tp48
(dp49
Vinitramfs-fallback
p50
Vlinux-initramfs-tool
p51
sVinitramfs-tools
p52
Vinitramfs-tools (>= 0.121~)
p53
sVgcc-6
p54
Vgcc-6
p55
ss(Vimage
p56
g5
tp57
(dp58
Vbreaks
p59
Vxserver-xorg-input-vmmouse (<< 1:13.0.99)
p60
sVinstall-stem
p61
Vvmlinuz
p62
sVsuggests
p63
Vcrda
p64
sVbootloaders
p65
(lp66
Vgrub-pc
p67
aVextlinux
p68
aVgrub-efi-amd64
p69
ass(Vbase
p70
g5
g6
tp71
(dp72
Vflavours
p73
(lp74
Vsiduction-amd64
p75
asVimplicit-flavour
p76
I01
ss(Vversion
p77
tp78
(dp79
Vabiname
p80
V4.10.0-rc7
p81
sVupstream
p82
V4.10-rc7
p83
sVabiname_base
p84
g81
sVsource
p85
V4.10~rc7-1~exp1
p86
ss(Vbase
p87
tp88
(dp89
Vcompiler
p90
Vgcc-6
p91
sVfeaturesets
p92
(lp93
Vnone
p94
asVarches
p95
(lp96
Vamd64
p97
ass(Vdescription
p98
tp99
(dp100
Vpart-long-up
p101
VThis kernel is not suitable for SMP (multi-processor,\u000amulti-core or hyper-threaded) systems.
p102
sVpart-long-xen
p103
VThis kernel also runs on a Xen hypervisor.\u000aIt supports both privileged (dom0) and unprivileged (domU) operation.
p104
sstp105
Rp106
.