ccopy_reg
_reconstructor
p0
(cdebian_linux.config
ConfigCore
p1
c__builtin__
dict
p2
(dp3
(Vimage
p4
tp5
(dp6
Vinitramfs-generators
p7
(lp8
Vinitramfs-tools
p9
aVinitramfs-fallback
p10
ass(Vbase
p11
Vamd64
p12
Vnone
p13
tp14
(dp15
Vflavours
p16
(lp17
Vsiduction-amd64
p18
asVimplicit-flavour
p19
I01
ss(Vbase
p20
tp21
(dp22
Vcompiler
p23
Vgcc-6
p24
sVarches
p25
(lp26
Vamd64
p27
asVfeaturesets
p28
(lp29
Vnone
p30
ass(Vbase
p31
g12
tp32
(dp33
Vkernel-arch
p34
Vx86
p35
sVfeaturesets
p36
(lp37
Vnone
p38
ag13
ass(Vdescription
p39
tp40
(dp41
Vpart-long-up
p42
VThis kernel is not suitable for SMP (multi-processor,\u000amulti-core or hyper-threaded) systems.
p43
sVpart-long-xen
p44
VThis kernel also runs on a Xen hypervisor.\u000aIt supports both privileged (dom0) and unprivileged (domU) operation.
p45
ss(Vabi
p46
tp47
(dp48
Vabiname
p49
Vtowo.1
p50
ss(Vrelations
p51
tp52
(dp53
Vinitramfs-fallback
p54
Vlinux-initramfs-tool
p55
sVinitramfs-tools
p56
Vinitramfs-tools (>= 0.121~)
p57
sVgcc-6
p58
Vgcc-6
p59
ss(Vimage
p60
g12
tp61
(dp62
Vsuggests
p63
Vcrda
p64
sVbootloaders
p65
(lp66
Vgrub-pc
p67
aVextlinux
p68
aVgrub-efi-amd64
p69
asVinstall-stem
p70
Vvmlinuz
p71
sVbreaks
p72
Vxserver-xorg-input-vmmouse (<< 1:13.0.99)
p73
ss(Vbuild
p74
g12
tp75
(dp76
Vdebug-info
p77
I00
sVimage-file
p78
Varch/x86/boot/bzImage
p79
ss(Vdescription
p80
g12
g13
Vsiduction-amd64
p81
tp82
(dp83
Vparts
p84
(lp85
Vxen
p86
ass(Vdescription
p87
g12
NVsiduction-amd64
p88
tp89
(dp90
Vhardware-long
p91
VPCs with AMD64 or Intel 64 processors
p92
sVhardware
p93
V64-bit PCs
p94
ss(Vversion
p95
tp96
(dp97
Vupstream
p98
V4.10
p99
sVabiname
p100
V4.10.15-towo.1
p101
sVsource
p102
V4.10-23
p103
sVabiname_base
p104
V4.10.15
p105
sstp106
Rp107
.