ccopy_reg
_reconstructor
p0
(cdebian_linux.config
ConfigCore
p1
c__builtin__
dict
p2
(dp3
(Vbase
p4
Vamd64
p5
tp6
(dp7
Vfeaturesets
p8
(lp9
Vnone
p10
aVnone
p11
asVkernel-arch
p12
Vx86
p13
ss(Vrelations
p14
tp15
(dp16
Vinitramfs-tools
p17
Vinitramfs-tools (>= 0.121~)
p18
sVgcc-6
p19
Vgcc-6
p20
sVinitramfs-fallback
p21
Vlinux-initramfs-tool
p22
ss(Vdescription
p23
tp24
(dp25
Vpart-long-xen
p26
VThis kernel also runs on a Xen hypervisor.\u000aIt supports both privileged (dom0) and unprivileged (domU) operation.
p27
sVpart-long-up
p28
VThis kernel is not suitable for SMP (multi-processor,\u000amulti-core or hyper-threaded) systems.
p29
ss(Vversion
p30
tp31
(dp32
Vsource
p33
V4.10-4
p34
sVabiname_base
p35
V4.10.2
p36
sVupstream
p37
V4.10
p38
sVabiname
p39
V4.10.2-towo.1
p40
ss(Vabi
p41
tp42
(dp43
Vabiname
p44
Vtowo.1
p45
ss(Vbase
p46
tp47
(dp48
Varches
p49
(lp50
Vamd64
p51
asVfeaturesets
p52
(lp53
Vnone
p54
asVcompiler
p55
Vgcc-6
p56
ss(Vbuild
p57
g5
tp58
(dp59
Vimage-file
p60
Varch/x86/boot/bzImage
p61
sVdebug-info
p62
I00
ss(Vdescription
p63
g5
g11
Vsiduction-amd64
p64
tp65
(dp66
Vparts
p67
(lp68
Vxen
p69
ass(Vimage
p70
tp71
(dp72
Vinitramfs-generators
p73
(lp74
Vinitramfs-tools
p75
aVinitramfs-fallback
p76
ass(Vimage
p77
g5
tp78
(dp79
Vbreaks
p80
Vxserver-xorg-input-vmmouse (<< 1:13.0.99)
p81
sVinstall-stem
p82
Vvmlinuz
p83
sVbootloaders
p84
(lp85
Vgrub-pc
p86
aVextlinux
p87
aVgrub-efi-amd64
p88
asVsuggests
p89
Vcrda
p90
ss(Vdescription
p91
g5
NVsiduction-amd64
p92
tp93
(dp94
Vhardware
p95
V64-bit PCs
p96
sVhardware-long
p97
VPCs with AMD64 or Intel 64 processors
p98
ss(Vbase
p99
g5
g11
tp100
(dp101
Vflavours
p102
(lp103
Vsiduction-amd64
p104
asVimplicit-flavour
p105
I01
sstp106
Rp107
.