ccopy_reg
_reconstructor
p0
(cdebian_linux.config
ConfigCore
p1
c__builtin__
dict
p2
(dp3
(Vimage
p4
tp5
(dp6
Vinitramfs-generators
p7
(lp8
Vinitramfs-tools
p9
aVinitramfs-fallback
p10
ass(Vbase
p11
Vamd64
p12
tp13
(dp14
Vfeaturesets
p15
(lp16
Vnone
p17
aVnone
p18
asVkernel-arch
p19
Vx86
p20
ss(Vbase
p21
tp22
(dp23
Varches
p24
(lp25
Vamd64
p26
asVcompiler
p27
Vgcc-6
p28
sVfeaturesets
p29
(lp30
Vnone
p31
ass(Vversion
p32
tp33
(dp34
Vabiname
p35
V4.10.9-towo.2
p36
sVupstream
p37
V4.10
p38
sVabiname_base
p39
V4.10.9
p40
sVsource
p41
V4.10-16
p42
ss(Vbuild
p43
g12
tp44
(dp45
Vdebug-info
p46
I00
sVimage-file
p47
Varch/x86/boot/bzImage
p48
ss(Vbase
p49
g12
g18
tp50
(dp51
Vimplicit-flavour
p52
I01
sVflavours
p53
(lp54
Vsiduction-amd64
p55
ass(Vimage
p56
g12
tp57
(dp58
Vsuggests
p59
Vcrda
p60
sVinstall-stem
p61
Vvmlinuz
p62
sVbreaks
p63
Vxserver-xorg-input-vmmouse (<< 1:13.0.99)
p64
sVbootloaders
p65
(lp66
Vgrub-pc
p67
aVextlinux
p68
aVgrub-efi-amd64
p69
ass(Vdescription
p70
g12
g18
Vsiduction-amd64
p71
tp72
(dp73
Vparts
p74
(lp75
Vxen
p76
ass(Vabi
p77
tp78
(dp79
Vabiname
p80
Vtowo.2
p81
ss(Vrelations
p82
tp83
(dp84
Vgcc-6
p85
Vgcc-6
p86
sVinitramfs-tools
p87
Vinitramfs-tools (>= 0.121~)
p88
sVinitramfs-fallback
p89
Vlinux-initramfs-tool
p90
ss(Vdescription
p91
g12
NVsiduction-amd64
p92
tp93
(dp94
Vhardware
p95
V64-bit PCs
p96
sVhardware-long
p97
VPCs with AMD64 or Intel 64 processors
p98
ss(Vdescription
p99
tp100
(dp101
Vpart-long-xen
p102
VThis kernel also runs on a Xen hypervisor.\u000aIt supports both privileged (dom0) and unprivileged (domU) operation.
p103
sVpart-long-up
p104
VThis kernel is not suitable for SMP (multi-processor,\u000amulti-core or hyper-threaded) systems.
p105
sstp106
Rp107
.