ccopy_reg
_reconstructor
p0
(cdebian_linux.config
ConfigCore
p1
c__builtin__
dict
p2
(dp3
(Vdescription
p4
Vamd64
p5
Vnone
p6
Vsiduction-amd64
p7
tp8
(dp9
Vparts
p10
(lp11
Vxen
p12
ass(Vbuild
p13
g5
tp14
(dp15
Vdebug-info
p16
I00
sVimage-file
p17
Varch/x86/boot/bzImage
p18
ss(Vdescription
p19
g5
NVsiduction-amd64
p20
tp21
(dp22
Vhardware
p23
V64-bit PCs
p24
sVhardware-long
p25
VPCs with AMD64 or Intel 64 processors
p26
ss(Vimage
p27
g5
tp28
(dp29
Vbreaks
p30
Vxserver-xorg-input-vmmouse (<< 1:13.0.99)
p31
sVinstall-stem
p32
Vvmlinuz
p33
sVsuggests
p34
Vcrda
p35
sVbootloaders
p36
(lp37
Vgrub-pc
p38
aVextlinux
p39
aVgrub-efi-amd64
p40
ass(Vimage
p41
tp42
(dp43
Vinitramfs-generators
p44
(lp45
Vinitramfs-tools
p46
aVinitramfs-fallback
p47
ass(Vabi
p48
tp49
(dp50
Vabiname
p51
Vtowo.1
p52
ss(Vbase
p53
g5
g6
tp54
(dp55
Vimplicit-flavour
p56
I01
sVflavours
p57
(lp58
Vsiduction-amd64
p59
ass(Vversion
p60
tp61
(dp62
Vupstream
p63
V4.10
p64
sVsource
p65
V4.10-21
p66
sVabiname
p67
V4.10.13-towo.1
p68
sVabiname_base
p69
V4.10.13
p70
ss(Vbase
p71
g5
tp72
(dp73
Vkernel-arch
p74
Vx86
p75
sVfeaturesets
p76
(lp77
Vnone
p78
ag6
ass(Vbase
p79
tp80
(dp81
Vcompiler
p82
Vgcc-6
p83
sVarches
p84
(lp85
Vamd64
p86
asVfeaturesets
p87
(lp88
Vnone
p89
ass(Vrelations
p90
tp91
(dp92
Vinitramfs-fallback
p93
Vlinux-initramfs-tool
p94
sVinitramfs-tools
p95
Vinitramfs-tools (>= 0.121~)
p96
sVgcc-6
p97
Vgcc-6
p98
ss(Vdescription
p99
tp100
(dp101
Vpart-long-xen
p102
VThis kernel also runs on a Xen hypervisor.\u000aIt supports both privileged (dom0) and unprivileged (domU) operation.
p103
sVpart-long-up
p104
VThis kernel is not suitable for SMP (multi-processor,\u000amulti-core or hyper-threaded) systems.
p105
sstp106
Rp107
.