ccopy_reg
_reconstructor
p0
(cdebian_linux.config
ConfigCore
p1
c__builtin__
dict
p2
(dp3
(Vbase
p4
tp5
(dp6
Varches
p7
(lp8
Vamd64
p9
asVcompiler
p10
Vgcc-6
p11
sVfeaturesets
p12
(lp13
Vnone
p14
ass(Vrelations
p15
tp16
(dp17
Vinitramfs-tools
p18
Vinitramfs-tools (>= 0.121~)
p19
sVgcc-6
p20
Vgcc-6
p21
sVinitramfs-fallback
p22
Vlinux-initramfs-tool
p23
ss(Vdescription
p24
tp25
(dp26
Vpart-long-up
p27
VThis kernel is not suitable for SMP (multi-processor,\u000amulti-core or hyper-threaded) systems.
p28
sVpart-long-xen
p29
VThis kernel also runs on a Xen hypervisor.\u000aIt supports both privileged (dom0) and unprivileged (domU) operation.
p30
ss(Vdescription
p31
Vamd64
p32
NVsiduction-amd64
p33
tp34
(dp35
Vhardware-long
p36
VPCs with AMD64 or Intel 64 processors
p37
sVhardware
p38
V64-bit PCs
p39
ss(Vversion
p40
tp41
(dp42
Vsource
p43
V4.10-22
p44
sVabiname_base
p45
V4.10.14
p46
sVupstream
p47
V4.10
p48
sVabiname
p49
V4.10.14-towo.1
p50
ss(Vabi
p51
tp52
(dp53
Vabiname
p54
Vtowo.1
p55
ss(Vbase
p56
g32
tp57
(dp58
Vkernel-arch
p59
Vx86
p60
sVfeaturesets
p61
(lp62
Vnone
p63
aVnone
p64
ass(Vimage
p65
tp66
(dp67
Vinitramfs-generators
p68
(lp69
Vinitramfs-tools
p70
aVinitramfs-fallback
p71
ass(Vbuild
p72
g32
tp73
(dp74
Vdebug-info
p75
I00
sVimage-file
p76
Varch/x86/boot/bzImage
p77
ss(Vbase
p78
g32
g64
tp79
(dp80
Vimplicit-flavour
p81
I01
sVflavours
p82
(lp83
Vsiduction-amd64
p84
ass(Vimage
p85
g32
tp86
(dp87
Vbootloaders
p88
(lp89
Vgrub-pc
p90
aVextlinux
p91
aVgrub-efi-amd64
p92
asVbreaks
p93
Vxserver-xorg-input-vmmouse (<< 1:13.0.99)
p94
sVsuggests
p95
Vcrda
p96
sVinstall-stem
p97
Vvmlinuz
p98
ss(Vdescription
p99
g32
g64
Vsiduction-amd64
p100
tp101
(dp102
Vparts
p103
(lp104
Vxen
p105
asstp106
Rp107
.