ccopy_reg
_reconstructor
p0
(cdebian_linux.config
ConfigCore
p1
c__builtin__
dict
p2
(dp3
(Vimage
p4
Vamd64
p5
tp6
(dp7
Vsuggests
p8
Vcrda
p9
sVbootloaders
p10
(lp11
Vgrub-pc
p12
aVextlinux
p13
aVgrub-efi-amd64
p14
asVconfigs
p15
(lp16
sVinstall-stem
p17
Vvmlinuz
p18
ss(Vversion
p19
tp20
(dp21
Vupstream
p22
V4.10-rc6
p23
sVabiname_base
p24
V4.10.0-rc6
p25
sVsource
p26
V4.10~rc6-1~exp1
p27
sVabiname
p28
g25
ss(Vimage
p29
g5
NVsiduction-amd64
p30
tp31
(dp32
Vconfigs
p33
(lp34
Vkernelarch-x86/config-arch-64
p35
ass(Vdescription
p36
g5
NVsiduction-amd64
p37
tp38
(dp39
Vhardware
p40
V64-bit PCs
p41
sVhardware-long
p42
VPCs with AMD64 or Intel 64 processors
p43
ss(Vabi
p44
tp45
(dp46
Vabiname
p47
Vtowo.1
p48
ss(Vdescription
p49
tp50
(dp51
Vpart-long-xen
p52
VThis kernel also runs on a Xen hypervisor.\u000aIt supports both privileged (dom0) and unprivileged (domU) operation.
p53
sVpart-long-up
p54
VThis kernel is not suitable for SMP (multi-processor,\u000amulti-core or hyper-threaded) systems.
p55
ss(Vimage
p56
tp57
(dp58
Vinitramfs-generators
p59
(lp60
Vinitramfs-tools
p61
aVinitramfs-fallback
p62
asVtype
p63
Vplain
p64
ss(Vbuild
p65
g5
tp66
(dp67
Vimage-file
p68
Varch/x86/boot/bzImage
p69
sVdebug-info
p70
I00
ss(Vrelations
p71
tp72
(dp73
Vinitramfs-fallback
p74
Vlinux-initramfs-tool
p75
sVinitramfs-tools
p76
Vinitramfs-tools (>= 0.110~)
p77
sVgcc-6
p78
Vgcc-6
p79
ss(Vxen
p80
g5
Vnone
p81
Vsiduction-amd64
p82
tp83
(dp84
Vflavours
p85
(lp86
Vsiduction-amd64
p87
ass(Vbase
p88
tp89
(dp90
Varches
p91
(lp92
Vamd64
p93
asVcompiler
p94
Vgcc-6
p95
sVfeaturesets
p96
(lp97
Vnone
p98
ass(Vbase
p99
g5
g81
tp100
(dp101
Vflavours
p102
(lp103
Vsiduction-amd64
p104
asVimplicit-flavour
p105
I01
ss(Vbase
p106
g5
tp107
(dp108
Vkernel-arch
p109
Vx86
p110
sVfeaturesets
p111
(lp112
Vnone
p113
ag81
ass(Vdescription
p114
g5
g81
Vsiduction-amd64
p115
tp116
(dp117
Vparts
p118
(lp119
Vxen
p120
asstp121
Rp122
.