ccopy_reg
_reconstructor
p0
(cdebian_linux.config
ConfigCore
p1
c__builtin__
dict
p2
(dp3
(Vdescription
p4
tp5
(dp6
Vpart-long-xen
p7
VThis kernel also runs on a Xen hypervisor.\u000aIt supports both privileged (dom0) and unprivileged (domU) operation.
p8
sVpart-long-up
p9
VThis kernel is not suitable for SMP (multi-processor,\u000amulti-core or hyper-threaded) systems.
p10
ss(Vdescription
p11
Vamd64
p12
Vnone
p13
Vsiduction-amd64
p14
tp15
(dp16
Vparts
p17
(lp18
Vxen
p19
ass(Vimage
p20
tp21
(dp22
Vinitramfs-generators
p23
(lp24
Vinitramfs-tools
p25
aVinitramfs-fallback
p26
ass(Vversion
p27
tp28
(dp29
Vupstream
p30
V4.10
p31
sVabiname
p32
V4.10.7-towo.2
p33
sVabiname_base
p34
V4.10.7
p35
sVsource
p36
V4.10-13
p37
ss(Vimage
p38
g12
tp39
(dp40
Vsuggests
p41
Vcrda
p42
sVinstall-stem
p43
Vvmlinuz
p44
sVbootloaders
p45
(lp46
Vgrub-pc
p47
aVextlinux
p48
aVgrub-efi-amd64
p49
asVbreaks
p50
Vxserver-xorg-input-vmmouse (<< 1:13.0.99)
p51
ss(Vabi
p52
tp53
(dp54
Vabiname
p55
Vtowo.2
p56
ss(Vbase
p57
tp58
(dp59
Vfeaturesets
p60
(lp61
Vnone
p62
asVcompiler
p63
Vgcc-6
p64
sVarches
p65
(lp66
Vamd64
p67
ass(Vbase
p68
g12
g13
tp69
(dp70
Vimplicit-flavour
p71
I01
sVflavours
p72
(lp73
Vsiduction-amd64
p74
ass(Vrelations
p75
tp76
(dp77
Vinitramfs-tools
p78
Vinitramfs-tools (>= 0.121~)
p79
sVinitramfs-fallback
p80
Vlinux-initramfs-tool
p81
sVgcc-6
p82
Vgcc-6
p83
ss(Vdescription
p84
g12
NVsiduction-amd64
p85
tp86
(dp87
Vhardware-long
p88
VPCs with AMD64 or Intel 64 processors
p89
sVhardware
p90
V64-bit PCs
p91
ss(Vbase
p92
g12
tp93
(dp94
Vfeaturesets
p95
(lp96
Vnone
p97
ag13
asVkernel-arch
p98
Vx86
p99
ss(Vbuild
p100
g12
tp101
(dp102
Vimage-file
p103
Varch/x86/boot/bzImage
p104
sVdebug-info
p105
I00
sstp106
Rp107
.