ccopy_reg
_reconstructor
p0
(cdebian_linux.config
ConfigCore
p1
c__builtin__
dict
p2
(dp3
(Vdescription
p4
Vamd64
p5
Vnone
p6
Vsiduction-amd64
p7
tp8
(dp9
Vparts
p10
(lp11
Vxen
p12
ass(Vimage
p13
g5
tp14
(dp15
Vsuggests
p16
Vcrda
p17
sVinstall-stem
p18
Vvmlinuz
p19
sVbootloaders
p20
(lp21
Vgrub-pc
p22
aVextlinux
p23
aVgrub-efi-amd64
p24
asVbreaks
p25
Vxserver-xorg-input-vmmouse (<< 1:13.0.99)
p26
ss(Vdescription
p27
g5
NVsiduction-amd64
p28
tp29
(dp30
Vhardware
p31
V64-bit PCs
p32
sVhardware-long
p33
VPCs with AMD64 or Intel 64 processors
p34
ss(Vdescription
p35
tp36
(dp37
Vpart-long-up
p38
VThis kernel is not suitable for SMP (multi-processor,\u000amulti-core or hyper-threaded) systems.
p39
sVpart-long-xen
p40
VThis kernel also runs on a Xen hypervisor.\u000aIt supports both privileged (dom0) and unprivileged (domU) operation.
p41
ss(Vbase
p42
tp43
(dp44
Vcompiler
p45
Vgcc-6
p46
sVarches
p47
(lp48
Vamd64
p49
asVfeaturesets
p50
(lp51
Vnone
p52
ass(Vbase
p53
g5
g6
tp54
(dp55
Vflavours
p56
(lp57
Vsiduction-amd64
p58
asVimplicit-flavour
p59
I01
ss(Vbase
p60
g5
tp61
(dp62
Vkernel-arch
p63
Vx86
p64
sVfeaturesets
p65
(lp66
Vnone
p67
ag6
ass(Vversion
p68
tp69
(dp70
Vsource
p71
V4.10-19
p72
sVabiname_base
p73
V4.10.11
p74
sVupstream
p75
V4.10
p76
sVabiname
p77
V4.10.11-towo.1
p78
ss(Vbuild
p79
g5
tp80
(dp81
Vdebug-info
p82
I00
sVimage-file
p83
Varch/x86/boot/bzImage
p84
ss(Vrelations
p85
tp86
(dp87
Vinitramfs-tools
p88
Vinitramfs-tools (>= 0.121~)
p89
sVinitramfs-fallback
p90
Vlinux-initramfs-tool
p91
sVgcc-6
p92
Vgcc-6
p93
ss(Vabi
p94
tp95
(dp96
Vabiname
p97
Vtowo.1
p98
ss(Vimage
p99
tp100
(dp101
Vinitramfs-generators
p102
(lp103
Vinitramfs-tools
p104
aVinitramfs-fallback
p105
asstp106
Rp107
.