ccopy_reg
_reconstructor
p0
(cdebian_linux.config
ConfigCore
p1
c__builtin__
dict
p2
(dp3
(Vbase
p4
Vamd64
p5
tp6
(dp7
Vkernel-arch
p8
Vx86
p9
sVfeaturesets
p10
(lp11
Vnone
p12
aVnone
p13
ass(Vrelations
p14
tp15
(dp16
Vgcc-6
p17
Vgcc-6
p18
sVinitramfs-tools
p19
Vinitramfs-tools (>= 0.121~)
p20
sVinitramfs-fallback
p21
Vlinux-initramfs-tool
p22
ss(Vabi
p23
tp24
(dp25
Vabiname
p26
Vtowo.2
p27
ss(Vdescription
p28
g5
NVsiduction-amd64
p29
tp30
(dp31
Vhardware-long
p32
VPCs with AMD64 or Intel 64 processors
p33
sVhardware
p34
V64-bit PCs
p35
ss(Vversion
p36
tp37
(dp38
Vsource
p39
V4.10-25
p40
sVabiname_base
p41
V4.10.17
p42
sVupstream
p43
V4.10
p44
sVabiname
p45
V4.10.17-towo.2
p46
ss(Vbase
p47
tp48
(dp49
Varches
p50
(lp51
Vamd64
p52
asVfeaturesets
p53
(lp54
Vnone
p55
asVcompiler
p56
Vgcc-6
p57
ss(Vbuild
p58
g5
tp59
(dp60
Vimage-file
p61
Varch/x86/boot/bzImage
p62
sVdebug-info
p63
I00
ss(Vimage
p64
tp65
(dp66
Vinitramfs-generators
p67
(lp68
Vinitramfs-tools
p69
aVinitramfs-fallback
p70
ass(Vimage
p71
g5
tp72
(dp73
Vsuggests
p74
Vcrda
p75
sVbootloaders
p76
(lp77
Vgrub-pc
p78
aVextlinux
p79
aVgrub-efi-amd64
p80
asVinstall-stem
p81
Vvmlinuz
p82
sVbreaks
p83
Vxserver-xorg-input-vmmouse (<< 1:13.0.99)
p84
ss(Vdescription
p85
tp86
(dp87
Vpart-long-up
p88
VThis kernel is not suitable for SMP (multi-processor,\u000amulti-core or hyper-threaded) systems.
p89
sVpart-long-xen
p90
VThis kernel also runs on a Xen hypervisor.\u000aIt supports both privileged (dom0) and unprivileged (domU) operation.
p91
ss(Vdescription
p92
g5
g13
Vsiduction-amd64
p93
tp94
(dp95
Vparts
p96
(lp97
Vxen
p98
ass(Vbase
p99
g5
g13
tp100
(dp101
Vflavours
p102
(lp103
Vsiduction-amd64
p104
asVimplicit-flavour
p105
I01
sstp106
Rp107
.