ccopy_reg
_reconstructor
p0
(cdebian_linux.config
ConfigCore
p1
c__builtin__
dict
p2
(dp3
(Vdescription
p4
Vamd64
p5
NVsiduction-amd64
p6
tp7
(dp8
Vhardware-long
p9
VPCs with AMD64 or Intel 64 processors
p10
sVhardware
p11
V64-bit PCs
p12
ss(Vbase
p13
g5
Vnone
p14
tp15
(dp16
Vflavours
p17
(lp18
Vsiduction-amd64
p19
asVimplicit-flavour
p20
I01
ss(Vbuild
p21
g5
tp22
(dp23
Vdebug-info
p24
I00
sVimage-file
p25
Varch/x86/boot/bzImage
p26
ss(Vrelations
p27
tp28
(dp29
Vgcc-6
p30
Vgcc-6
p31
sVinitramfs-fallback
p32
Vlinux-initramfs-tool
p33
sVinitramfs-tools
p34
Vinitramfs-tools (>= 0.121~)
p35
ss(Vversion
p36
tp37
(dp38
Vsource
p39
V4.10-18
p40
sVabiname_base
p41
V4.10.10
p42
sVabiname
p43
V4.10.10-towo.1
p44
sVupstream
p45
V4.10
p46
ss(Vbase
p47
tp48
(dp49
Vcompiler
p50
Vgcc-6
p51
sVarches
p52
(lp53
Vamd64
p54
asVfeaturesets
p55
(lp56
Vnone
p57
ass(Vabi
p58
tp59
(dp60
Vabiname
p61
Vtowo.1
p62
ss(Vimage
p63
g5
tp64
(dp65
Vinstall-stem
p66
Vvmlinuz
p67
sVbootloaders
p68
(lp69
Vgrub-pc
p70
aVextlinux
p71
aVgrub-efi-amd64
p72
asVbreaks
p73
Vxserver-xorg-input-vmmouse (<< 1:13.0.99)
p74
sVsuggests
p75
Vcrda
p76
ss(Vimage
p77
tp78
(dp79
Vinitramfs-generators
p80
(lp81
Vinitramfs-tools
p82
aVinitramfs-fallback
p83
ass(Vdescription
p84
tp85
(dp86
Vpart-long-up
p87
VThis kernel is not suitable for SMP (multi-processor,\u000amulti-core or hyper-threaded) systems.
p88
sVpart-long-xen
p89
VThis kernel also runs on a Xen hypervisor.\u000aIt supports both privileged (dom0) and unprivileged (domU) operation.
p90
ss(Vbase
p91
g5
tp92
(dp93
Vkernel-arch
p94
Vx86
p95
sVfeaturesets
p96
(lp97
Vnone
p98
ag14
ass(Vdescription
p99
g5
g14
Vsiduction-amd64
p100
tp101
(dp102
Vparts
p103
(lp104
Vxen
p105
asstp106
Rp107
.