ccopy_reg
_reconstructor
p0
(cdebian_linux.config
ConfigCore
p1
c__builtin__
dict
p2
(dp3
(Vimage
p4
tp5
(dp6
Vinitramfs-generators
p7
(lp8
Vinitramfs-tools
p9
aVinitramfs-fallback
p10
ass(Vversion
p11
tp12
(dp13
Vupstream
p14
V4.10
p15
sVabiname
p16
V4.10.3-towo.2
p17
sVsource
p18
V4.10-8
p19
sVabiname_base
p20
V4.10.3
p21
ss(Vrelations
p22
tp23
(dp24
Vinitramfs-fallback
p25
Vlinux-initramfs-tool
p26
sVgcc-6
p27
Vgcc-6
p28
sVinitramfs-tools
p29
Vinitramfs-tools (>= 0.121~)
p30
ss(Vimage
p31
Vamd64
p32
tp33
(dp34
Vbreaks
p35
Vxserver-xorg-input-vmmouse (<< 1:13.0.99)
p36
sVsuggests
p37
Vcrda
p38
sVbootloaders
p39
(lp40
Vgrub-pc
p41
aVextlinux
p42
aVgrub-efi-amd64
p43
asVinstall-stem
p44
Vvmlinuz
p45
ss(Vabi
p46
tp47
(dp48
Vabiname
p49
Vtowo.2
p50
ss(Vbase
p51
tp52
(dp53
Vcompiler
p54
Vgcc-6
p55
sVarches
p56
(lp57
Vamd64
p58
asVfeaturesets
p59
(lp60
Vnone
p61
ass(Vbuild
p62
g32
tp63
(dp64
Vdebug-info
p65
I00
sVimage-file
p66
Varch/x86/boot/bzImage
p67
ss(Vdescription
p68
g32
Vnone
p69
Vsiduction-amd64
p70
tp71
(dp72
Vparts
p73
(lp74
Vxen
p75
ass(Vbase
p76
g32
tp77
(dp78
Vfeaturesets
p79
(lp80
Vnone
p81
ag69
asVkernel-arch
p82
Vx86
p83
ss(Vbase
p84
g32
g69
tp85
(dp86
Vflavours
p87
(lp88
Vsiduction-amd64
p89
asVimplicit-flavour
p90
I01
ss(Vdescription
p91
tp92
(dp93
Vpart-long-up
p94
VThis kernel is not suitable for SMP (multi-processor,\u000amulti-core or hyper-threaded) systems.
p95
sVpart-long-xen
p96
VThis kernel also runs on a Xen hypervisor.\u000aIt supports both privileged (dom0) and unprivileged (domU) operation.
p97
ss(Vdescription
p98
g32
NVsiduction-amd64
p99
tp100
(dp101
Vhardware-long
p102
VPCs with AMD64 or Intel 64 processors
p103
sVhardware
p104
V64-bit PCs
p105
sstp106
Rp107
.