ccopy_reg
_reconstructor
p0
(cdebian_linux.config
ConfigCore
p1
c__builtin__
dict
p2
(dp3
(Vxen
p4
Vamd64
p5
Vnone
p6
Vsiduction-amd64
p7
tp8
(dp9
Vflavours
p10
(lp11
Vsiduction-amd64
p12
ass(Vimage
p13
g5
tp14
(dp15
Vbootloaders
p16
(lp17
Vgrub-pc
p18
aVextlinux
p19
aVgrub-efi-amd64
p20
asVsuggests
p21
Vcrda
p22
sVconfigs
p23
(lp24
sVinstall-stem
p25
Vvmlinuz
p26
ss(Vversion
p27
tp28
(dp29
Vabiname_base
p30
V4.10.0-rc5
p31
sVsource
p32
V4.10~rc5-1~exp1
p33
sVabiname
p34
g31
sVupstream
p35
V4.10-rc5
p36
ss(Vbase
p37
g5
tp38
(dp39
Vkernel-arch
p40
Vx86
p41
sVfeaturesets
p42
(lp43
Vnone
p44
ag6
ass(Vimage
p45
g5
NVsiduction-amd64
p46
tp47
(dp48
Vconfigs
p49
(lp50
Vkernelarch-x86/config-arch-64
p51
ass(Vdescription
p52
g5
NVsiduction-amd64
p53
tp54
(dp55
Vhardware
p56
V64-bit PCs
p57
sVhardware-long
p58
VPCs with AMD64 or Intel 64 processors
p59
ss(Vimage
p60
tp61
(dp62
Vtype
p63
Vplain
p64
sVinitramfs-generators
p65
(lp66
Vinitramfs-tools
p67
aVinitramfs-fallback
p68
ass(Vabi
p69
tp70
(dp71
Vabiname
p72
Vtowo.1
p73
ss(Vbase
p74
g5
g6
tp75
(dp76
Vimplicit-flavour
p77
I01
sVflavours
p78
(lp79
Vsiduction-amd64
p80
ass(Vdescription
p81
g5
g6
Vsiduction-amd64
p82
tp83
(dp84
Vparts
p85
(lp86
Vxen
p87
ass(Vbase
p88
tp89
(dp90
Varches
p91
(lp92
Vamd64
p93
asVfeaturesets
p94
(lp95
Vnone
p96
asVcompiler
p97
Vgcc-6
p98
ss(Vrelations
p99
tp100
(dp101
Vinitramfs-fallback
p102
Vlinux-initramfs-tool
p103
sVinitramfs-tools
p104
Vinitramfs-tools (>= 0.110~)
p105
sVgcc-6
p106
Vgcc-6
p107
ss(Vbuild
p108
g5
tp109
(dp110
Vimage-file
p111
Varch/x86/boot/bzImage
p112
sVdebug-info
p113
I00
ss(Vdescription
p114
tp115
(dp116
Vpart-long-up
p117
VThis kernel is not suitable for SMP (multi-processor,\u000amulti-core or hyper-threaded) systems.
p118
sVpart-long-xen
p119
VThis kernel also runs on a Xen hypervisor.\u000aIt supports both privileged (dom0) and unprivileged (domU) operation.
p120
sstp121
Rp122
.