ccopy_reg
_reconstructor
p0
(cdebian_linux.config
ConfigCore
p1
c__builtin__
dict
p2
(dp3
(Vimage
p4
Vamd64
p5
tp6
(dp7
Vbootloaders
p8
(lp9
Vgrub-pc
p10
aVextlinux
p11
aVgrub-efi-amd64
p12
asVbreaks
p13
Vxserver-xorg-input-vmmouse (<< 1:13.0.99)
p14
sVinstall-stem
p15
Vvmlinuz
p16
sVsuggests
p17
Vcrda
p18
ss(Vbase
p19
tp20
(dp21
Vfeaturesets
p22
(lp23
Vnone
p24
asVarches
p25
(lp26
Vamd64
p27
asVcompiler
p28
Vgcc-6
p29
ss(Vdescription
p30
g5
Vnone
p31
Vsiduction-amd64
p32
tp33
(dp34
Vparts
p35
(lp36
Vxen
p37
ass(Vimage
p38
tp39
(dp40
Vinitramfs-generators
p41
(lp42
Vinitramfs-tools
p43
aVinitramfs-fallback
p44
ass(Vbuild
p45
g5
tp46
(dp47
Vdebug-info
p48
I00
sVimage-file
p49
Varch/x86/boot/bzImage
p50
ss(Vdescription
p51
tp52
(dp53
Vpart-long-up
p54
VThis kernel is not suitable for SMP (multi-processor,\u000amulti-core or hyper-threaded) systems.
p55
sVpart-long-xen
p56
VThis kernel also runs on a Xen hypervisor.\u000aIt supports both privileged (dom0) and unprivileged (domU) operation.
p57
ss(Vdescription
p58
g5
NVsiduction-amd64
p59
tp60
(dp61
Vhardware-long
p62
VPCs with AMD64 or Intel 64 processors
p63
sVhardware
p64
V64-bit PCs
p65
ss(Vversion
p66
tp67
(dp68
Vsource
p69
V4.10-15
p70
sVupstream
p71
V4.10
p72
sVabiname
p73
V4.10.9-towo.1
p74
sVabiname_base
p75
V4.10.9
p76
ss(Vbase
p77
g5
tp78
(dp79
Vfeaturesets
p80
(lp81
Vnone
p82
ag31
asVkernel-arch
p83
Vx86
p84
ss(Vrelations
p85
tp86
(dp87
Vgcc-6
p88
Vgcc-6
p89
sVinitramfs-fallback
p90
Vlinux-initramfs-tool
p91
sVinitramfs-tools
p92
Vinitramfs-tools (>= 0.121~)
p93
ss(Vabi
p94
tp95
(dp96
Vabiname
p97
Vtowo.1
p98
ss(Vbase
p99
g5
g31
tp100
(dp101
Vflavours
p102
(lp103
Vsiduction-amd64
p104
asVimplicit-flavour
p105
I01
sstp106
Rp107
.