ccopy_reg
_reconstructor
p0
(cdebian_linux.config
ConfigCore
p1
c__builtin__
dict
p2
(dp3
(Vversion
p4
tp5
(dp6
Vupstream
p7
V4.10
p8
sVsource
p9
V4.10-6
p10
sVabiname_base
p11
V4.10.3
p12
sVabiname
p13
V4.10.3-towo.1
p14
ss(Vabi
p15
tp16
(dp17
Vabiname
p18
Vtowo.1
p19
ss(Vbase
p20
Vamd64
p21
Vnone
p22
tp23
(dp24
Vimplicit-flavour
p25
I01
sVflavours
p26
(lp27
Vsiduction-amd64
p28
ass(Vbuild
p29
g21
tp30
(dp31
Vdebug-info
p32
I00
sVimage-file
p33
Varch/x86/boot/bzImage
p34
ss(Vbase
p35
g21
tp36
(dp37
Vfeaturesets
p38
(lp39
Vnone
p40
ag22
asVkernel-arch
p41
Vx86
p42
ss(Vdescription
p43
g21
g22
Vsiduction-amd64
p44
tp45
(dp46
Vparts
p47
(lp48
Vxen
p49
ass(Vbase
p50
tp51
(dp52
Varches
p53
(lp54
Vamd64
p55
asVfeaturesets
p56
(lp57
Vnone
p58
asVcompiler
p59
Vgcc-6
p60
ss(Vrelations
p61
tp62
(dp63
Vgcc-6
p64
Vgcc-6
p65
sVinitramfs-tools
p66
Vinitramfs-tools (>= 0.121~)
p67
sVinitramfs-fallback
p68
Vlinux-initramfs-tool
p69
ss(Vdescription
p70
tp71
(dp72
Vpart-long-up
p73
VThis kernel is not suitable for SMP (multi-processor,\u000amulti-core or hyper-threaded) systems.
p74
sVpart-long-xen
p75
VThis kernel also runs on a Xen hypervisor.\u000aIt supports both privileged (dom0) and unprivileged (domU) operation.
p76
ss(Vimage
p77
g21
tp78
(dp79
Vbootloaders
p80
(lp81
Vgrub-pc
p82
aVextlinux
p83
aVgrub-efi-amd64
p84
asVbreaks
p85
Vxserver-xorg-input-vmmouse (<< 1:13.0.99)
p86
sVsuggests
p87
Vcrda
p88
sVinstall-stem
p89
Vvmlinuz
p90
ss(Vimage
p91
tp92
(dp93
Vinitramfs-generators
p94
(lp95
Vinitramfs-tools
p96
aVinitramfs-fallback
p97
ass(Vdescription
p98
g21
NVsiduction-amd64
p99
tp100
(dp101
Vhardware
p102
V64-bit PCs
p103
sVhardware-long
p104
VPCs with AMD64 or Intel 64 processors
p105
sstp106
Rp107
.