ccopy_reg
_reconstructor
p0
(cdebian_linux.config
ConfigCore
p1
c__builtin__
dict
p2
(dp3
(Vabi
p4
tp5
(dp6
Vabiname
p7
Vtowo.3
p8
ss(Vdescription
p9
Vamd64
p10
Vnone
p11
Vsiduction-amd64
p12
tp13
(dp14
Vparts
p15
(lp16
Vxen
p17
ass(Vrelations
p18
tp19
(dp20
Vgcc-6
p21
Vgcc-6
p22
sVinitramfs-tools
p23
Vinitramfs-tools (>= 0.121~)
p24
sVinitramfs-fallback
p25
Vlinux-initramfs-tool
p26
ss(Vbase
p27
g10
g11
tp28
(dp29
Vimplicit-flavour
p30
I01
sVflavours
p31
(lp32
Vsiduction-amd64
p33
ass(Vbase
p34
tp35
(dp36
Varches
p37
(lp38
Vamd64
p39
asVfeaturesets
p40
(lp41
Vnone
p42
asVcompiler
p43
Vgcc-6
p44
ss(Vimage
p45
g10
tp46
(dp47
Vsuggests
p48
Vcrda
p49
sVinstall-stem
p50
Vvmlinuz
p51
sVbootloaders
p52
(lp53
Vgrub-pc
p54
aVextlinux
p55
aVgrub-efi-amd64
p56
asVbreaks
p57
Vxserver-xorg-input-vmmouse (<< 1:13.0.99)
p58
ss(Vimage
p59
tp60
(dp61
Vinitramfs-generators
p62
(lp63
Vinitramfs-tools
p64
aVinitramfs-fallback
p65
ass(Vdescription
p66
tp67
(dp68
Vpart-long-xen
p69
VThis kernel also runs on a Xen hypervisor.\u000aIt supports both privileged (dom0) and unprivileged (domU) operation.
p70
sVpart-long-up
p71
VThis kernel is not suitable for SMP (multi-processor,\u000amulti-core or hyper-threaded) systems.
p72
ss(Vbuild
p73
g10
tp74
(dp75
Vdebug-info
p76
I00
sVimage-file
p77
Varch/x86/boot/bzImage
p78
ss(Vdescription
p79
g10
NVsiduction-amd64
p80
tp81
(dp82
Vhardware-long
p83
VPCs with AMD64 or Intel 64 processors
p84
sVhardware
p85
V64-bit PCs
p86
ss(Vbase
p87
g10
tp88
(dp89
Vfeaturesets
p90
(lp91
Vnone
p92
ag11
asVkernel-arch
p93
Vx86
p94
ss(Vversion
p95
tp96
(dp97
Vsource
p98
V4.10-17
p99
sVabiname
p100
V4.10.9-towo.3
p101
sVupstream
p102
V4.10
p103
sVabiname_base
p104
V4.10.9
p105
sstp106
Rp107
.