ccopy_reg
_reconstructor
p0
(cdebian_linux.config
ConfigCore
p1
c__builtin__
dict
p2
(dp3
(Vdescription
p4
tp5
(dp6
Vpart-long-up
p7
VThis kernel is not suitable for SMP (multi-processor,\u000amulti-core or hyper-threaded) systems.
p8
sVpart-long-xen
p9
VThis kernel also runs on a Xen hypervisor.\u000aIt supports both privileged (dom0) and unprivileged (domU) operation.
p10
ss(Vbase
p11
tp12
(dp13
Varches
p14
(lp15
Vamd64
p16
asVcompiler
p17
Vgcc-6
p18
sVfeaturesets
p19
(lp20
Vnone
p21
ass(Vbuild
p22
Vamd64
p23
tp24
(dp25
Vimage-file
p26
Varch/x86/boot/bzImage
p27
sVdebug-info
p28
I00
ss(Vversion
p29
tp30
(dp31
Vsource
p32
V4.10-3
p33
sVabiname_base
p34
V4.10.1
p35
sVabiname
p36
V4.10.1-towo.1
p37
sVupstream
p38
V4.10
p39
ss(Vbase
p40
g23
Vnone
p41
tp42
(dp43
Vflavours
p44
(lp45
Vsiduction-amd64
p46
asVimplicit-flavour
p47
I01
ss(Vabi
p48
tp49
(dp50
Vabiname
p51
Vtowo.1
p52
ss(Vimage
p53
tp54
(dp55
Vinitramfs-generators
p56
(lp57
Vinitramfs-tools
p58
aVinitramfs-fallback
p59
ass(Vdescription
p60
g23
NVsiduction-amd64
p61
tp62
(dp63
Vhardware
p64
V64-bit PCs
p65
sVhardware-long
p66
VPCs with AMD64 or Intel 64 processors
p67
ss(Vimage
p68
g23
tp69
(dp70
Vinstall-stem
p71
Vvmlinuz
p72
sVbootloaders
p73
(lp74
Vgrub-pc
p75
aVextlinux
p76
aVgrub-efi-amd64
p77
asVsuggests
p78
Vcrda
p79
sVbreaks
p80
Vxserver-xorg-input-vmmouse (<< 1:13.0.99)
p81
ss(Vbase
p82
g23
tp83
(dp84
Vkernel-arch
p85
Vx86
p86
sVfeaturesets
p87
(lp88
Vnone
p89
ag41
ass(Vdescription
p90
g23
g41
Vsiduction-amd64
p91
tp92
(dp93
Vparts
p94
(lp95
Vxen
p96
ass(Vrelations
p97
tp98
(dp99
Vinitramfs-fallback
p100
Vlinux-initramfs-tool
p101
sVgcc-6
p102
Vgcc-6
p103
sVinitramfs-tools
p104
Vinitramfs-tools (>= 0.121~)
p105
sstp106
Rp107
.