ccopy_reg
_reconstructor
p0
(cdebian_linux.config
ConfigCore
p1
c__builtin__
dict
p2
(dp3
(Vabi
p4
tp5
(dp6
Vabiname
p7
Vtowo.3
p8
ss(Vdescription
p9
Vamd64
p10
Vnone
p11
Vsiduction-amd64
p12
tp13
(dp14
Vparts
p15
(lp16
Vxen
p17
ass(Vbase
p18
g10
tp19
(dp20
Vkernel-arch
p21
Vx86
p22
sVfeaturesets
p23
(lp24
Vnone
p25
ag11
ass(Vversion
p26
tp27
(dp28
Vsource
p29
V4.10-2
p30
sVupstream
p31
V4.10
p32
sVabiname_base
p33
V4.10.0
p34
sVabiname
p35
V4.10.0-towo.3
p36
ss(Vbuild
p37
g10
tp38
(dp39
Vimage-file
p40
Varch/x86/boot/bzImage
p41
sVdebug-info
p42
I00
ss(Vdescription
p43
g10
NVsiduction-amd64
p44
tp45
(dp46
Vhardware-long
p47
VPCs with AMD64 or Intel 64 processors
p48
sVhardware
p49
V64-bit PCs
p50
ss(Vbase
p51
tp52
(dp53
Varches
p54
(lp55
Vamd64
p56
asVcompiler
p57
Vgcc-6
p58
sVfeaturesets
p59
(lp60
Vnone
p61
ass(Vrelations
p62
tp63
(dp64
Vgcc-6
p65
Vgcc-6
p66
sVinitramfs-fallback
p67
Vlinux-initramfs-tool
p68
sVinitramfs-tools
p69
Vinitramfs-tools (>= 0.121~)
p70
ss(Vimage
p71
tp72
(dp73
Vinitramfs-generators
p74
(lp75
Vinitramfs-tools
p76
aVinitramfs-fallback
p77
ass(Vbase
p78
g10
g11
tp79
(dp80
Vimplicit-flavour
p81
I01
sVflavours
p82
(lp83
Vsiduction-amd64
p84
ass(Vimage
p85
g10
tp86
(dp87
Vbootloaders
p88
(lp89
Vgrub-pc
p90
aVextlinux
p91
aVgrub-efi-amd64
p92
asVsuggests
p93
Vcrda
p94
sVbreaks
p95
Vxserver-xorg-input-vmmouse (<< 1:13.0.99)
p96
sVinstall-stem
p97
Vvmlinuz
p98
ss(Vdescription
p99
tp100
(dp101
Vpart-long-up
p102
VThis kernel is not suitable for SMP (multi-processor,\u000amulti-core or hyper-threaded) systems.
p103
sVpart-long-xen
p104
VThis kernel also runs on a Xen hypervisor.\u000aIt supports both privileged (dom0) and unprivileged (domU) operation.
p105
sstp106
Rp107
.