ccopy_reg
_reconstructor
p0
(cdebian_linux.config
ConfigCore
p1
c__builtin__
dict
p2
(dp3
(Vdescription
p4
tp5
(dp6
Vpart-long-up
p7
VThis kernel is not suitable for SMP (multi-processor,\u000amulti-core or hyper-threaded) systems.
p8
sVpart-long-xen
p9
VThis kernel also runs on a Xen hypervisor.\u000aIt supports both privileged (dom0) and unprivileged (domU) operation.
p10
ss(Vimage
p11
tp12
(dp13
Vinitramfs-generators
p14
(lp15
Vinitramfs-tools
p16
aVinitramfs-fallback
p17
ass(Vbase
p18
tp19
(dp20
Varches
p21
(lp22
Vamd64
p23
asVcompiler
p24
Vgcc-6
p25
sVfeaturesets
p26
(lp27
Vnone
p28
ass(Vdescription
p29
Vamd64
p30
Vnone
p31
Vsiduction-amd64
p32
tp33
(dp34
Vparts
p35
(lp36
Vxen
p37
ass(Vrelations
p38
tp39
(dp40
Vinitramfs-tools
p41
Vinitramfs-tools (>= 0.121~)
p42
sVinitramfs-fallback
p43
Vlinux-initramfs-tool
p44
sVgcc-6
p45
Vgcc-6
p46
ss(Vbuild
p47
g30
tp48
(dp49
Vimage-file
p50
Varch/x86/boot/bzImage
p51
sVdebug-info
p52
I00
ss(Vdescription
p53
g30
NVsiduction-amd64
p54
tp55
(dp56
Vhardware-long
p57
VPCs with AMD64 or Intel 64 processors
p58
sVhardware
p59
V64-bit PCs
p60
ss(Vimage
p61
g30
tp62
(dp63
Vinstall-stem
p64
Vvmlinuz
p65
sVbreaks
p66
Vxserver-xorg-input-vmmouse (<< 1:13.0.99)
p67
sVsuggests
p68
Vcrda
p69
sVbootloaders
p70
(lp71
Vgrub-pc
p72
aVextlinux
p73
aVgrub-efi-amd64
p74
ass(Vbase
p75
g30
g31
tp76
(dp77
Vflavours
p78
(lp79
Vsiduction-amd64
p80
asVimplicit-flavour
p81
I01
ss(Vabi
p82
tp83
(dp84
Vabiname
p85
Vtowo.1
p86
ss(Vversion
p87
tp88
(dp89
Vsource
p90
V4.10~rc8-1~exp1
p91
sVabiname_base
p92
V4.10.0-rc8
p93
sVabiname
p94
g93
sVupstream
p95
V4.10-rc8
p96
ss(Vbase
p97
g30
tp98
(dp99
Vkernel-arch
p100
Vx86
p101
sVfeaturesets
p102
(lp103
Vnone
p104
ag31
asstp105
Rp106
.