ccopy_reg
_reconstructor
p0
(cdebian_linux.config
ConfigCore
p1
c__builtin__
dict
p2
(dp3
(Vdescription
p4
Vamd64
p5
NVsiduction-amd64
p6
tp7
(dp8
Vhardware-long
p9
VPCs with AMD64 or Intel 64 processors
p10
sVhardware
p11
V64-bit PCs
p12
ss(Vimage
p13
g5
tp14
(dp15
Vbreaks
p16
Vxserver-xorg-input-vmmouse (<< 1:13.0.99)
p17
sVbootloaders
p18
(lp19
Vgrub-pc
p20
aVextlinux
p21
aVgrub-efi-amd64
p22
asVsuggests
p23
Vcrda
p24
sVinstall-stem
p25
Vvmlinuz
p26
ss(Vrelations
p27
tp28
(dp29
Vinitramfs-fallback
p30
Vlinux-initramfs-tool
p31
sVinitramfs-tools
p32
Vinitramfs-tools (>= 0.121~)
p33
sVgcc-7
p34
Vgcc-7
p35
ss(Vabi
p36
tp37
(dp38
Vabiname
p39
Vtowo.1
p40
ss(Vimage
p41
tp42
(dp43
Vinitramfs-generators
p44
(lp45
Vinitramfs-tools
p46
aVinitramfs-fallback
p47
ass(Vbase
p48
g5
Vnone
p49
tp50
(dp51
Vflavours
p52
(lp53
Vsiduction-amd64
p54
asVimplicit-flavour
p55
I01
ss(Vdescription
p56
tp57
(dp58
Vpart-long-up
p59
VThis kernel is not suitable for SMP (multi-processor,\u000amulti-core or hyper-threaded) systems.
p60
sVpart-long-xen
p61
VThis kernel also runs on a Xen hypervisor.\u000aIt supports both privileged (dom0) and unprivileged (domU) operation.
p62
ss(Vbase
p63
g5
tp64
(dp65
Vfeaturesets
p66
(lp67
Vnone
p68
ag49
asVkernel-arch
p69
Vx86
p70
ss(Vdescription
p71
g5
g49
Vsiduction-amd64
p72
tp73
(dp74
Vparts
p75
(lp76
Vxen
p77
ass(Vversion
p78
tp79
(dp80
Vabiname_base
p81
V4.13.0-rc7
p82
sVabiname
p83
g82
sVupstream
p84
V4.13-rc7
p85
sVsource
p86
V4.13~rc7-1~exp1
p87
ss(Vbase
p88
tp89
(dp90
Vfeaturesets
p91
(lp92
Vnone
p93
asVarches
p94
(lp95
Vamd64
p96
asVcompiler
p97
Vgcc-7
p98
ss(Vbuild
p99
g5
tp100
(dp101
Vdebug-info
p102
I00
sVimage-file
p103
Varch/x86/boot/bzImage
p104
sstp105
Rp106
.