ccopy_reg
_reconstructor
p0
(cdebian_linux.config
ConfigCore
p1
c__builtin__
dict
p2
(dp3
(Vbase
p4
Vamd64
p5
tp6
(dp7
Vfeaturesets
p8
(lp9
Vnone
p10
aVnone
p11
asVkernel-arch
p12
Vx86
p13
ss(Vdescription
p14
tp15
(dp16
Vpart-long-up
p17
VThis kernel is not suitable for SMP (multi-processor,\u000amulti-core or hyper-threaded) systems.
p18
sVpart-long-xen
p19
VThis kernel also runs on a Xen hypervisor.\u000aIt supports both privileged (dom0) and unprivileged (domU) operation.
p20
ss(Vbuild
p21
g5
tp22
(dp23
Vimage-file
p24
Varch/x86/boot/bzImage
p25
sVdebug-info
p26
I00
ss(Vimage
p27
tp28
(dp29
Vinitramfs-generators
p30
(lp31
Vinitramfs-tools
p32
aVinitramfs-fallback
p33
ass(Vbase
p34
tp35
(dp36
Vfeaturesets
p37
(lp38
Vnone
p39
asVcompiler
p40
Vgcc-7
p41
sVarches
p42
(lp43
Vamd64
p44
ass(Vabi
p45
tp46
(dp47
Vabiname
p48
Vtowo.1
p49
ss(Vbase
p50
g5
g11
tp51
(dp52
Vflavours
p53
(lp54
Vsiduction-amd64
p55
asVimplicit-flavour
p56
I01
ss(Vrelations
p57
tp58
(dp59
Vinitramfs-tools
p60
Vinitramfs-tools (>= 0.121~)
p61
sVinitramfs-fallback
p62
Vlinux-initramfs-tool
p63
sVgcc-7
p64
Vgcc-7
p65
ss(Vimage
p66
g5
tp67
(dp68
Vbootloaders
p69
(lp70
Vgrub-pc
p71
aVextlinux
p72
aVgrub-efi-amd64
p73
asVbreaks
p74
Vxserver-xorg-input-vmmouse (<< 1:13.0.99)
p75
sVsuggests
p76
Vcrda
p77
sVinstall-stem
p78
Vvmlinuz
p79
ss(Vversion
p80
tp81
(dp82
Vabiname
p83
V4.13.0-rc5
p84
sVsource
p85
V4.13~rc5-1~exp1
p86
sVupstream
p87
V4.13-rc5
p88
sVabiname_base
p89
g84
ss(Vdescription
p90
g5
NVsiduction-amd64
p91
tp92
(dp93
Vhardware-long
p94
VPCs with AMD64 or Intel 64 processors
p95
sVhardware
p96
V64-bit PCs
p97
ss(Vdescription
p98
g5
g11
Vsiduction-amd64
p99
tp100
(dp101
Vparts
p102
(lp103
Vxen
p104
asstp105
Rp106
.