ccopy_reg
_reconstructor
p0
(cdebian_linux.config
ConfigCore
p1
c__builtin__
dict
p2
(dp3
(Vimage
p4
Vamd64
p5
tp6
(dp7
Vinstall-stem
p8
Vvmlinuz
p9
sVbootloaders
p10
(lp11
Vgrub-pc
p12
aVextlinux
p13
aVgrub-efi-amd64
p14
asVbreaks
p15
Vxserver-xorg-input-vmmouse (<< 1:13.0.99)
p16
sVsuggests
p17
Vcrda
p18
ss(Vabi
p19
tp20
(dp21
Vabiname
p22
Vtowo.2
p23
ss(Vversion
p24
tp25
(dp26
Vsource
p27
V4.13-4
p28
sVabiname_base
p29
V4.13.1
p30
sVupstream
p31
V4.13
p32
sVabiname
p33
V4.13.1-towo.2
p34
ss(Vbase
p35
tp36
(dp37
Vfeaturesets
p38
(lp39
Vnone
p40
asVarches
p41
(lp42
Vamd64
p43
asVcompiler
p44
Vgcc-7
p45
ss(Vbase
p46
g5
Vnone
p47
tp48
(dp49
Vflavours
p50
(lp51
Vsiduction-amd64
p52
asVimplicit-flavour
p53
I01
ss(Vbuild
p54
g5
tp55
(dp56
Vimage-file
p57
Varch/x86/boot/bzImage
p58
sVdebug-info
p59
I00
ss(Vdescription
p60
g5
NVsiduction-amd64
p61
tp62
(dp63
Vhardware
p64
V64-bit PCs
p65
sVhardware-long
p66
VPCs with AMD64 or Intel 64 processors
p67
ss(Vdescription
p68
g5
g47
Vsiduction-amd64
p69
tp70
(dp71
Vparts
p72
(lp73
Vxen
p74
ass(Vimage
p75
tp76
(dp77
Vinitramfs-generators
p78
(lp79
Vinitramfs-tools
p80
aVinitramfs-fallback
p81
ass(Vdescription
p82
tp83
(dp84
Vpart-long-up
p85
VThis kernel is not suitable for SMP (multi-processor,\u000amulti-core or hyper-threaded) systems.
p86
sVpart-long-xen
p87
VThis kernel also runs on a Xen hypervisor.\u000aIt supports both privileged (dom0) and unprivileged (domU) operation.
p88
ss(Vbase
p89
g5
tp90
(dp91
Vfeaturesets
p92
(lp93
Vnone
p94
ag47
asVkernel-arch
p95
Vx86
p96
ss(Vrelations
p97
tp98
(dp99
Vgcc-7
p100
Vgcc-7
p101
sVinitramfs-fallback
p102
Vlinux-initramfs-tool
p103
sVinitramfs-tools
p104
Vinitramfs-tools (>= 0.121~)
p105
sstp106
Rp107
.