ccopy_reg
_reconstructor
p0
(cdebian_linux.config
ConfigCore
p1
c__builtin__
dict
p2
(dp3
(Vrelations
p4
tp5
(dp6
Vinitramfs-tools
p7
Vinitramfs-tools (>= 0.121~)
p8
sVgcc-7
p9
Vgcc-7
p10
sVinitramfs-fallback
p11
Vlinux-initramfs-tool
p12
ss(Vbase
p13
Vamd64
p14
tp15
(dp16
Vkernel-arch
p17
Vx86
p18
sVfeaturesets
p19
(lp20
Vnone
p21
aVnone
p22
ass(Vdescription
p23
g14
g22
Vsiduction-amd64
p24
tp25
(dp26
Vparts
p27
(lp28
Vxen
p29
ass(Vbuild
p30
g14
tp31
(dp32
Vdebug-info
p33
I00
sVimage-file
p34
Varch/x86/boot/bzImage
p35
ss(Vbase
p36
tp37
(dp38
Vcompiler
p39
Vgcc-7
p40
sVarches
p41
(lp42
Vamd64
p43
asVfeaturesets
p44
(lp45
Vnone
p46
ass(Vversion
p47
tp48
(dp49
Vabiname
p50
V4.13.5-towo.2
p51
sVupstream
p52
V4.13
p53
sVsource
p54
V4.13-11
p55
sVabiname_base
p56
V4.13.5
p57
ss(Vbase
p58
g14
g22
tp59
(dp60
Vflavours
p61
(lp62
Vsiduction-amd64
p63
asVimplicit-flavour
p64
I01
ss(Vimage
p65
tp66
(dp67
Vinitramfs-generators
p68
(lp69
Vinitramfs-tools
p70
aVinitramfs-fallback
p71
ass(Vimage
p72
g14
tp73
(dp74
Vbootloaders
p75
(lp76
Vgrub-pc
p77
aVextlinux
p78
aVgrub-efi-amd64
p79
asVbreaks
p80
Vxserver-xorg-input-vmmouse (<< 1:13.0.99)
p81
sVsuggests
p82
Vcrda
p83
sVinstall-stem
p84
Vvmlinuz
p85
ss(Vdescription
p86
g14
NVsiduction-amd64
p87
tp88
(dp89
Vhardware-long
p90
VPCs with AMD64 or Intel 64 processors
p91
sVhardware
p92
V64-bit PCs
p93
ss(Vabi
p94
tp95
(dp96
Vabiname
p97
Vtowo.2
p98
ss(Vdescription
p99
tp100
(dp101
Vpart-long-up
p102
VThis kernel is not suitable for SMP (multi-processor,\u000amulti-core or hyper-threaded) systems.
p103
sVpart-long-xen
p104
VThis kernel also runs on a Xen hypervisor.\u000aIt supports both privileged (dom0) and unprivileged (domU) operation.
p105
sstp106
Rp107
.