ccopy_reg
_reconstructor
p0
(cdebian_linux.config
ConfigCore
p1
c__builtin__
dict
p2
(dp3
(Vdescription
p4
tp5
(dp6
Vpart-long-up
p7
VThis kernel is not suitable for SMP (multi-processor,\u000amulti-core or hyper-threaded) systems.
p8
sVpart-long-xen
p9
VThis kernel also runs on a Xen hypervisor.\u000aIt supports both privileged (dom0) and unprivileged (domU) operation.
p10
ss(Vdescription
p11
Vamd64
p12
NVsiduction-amd64
p13
tp14
(dp15
Vhardware
p16
V64-bit PCs
p17
sVhardware-long
p18
VPCs with AMD64 or Intel 64 processors
p19
ss(Vimage
p20
g12
tp21
(dp22
Vsuggests
p23
Vcrda
p24
sVinstall-stem
p25
Vvmlinuz
p26
sVbootloaders
p27
(lp28
Vgrub-pc
p29
aVextlinux
p30
aVgrub-efi-amd64
p31
asVbreaks
p32
Vxserver-xorg-input-vmmouse (<< 1:13.0.99)
p33
ss(Vabi
p34
tp35
(dp36
Vabiname
p37
Vtowo.1
p38
ss(Vdescription
p39
g12
Vnone
p40
Vsiduction-amd64
p41
tp42
(dp43
Vparts
p44
(lp45
Vxen
p46
ass(Vbase
p47
g12
tp48
(dp49
Vfeaturesets
p50
(lp51
Vnone
p52
ag40
asVkernel-arch
p53
Vx86
p54
ss(Vbuild
p55
g12
tp56
(dp57
Vimage-file
p58
Varch/x86/boot/bzImage
p59
sVdebug-info
p60
I00
ss(Vbase
p61
g12
g40
tp62
(dp63
Vflavours
p64
(lp65
Vsiduction-amd64
p66
asVimplicit-flavour
p67
I01
ss(Vimage
p68
tp69
(dp70
Vinitramfs-generators
p71
(lp72
Vinitramfs-tools
p73
aVinitramfs-fallback
p74
ass(Vversion
p75
tp76
(dp77
Vupstream
p78
V4.13-rc5
p79
sVsource
p80
V4.13~rc5-1~exp1
p81
sVabiname
p82
V4.13.0-rc5
p83
sVabiname_base
p84
g83
ss(Vrelations
p85
tp86
(dp87
Vinitramfs-tools
p88
Vinitramfs-tools (>= 0.121~)
p89
sVgcc-7
p90
Vgcc-7
p91
sVinitramfs-fallback
p92
Vlinux-initramfs-tool
p93
ss(Vbase
p94
tp95
(dp96
Vfeaturesets
p97
(lp98
Vnone
p99
asVarches
p100
(lp101
Vamd64
p102
asVcompiler
p103
Vgcc-7
p104
sstp105
Rp106
.