ccopy_reg
_reconstructor
p0
(cdebian_linux.config
ConfigCore
p1
c__builtin__
dict
p2
(dp3
(Vrelations
p4
tp5
(dp6
Vgcc-7
p7
Vgcc-7
p8
sVinitramfs-fallback
p9
Vlinux-initramfs-tool
p10
sVinitramfs-tools
p11
Vinitramfs-tools (>= 0.121~)
p12
ss(Vbuild
p13
Vamd64
p14
tp15
(dp16
Vimage-file
p17
Varch/x86/boot/bzImage
p18
sVdebug-info
p19
I00
ss(Vbase
p20
g14
tp21
(dp22
Vkernel-arch
p23
Vx86
p24
sVfeaturesets
p25
(lp26
Vnone
p27
aVnone
p28
ass(Vimage
p29
g14
tp30
(dp31
Vinstall-stem
p32
Vvmlinuz
p33
sVbootloaders
p34
(lp35
Vgrub-pc
p36
aVextlinux
p37
aVgrub-efi-amd64
p38
asVsuggests
p39
Vcrda
p40
sVbreaks
p41
Vxserver-xorg-input-vmmouse (<< 1:13.0.99)
p42
ss(Vimage
p43
tp44
(dp45
Vinitramfs-generators
p46
(lp47
Vinitramfs-tools
p48
aVinitramfs-fallback
p49
ass(Vdescription
p50
g14
NVsiduction-amd64
p51
tp52
(dp53
Vhardware-long
p54
VPCs with AMD64 or Intel 64 processors
p55
sVhardware
p56
V64-bit PCs
p57
ss(Vdescription
p58
g14
g28
Vsiduction-amd64
p59
tp60
(dp61
Vparts
p62
(lp63
Vxen
p64
ass(Vversion
p65
tp66
(dp67
Vsource
p68
V4.13-10
p69
sVabiname
p70
V4.13.5-towo.1
p71
sVupstream
p72
V4.13
p73
sVabiname_base
p74
V4.13.5
p75
ss(Vbase
p76
tp77
(dp78
Varches
p79
(lp80
Vamd64
p81
asVcompiler
p82
Vgcc-7
p83
sVfeaturesets
p84
(lp85
Vnone
p86
ass(Vabi
p87
tp88
(dp89
Vabiname
p90
Vtowo.1
p91
ss(Vdescription
p92
tp93
(dp94
Vpart-long-xen
p95
VThis kernel also runs on a Xen hypervisor.\u000aIt supports both privileged (dom0) and unprivileged (domU) operation.
p96
sVpart-long-up
p97
VThis kernel is not suitable for SMP (multi-processor,\u000amulti-core or hyper-threaded) systems.
p98
ss(Vbase
p99
g14
g28
tp100
(dp101
Vflavours
p102
(lp103
Vsiduction-amd64
p104
asVimplicit-flavour
p105
I01
sstp106
Rp107
.