ccopy_reg
_reconstructor
p0
(cdebian_linux.config
ConfigCore
p1
c__builtin__
dict
p2
(dp3
(Vimage
p4
tp5
(dp6
Vinitramfs-generators
p7
(lp8
Vinitramfs-tools
p9
aVinitramfs-fallback
p10
ass(Vdescription
p11
tp12
(dp13
Vpart-long-up
p14
VThis kernel is not suitable for SMP (multi-processor,\u000amulti-core or hyper-threaded) systems.
p15
sVpart-long-xen
p16
VThis kernel also runs on a Xen hypervisor.\u000aIt supports both privileged (dom0) and unprivileged (domU) operation.
p17
ss(Vdescription
p18
Vamd64
p19
Vnone
p20
Vsiduction-amd64
p21
tp22
(dp23
Vparts
p24
(lp25
Vxen
p26
ass(Vbuild
p27
g19
tp28
(dp29
Vimage-file
p30
Varch/x86/boot/bzImage
p31
sVdebug-info
p32
I00
ss(Vabi
p33
tp34
(dp35
Vabiname
p36
Vtowo.1
p37
ss(Vbase
p38
g19
g20
tp39
(dp40
Vimplicit-flavour
p41
I01
sVflavours
p42
(lp43
Vsiduction-amd64
p44
ass(Vbase
p45
tp46
(dp47
Varches
p48
(lp49
Vamd64
p50
asVcompiler
p51
Vgcc-7
p52
sVfeaturesets
p53
(lp54
Vnone
p55
ass(Vdescription
p56
g19
NVsiduction-amd64
p57
tp58
(dp59
Vhardware-long
p60
VPCs with AMD64 or Intel 64 processors
p61
sVhardware
p62
V64-bit PCs
p63
ss(Vversion
p64
tp65
(dp66
Vupstream
p67
V4.13
p68
sVabiname_base
p69
V4.13.2
p70
sVsource
p71
V4.13-5
p72
sVabiname
p73
V4.13.2-towo.1
p74
ss(Vrelations
p75
tp76
(dp77
Vgcc-7
p78
Vgcc-7
p79
sVinitramfs-tools
p80
Vinitramfs-tools (>= 0.121~)
p81
sVinitramfs-fallback
p82
Vlinux-initramfs-tool
p83
ss(Vbase
p84
g19
tp85
(dp86
Vkernel-arch
p87
Vx86
p88
sVfeaturesets
p89
(lp90
Vnone
p91
ag20
ass(Vimage
p92
g19
tp93
(dp94
Vbootloaders
p95
(lp96
Vgrub-pc
p97
aVextlinux
p98
aVgrub-efi-amd64
p99
asVinstall-stem
p100
Vvmlinuz
p101
sVbreaks
p102
Vxserver-xorg-input-vmmouse (<< 1:13.0.99)
p103
sVsuggests
p104
Vcrda
p105
sstp106
Rp107
.