ccopy_reg
_reconstructor
p0
(cdebian_linux.config
ConfigCore
p1
c__builtin__
dict
p2
(dp3
(Vimage
p4
tp5
(dp6
Vinitramfs-generators
p7
(lp8
Vinitramfs-tools
p9
aVinitramfs-fallback
p10
ass(Vdescription
p11
Vamd64
p12
Vnone
p13
Vsiduction-amd64
p14
tp15
(dp16
Vparts
p17
(lp18
Vxen
p19
ass(Vrelations
p20
tp21
(dp22
Vgcc-7
p23
Vgcc-7
p24
sVinitramfs-tools
p25
Vinitramfs-tools (>= 0.121~)
p26
sVinitramfs-fallback
p27
Vlinux-initramfs-tool
p28
ss(Vbase
p29
g12
tp30
(dp31
Vfeaturesets
p32
(lp33
Vnone
p34
ag13
asVkernel-arch
p35
Vx86
p36
ss(Vbuild
p37
g12
tp38
(dp39
Vdebug-info
p40
I00
sVimage-file
p41
Varch/x86/boot/bzImage
p42
ss(Vdescription
p43
g12
NVsiduction-amd64
p44
tp45
(dp46
Vhardware
p47
V64-bit PCs
p48
sVhardware-long
p49
VPCs with AMD64 or Intel 64 processors
p50
ss(Vdescription
p51
tp52
(dp53
Vpart-long-up
p54
VThis kernel is not suitable for SMP (multi-processor,\u000amulti-core or hyper-threaded) systems.
p55
sVpart-long-xen
p56
VThis kernel also runs on a Xen hypervisor.\u000aIt supports both privileged (dom0) and unprivileged (domU) operation.
p57
ss(Vimage
p58
g12
tp59
(dp60
Vbootloaders
p61
(lp62
Vgrub-pc
p63
aVextlinux
p64
aVgrub-efi-amd64
p65
asVinstall-stem
p66
Vvmlinuz
p67
sVsuggests
p68
Vcrda
p69
sVbreaks
p70
Vxserver-xorg-input-vmmouse (<< 1:13.0.99)
p71
ss(Vbase
p72
tp73
(dp74
Vcompiler
p75
Vgcc-7
p76
sVfeaturesets
p77
(lp78
Vnone
p79
asVarches
p80
(lp81
Vamd64
p82
ass(Vabi
p83
tp84
(dp85
Vabiname
p86
Vtowo.1
p87
ss(Vbase
p88
g12
g13
tp89
(dp90
Vflavours
p91
(lp92
Vsiduction-amd64
p93
asVimplicit-flavour
p94
I01
ss(Vversion
p95
tp96
(dp97
Vabiname_base
p98
V4.13.0-rc1
p99
sVupstream
p100
V4.13-rc1
p101
sVabiname
p102
g99
sVsource
p103
V4.13~rc1-1~exp1
p104
sstp105
Rp106
.