ccopy_reg
_reconstructor
p0
(cdebian_linux.config
ConfigCore
p1
c__builtin__
dict
p2
(dp3
(Vbase
p4
tp5
(dp6
Vfeaturesets
p7
(lp8
Vnone
p9
asVcompiler
p10
Vgcc-7
p11
sVarches
p12
(lp13
Vamd64
p14
ass(Vabi
p15
tp16
(dp17
Vabiname
p18
Vtowo.1
p19
ss(Vdescription
p20
Vamd64
p21
Vnone
p22
Vsiduction-amd64
p23
tp24
(dp25
Vparts
p26
(lp27
Vxen
p28
ass(Vimage
p29
tp30
(dp31
Vinitramfs-generators
p32
(lp33
Vinitramfs-tools
p34
aVinitramfs-fallback
p35
ass(Vversion
p36
tp37
(dp38
Vsource
p39
V4.13~rc6-1~exp1
p40
sVabiname
p41
V4.13.0-rc6
p42
sVupstream
p43
V4.13-rc6
p44
sVabiname_base
p45
g42
ss(Vrelations
p46
tp47
(dp48
Vinitramfs-fallback
p49
Vlinux-initramfs-tool
p50
sVgcc-7
p51
Vgcc-7
p52
sVinitramfs-tools
p53
Vinitramfs-tools (>= 0.121~)
p54
ss(Vbase
p55
g21
g22
tp56
(dp57
Vflavours
p58
(lp59
Vsiduction-amd64
p60
asVimplicit-flavour
p61
I01
ss(Vbuild
p62
g21
tp63
(dp64
Vimage-file
p65
Varch/x86/boot/bzImage
p66
sVdebug-info
p67
I00
ss(Vimage
p68
g21
tp69
(dp70
Vinstall-stem
p71
Vvmlinuz
p72
sVbootloaders
p73
(lp74
Vgrub-pc
p75
aVextlinux
p76
aVgrub-efi-amd64
p77
asVsuggests
p78
Vcrda
p79
sVbreaks
p80
Vxserver-xorg-input-vmmouse (<< 1:13.0.99)
p81
ss(Vdescription
p82
tp83
(dp84
Vpart-long-up
p85
VThis kernel is not suitable for SMP (multi-processor,\u000amulti-core or hyper-threaded) systems.
p86
sVpart-long-xen
p87
VThis kernel also runs on a Xen hypervisor.\u000aIt supports both privileged (dom0) and unprivileged (domU) operation.
p88
ss(Vbase
p89
g21
tp90
(dp91
Vfeaturesets
p92
(lp93
Vnone
p94
ag22
asVkernel-arch
p95
Vx86
p96
ss(Vdescription
p97
g21
NVsiduction-amd64
p98
tp99
(dp100
Vhardware
p101
V64-bit PCs
p102
sVhardware-long
p103
VPCs with AMD64 or Intel 64 processors
p104
sstp105
Rp106
.