ccopy_reg
_reconstructor
p0
(cdebian_linux.config
ConfigCore
p1
c__builtin__
dict
p2
(dp3
(Vbase
p4
Vamd64
p5
Vnone
p6
tp7
(dp8
Vflavours
p9
(lp10
Vsiduction-amd64
p11
asVimplicit-flavour
p12
I01
ss(Vbase
p13
tp14
(dp15
Vcompiler
p16
Vgcc-7
p17
sVfeaturesets
p18
(lp19
Vnone
p20
asVarches
p21
(lp22
Vamd64
p23
ass(Vbuild
p24
g5
tp25
(dp26
Vimage-file
p27
Varch/x86/boot/bzImage
p28
sVdebug-info
p29
I00
ss(Vdescription
p30
g5
NVsiduction-amd64
p31
tp32
(dp33
Vhardware
p34
V64-bit PCs
p35
sVhardware-long
p36
VPCs with AMD64 or Intel 64 processors
p37
ss(Vversion
p38
tp39
(dp40
Vsource
p41
V4.13-15
p42
sVupstream
p43
V4.13
p44
sVabiname
p45
V4.13.8-towo.1
p46
sVabiname_base
p47
V4.13.8
p48
ss(Vimage
p49
tp50
(dp51
Vinitramfs-generators
p52
(lp53
Vinitramfs-tools
p54
aVinitramfs-fallback
p55
ass(Vdescription
p56
g5
g6
Vsiduction-amd64
p57
tp58
(dp59
Vparts
p60
(lp61
Vxen
p62
ass(Vdescription
p63
tp64
(dp65
Vpart-long-xen
p66
VThis kernel also runs on a Xen hypervisor.\u000aIt supports both privileged (dom0) and unprivileged (domU) operation.
p67
sVpart-long-up
p68
VThis kernel is not suitable for SMP (multi-processor,\u000amulti-core or hyper-threaded) systems.
p69
ss(Vimage
p70
g5
tp71
(dp72
Vsuggests
p73
Vcrda
p74
sVinstall-stem
p75
Vvmlinuz
p76
sVbreaks
p77
Vxserver-xorg-input-vmmouse (<< 1:13.0.99)
p78
sVbootloaders
p79
(lp80
Vgrub-pc
p81
aVextlinux
p82
aVgrub-efi-amd64
p83
ass(Vbase
p84
g5
tp85
(dp86
Vfeaturesets
p87
(lp88
Vnone
p89
ag6
asVkernel-arch
p90
Vx86
p91
ss(Vabi
p92
tp93
(dp94
Vabiname
p95
Vtowo.1
p96
ss(Vrelations
p97
tp98
(dp99
Vinitramfs-tools
p100
Vinitramfs-tools (>= 0.121~)
p101
sVgcc-7
p102
Vgcc-7
p103
sVinitramfs-fallback
p104
Vlinux-initramfs-tool
p105
sstp106
Rp107
.