ccopy_reg
_reconstructor
p0
(cdebian_linux.config
ConfigCore
p1
c__builtin__
dict
p2
(dp3
(Vdescription
p4
Vamd64
p5
NVsiduction-amd64
p6
tp7
(dp8
Vhardware
p9
V64-bit PCs
p10
sVhardware-long
p11
VPCs with AMD64 or Intel 64 processors
p12
ss(Vbase
p13
g5
Vnone
p14
tp15
(dp16
Vflavours
p17
(lp18
Vsiduction-amd64
p19
asVimplicit-flavour
p20
I01
ss(Vbase
p21
tp22
(dp23
Vfeaturesets
p24
(lp25
Vnone
p26
asVarches
p27
(lp28
Vamd64
p29
asVcompiler
p30
Vgcc-7
p31
ss(Vrelations
p32
tp33
(dp34
Vinitramfs-fallback
p35
Vlinux-initramfs-tool
p36
sVgcc-7
p37
Vgcc-7
p38
sVinitramfs-tools
p39
Vinitramfs-tools (>= 0.121~)
p40
ss(Vimage
p41
tp42
(dp43
Vinitramfs-generators
p44
(lp45
Vinitramfs-tools
p46
aVinitramfs-fallback
p47
ass(Vbuild
p48
g5
tp49
(dp50
Vimage-file
p51
Varch/x86/boot/bzImage
p52
sVdebug-info
p53
I00
ss(Vabi
p54
tp55
(dp56
Vabiname
p57
Vtowo.1
p58
ss(Vbase
p59
g5
tp60
(dp61
Vfeaturesets
p62
(lp63
Vnone
p64
ag14
asVkernel-arch
p65
Vx86
p66
ss(Vversion
p67
tp68
(dp69
Vsource
p70
V4.13~rc4-1~exp1
p71
sVupstream
p72
V4.13-rc4
p73
sVabiname_base
p74
V4.13.0-rc4
p75
sVabiname
p76
g75
ss(Vdescription
p77
tp78
(dp79
Vpart-long-xen
p80
VThis kernel also runs on a Xen hypervisor.\u000aIt supports both privileged (dom0) and unprivileged (domU) operation.
p81
sVpart-long-up
p82
VThis kernel is not suitable for SMP (multi-processor,\u000amulti-core or hyper-threaded) systems.
p83
ss(Vdescription
p84
g5
g14
Vsiduction-amd64
p85
tp86
(dp87
Vparts
p88
(lp89
Vxen
p90
ass(Vimage
p91
g5
tp92
(dp93
Vinstall-stem
p94
Vvmlinuz
p95
sVsuggests
p96
Vcrda
p97
sVbootloaders
p98
(lp99
Vgrub-pc
p100
aVextlinux
p101
aVgrub-efi-amd64
p102
asVbreaks
p103
Vxserver-xorg-input-vmmouse (<< 1:13.0.99)
p104
sstp105
Rp106
.