ccopy_reg
_reconstructor
p0
(cdebian_linux.config
ConfigCore
p1
c__builtin__
dict
p2
(dp3
(Vbase
p4
tp5
(dp6
Varches
p7
(lp8
Vamd64
p9
asVfeaturesets
p10
(lp11
Vnone
p12
asVcompiler
p13
Vgcc-7
p14
ss(Vbase
p15
Vamd64
p16
Vnone
p17
tp18
(dp19
Vimplicit-flavour
p20
I01
sVflavours
p21
(lp22
Vsiduction-amd64
p23
ass(Vimage
p24
tp25
(dp26
Vinitramfs-generators
p27
(lp28
Vinitramfs-tools
p29
aVinitramfs-fallback
p30
ass(Vbuild
p31
g16
tp32
(dp33
Vimage-file
p34
Varch/x86/boot/bzImage
p35
sVdebug-info
p36
I00
ss(Vbase
p37
g16
tp38
(dp39
Vfeaturesets
p40
(lp41
Vnone
p42
ag17
asVkernel-arch
p43
Vx86
p44
ss(Vabi
p45
tp46
(dp47
Vabiname
p48
Vtowo.2
p49
ss(Vdescription
p50
g16
NVsiduction-amd64
p51
tp52
(dp53
Vhardware-long
p54
VPCs with AMD64 or Intel 64 processors
p55
sVhardware
p56
V64-bit PCs
p57
ss(Vversion
p58
tp59
(dp60
Vupstream
p61
V4.13
p62
sVabiname_base
p63
V4.13.0
p64
sVabiname
p65
V4.13.0-towo.2
p66
sVsource
p67
V4.13-2
p68
ss(Vrelations
p69
tp70
(dp71
Vinitramfs-tools
p72
Vinitramfs-tools (>= 0.121~)
p73
sVinitramfs-fallback
p74
Vlinux-initramfs-tool
p75
sVgcc-7
p76
Vgcc-7
p77
ss(Vdescription
p78
tp79
(dp80
Vpart-long-up
p81
VThis kernel is not suitable for SMP (multi-processor,\u000amulti-core or hyper-threaded) systems.
p82
sVpart-long-xen
p83
VThis kernel also runs on a Xen hypervisor.\u000aIt supports both privileged (dom0) and unprivileged (domU) operation.
p84
ss(Vdescription
p85
g16
g17
Vsiduction-amd64
p86
tp87
(dp88
Vparts
p89
(lp90
Vxen
p91
ass(Vimage
p92
g16
tp93
(dp94
Vinstall-stem
p95
Vvmlinuz
p96
sVsuggests
p97
Vcrda
p98
sVbootloaders
p99
(lp100
Vgrub-pc
p101
aVextlinux
p102
aVgrub-efi-amd64
p103
asVbreaks
p104
Vxserver-xorg-input-vmmouse (<< 1:13.0.99)
p105
sstp106
Rp107
.