ccopy_reg
_reconstructor
p0
(cdebian_linux.config
ConfigCore
p1
c__builtin__
dict
p2
(dp3
(Vdescription
p4
Vamd64
p5
Vnone
p6
Vsiduction-amd64
p7
tp8
(dp9
Vparts
p10
(lp11
Vxen
p12
ass(Vbase
p13
g5
g6
tp14
(dp15
Vflavours
p16
(lp17
Vsiduction-amd64
p18
asVimplicit-flavour
p19
I01
ss(Vbuild
p20
g5
tp21
(dp22
Vimage-file
p23
Varch/x86/boot/bzImage
p24
sVdebug-info
p25
I00
ss(Vabi
p26
tp27
(dp28
Vabiname
p29
Vtowo.1
p30
ss(Vdescription
p31
g5
NVsiduction-amd64
p32
tp33
(dp34
Vhardware-long
p35
VPCs with AMD64 or Intel 64 processors
p36
sVhardware
p37
V64-bit PCs
p38
ss(Vimage
p39
g5
tp40
(dp41
Vbreaks
p42
Vxserver-xorg-input-vmmouse (<< 1:13.0.99)
p43
sVbootloaders
p44
(lp45
Vgrub-pc
p46
aVextlinux
p47
aVgrub-efi-amd64
p48
asVinstall-stem
p49
Vvmlinuz
p50
sVsuggests
p51
Vcrda
p52
ss(Vimage
p53
tp54
(dp55
Vinitramfs-generators
p56
(lp57
Vinitramfs-tools
p58
aVinitramfs-fallback
p59
ass(Vbase
p60
g5
tp61
(dp62
Vkernel-arch
p63
Vx86
p64
sVfeaturesets
p65
(lp66
Vnone
p67
ag6
ass(Vversion
p68
tp69
(dp70
Vsource
p71
V4.13-12
p72
sVabiname_base
p73
V4.13.6
p74
sVabiname
p75
V4.13.6-towo.1
p76
sVupstream
p77
V4.13
p78
ss(Vbase
p79
tp80
(dp81
Vcompiler
p82
Vgcc-7
p83
sVarches
p84
(lp85
Vamd64
p86
asVfeaturesets
p87
(lp88
Vnone
p89
ass(Vrelations
p90
tp91
(dp92
Vinitramfs-fallback
p93
Vlinux-initramfs-tool
p94
sVgcc-7
p95
Vgcc-7
p96
sVinitramfs-tools
p97
Vinitramfs-tools (>= 0.121~)
p98
ss(Vdescription
p99
tp100
(dp101
Vpart-long-up
p102
VThis kernel is not suitable for SMP (multi-processor,\u000amulti-core or hyper-threaded) systems.
p103
sVpart-long-xen
p104
VThis kernel also runs on a Xen hypervisor.\u000aIt supports both privileged (dom0) and unprivileged (domU) operation.
p105
sstp106
Rp107
.