ccopy_reg
_reconstructor
p0
(cdebian_linux.config
ConfigCore
p1
c__builtin__
dict
p2
(dp3
(Vdescription
p4
Vamd64
p5
Vnone
p6
Vsiduction-amd64
p7
tp8
(dp9
Vparts
p10
(lp11
Vxen
p12
ass(Vdescription
p13
tp14
(dp15
Vpart-long-xen
p16
VThis kernel also runs on a Xen hypervisor.\u000aIt supports both privileged (dom0) and unprivileged (domU) operation.
p17
sVpart-long-up
p18
VThis kernel is not suitable for SMP (multi-processor,\u000amulti-core or hyper-threaded) systems.
p19
ss(Vimage
p20
tp21
(dp22
Vinitramfs-generators
p23
(lp24
Vinitramfs-tools
p25
aVinitramfs-fallback
p26
ass(Vbase
p27
g5
g6
tp28
(dp29
Vimplicit-flavour
p30
I01
sVflavours
p31
(lp32
Vsiduction-amd64
p33
ass(Vversion
p34
tp35
(dp36
Vupstream
p37
V4.13
p38
sVabiname_base
p39
V4.13.4
p40
sVsource
p41
V4.13-9
p42
sVabiname
p43
V4.13.4-towo.2
p44
ss(Vbase
p45
tp46
(dp47
Vcompiler
p48
Vgcc-7
p49
sVfeaturesets
p50
(lp51
Vnone
p52
asVarches
p53
(lp54
Vamd64
p55
ass(Vbuild
p56
g5
tp57
(dp58
Vimage-file
p59
Varch/x86/boot/bzImage
p60
sVdebug-info
p61
I00
ss(Vdescription
p62
g5
NVsiduction-amd64
p63
tp64
(dp65
Vhardware-long
p66
VPCs with AMD64 or Intel 64 processors
p67
sVhardware
p68
V64-bit PCs
p69
ss(Vabi
p70
tp71
(dp72
Vabiname
p73
Vtowo.2
p74
ss(Vimage
p75
g5
tp76
(dp77
Vbootloaders
p78
(lp79
Vgrub-pc
p80
aVextlinux
p81
aVgrub-efi-amd64
p82
asVbreaks
p83
Vxserver-xorg-input-vmmouse (<< 1:13.0.99)
p84
sVinstall-stem
p85
Vvmlinuz
p86
sVsuggests
p87
Vcrda
p88
ss(Vrelations
p89
tp90
(dp91
Vinitramfs-fallback
p92
Vlinux-initramfs-tool
p93
sVgcc-7
p94
Vgcc-7
p95
sVinitramfs-tools
p96
Vinitramfs-tools (>= 0.121~)
p97
ss(Vbase
p98
g5
tp99
(dp100
Vfeaturesets
p101
(lp102
Vnone
p103
ag6
asVkernel-arch
p104
Vx86
p105
sstp106
Rp107
.