ccopy_reg
_reconstructor
p0
(cdebian_linux.config
ConfigCore
p1
c__builtin__
dict
p2
(dp3
(Vbase
p4
Vamd64
p5
tp6
(dp7
Vfeaturesets
p8
(lp9
Vnone
p10
aVnone
p11
asVkernel-arch
p12
Vx86
p13
ss(Vabi
p14
tp15
(dp16
Vabiname
p17
Vtowo.1
p18
ss(Vimage
p19
tp20
(dp21
Vinitramfs-generators
p22
(lp23
Vinitramfs-tools
p24
aVinitramfs-fallback
p25
ass(Vbase
p26
g5
g11
tp27
(dp28
Vflavours
p29
(lp30
Vsiduction-amd64
p31
asVimplicit-flavour
p32
I01
ss(Vdescription
p33
g5
NVsiduction-amd64
p34
tp35
(dp36
Vhardware
p37
V64-bit PCs
p38
sVhardware-long
p39
VPCs with AMD64 or Intel 64 processors
p40
ss(Vversion
p41
tp42
(dp43
Vabiname_base
p44
V4.13.7
p45
sVupstream
p46
V4.13
p47
sVabiname
p48
V4.13.7-towo.1
p49
sVsource
p50
V4.13-13
p51
ss(Vdescription
p52
tp53
(dp54
Vpart-long-xen
p55
VThis kernel also runs on a Xen hypervisor.\u000aIt supports both privileged (dom0) and unprivileged (domU) operation.
p56
sVpart-long-up
p57
VThis kernel is not suitable for SMP (multi-processor,\u000amulti-core or hyper-threaded) systems.
p58
ss(Vbase
p59
tp60
(dp61
Vfeaturesets
p62
(lp63
Vnone
p64
asVarches
p65
(lp66
Vamd64
p67
asVcompiler
p68
Vgcc-7
p69
ss(Vbuild
p70
g5
tp71
(dp72
Vimage-file
p73
Varch/x86/boot/bzImage
p74
sVdebug-info
p75
I00
ss(Vimage
p76
g5
tp77
(dp78
Vinstall-stem
p79
Vvmlinuz
p80
sVsuggests
p81
Vcrda
p82
sVbreaks
p83
Vxserver-xorg-input-vmmouse (<< 1:13.0.99)
p84
sVbootloaders
p85
(lp86
Vgrub-pc
p87
aVextlinux
p88
aVgrub-efi-amd64
p89
ass(Vrelations
p90
tp91
(dp92
Vinitramfs-fallback
p93
Vlinux-initramfs-tool
p94
sVinitramfs-tools
p95
Vinitramfs-tools (>= 0.121~)
p96
sVgcc-7
p97
Vgcc-7
p98
ss(Vdescription
p99
g5
g11
Vsiduction-amd64
p100
tp101
(dp102
Vparts
p103
(lp104
Vxen
p105
asstp106
Rp107
.