ccopy_reg
_reconstructor
p0
(cdebian_linux.config
ConfigCore
p1
c__builtin__
dict
p2
(dp3
(Vimage
p4
Vamd64
p5
tp6
(dp7
Vbootloaders
p8
(lp9
Vgrub-pc
p10
aVextlinux
p11
aVgrub-efi-amd64
p12
asVinstall-stem
p13
Vvmlinuz
p14
sVbreaks
p15
Vxserver-xorg-input-vmmouse (<< 1:13.0.99)
p16
sVsuggests
p17
Vcrda
p18
ss(Vdescription
p19
g5
NVsiduction-amd64
p20
tp21
(dp22
Vhardware
p23
V64-bit PCs
p24
sVhardware-long
p25
VPCs with AMD64 or Intel 64 processors
p26
ss(Vbase
p27
g5
Vnone
p28
tp29
(dp30
Vimplicit-flavour
p31
I01
sVflavours
p32
(lp33
Vsiduction-amd64
p34
ass(Vrelations
p35
tp36
(dp37
Vgcc-7
p38
Vgcc-7
p39
sVinitramfs-tools
p40
Vinitramfs-tools (>= 0.121~)
p41
sVinitramfs-fallback
p42
Vlinux-initramfs-tool
p43
ss(Vbuild
p44
g5
tp45
(dp46
Vdebug-info
p47
I00
sVimage-file
p48
Varch/x86/boot/bzImage
p49
ss(Vbase
p50
tp51
(dp52
Vfeaturesets
p53
(lp54
Vnone
p55
asVcompiler
p56
Vgcc-7
p57
sVarches
p58
(lp59
Vamd64
p60
ass(Vversion
p61
tp62
(dp63
Vabiname_base
p64
V4.13.7
p65
sVabiname
p66
V4.13.7-towo.2
p67
sVupstream
p68
V4.13
p69
sVsource
p70
V4.13-14
p71
ss(Vdescription
p72
g5
g28
Vsiduction-amd64
p73
tp74
(dp75
Vparts
p76
(lp77
Vxen
p78
ass(Vdescription
p79
tp80
(dp81
Vpart-long-xen
p82
VThis kernel also runs on a Xen hypervisor.\u000aIt supports both privileged (dom0) and unprivileged (domU) operation.
p83
sVpart-long-up
p84
VThis kernel is not suitable for SMP (multi-processor,\u000amulti-core or hyper-threaded) systems.
p85
ss(Vimage
p86
tp87
(dp88
Vinitramfs-generators
p89
(lp90
Vinitramfs-tools
p91
aVinitramfs-fallback
p92
ass(Vabi
p93
tp94
(dp95
Vabiname
p96
Vtowo.2
p97
ss(Vbase
p98
g5
tp99
(dp100
Vkernel-arch
p101
Vx86
p102
sVfeaturesets
p103
(lp104
Vnone
p105
ag28
asstp106
Rp107
.