ccopy_reg
_reconstructor
p0
(cdebian_linux.config
ConfigCore
p1
c__builtin__
dict
p2
(dp3
(Vbase
p4
tp5
(dp6
Varches
p7
(lp8
Vamd64
p9
asVfeaturesets
p10
(lp11
Vnone
p12
asVcompiler
p13
Vgcc-7
p14
ss(Vrelations
p15
tp16
(dp17
Vgcc-7
p18
Vgcc-7
p19
sVinitramfs-fallback
p20
Vlinux-initramfs-tool
p21
sVinitramfs-tools
p22
Vinitramfs-tools (>= 0.121~)
p23
ss(Vbase
p24
Vamd64
p25
tp26
(dp27
Vfeaturesets
p28
(lp29
Vnone
p30
aVnone
p31
asVkernel-arch
p32
Vx86
p33
ss(Vdescription
p34
tp35
(dp36
Vpart-long-up
p37
VThis kernel is not suitable for SMP (multi-processor,\u000amulti-core or hyper-threaded) systems.
p38
sVpart-long-xen
p39
VThis kernel also runs on a Xen hypervisor.\u000aIt supports both privileged (dom0) and unprivileged (domU) operation.
p40
ss(Vdescription
p41
g25
g31
Vsiduction-amd64
p42
tp43
(dp44
Vparts
p45
(lp46
Vxen
p47
ass(Vversion
p48
tp49
(dp50
Vupstream
p51
V4.13
p52
sVabiname_base
p53
V4.13.9
p54
sVsource
p55
V4.13-17
p56
sVabiname
p57
V4.13.9-towo.1
p58
ss(Vabi
p59
tp60
(dp61
Vabiname
p62
Vtowo.1
p63
ss(Vbuild
p64
g25
tp65
(dp66
Vdebug-info
p67
I00
sVimage-file
p68
Varch/x86/boot/bzImage
p69
ss(Vdescription
p70
g25
NVsiduction-amd64
p71
tp72
(dp73
Vhardware-long
p74
VPCs with AMD64 or Intel 64 processors
p75
sVhardware
p76
V64-bit PCs
p77
ss(Vbase
p78
g25
g31
tp79
(dp80
Vimplicit-flavour
p81
I01
sVflavours
p82
(lp83
Vsiduction-amd64
p84
ass(Vimage
p85
tp86
(dp87
Vinitramfs-generators
p88
(lp89
Vinitramfs-tools
p90
aVinitramfs-fallback
p91
ass(Vimage
p92
g25
tp93
(dp94
Vsuggests
p95
Vcrda
p96
sVbootloaders
p97
(lp98
Vgrub-pc
p99
aVextlinux
p100
aVgrub-efi-amd64
p101
asVbreaks
p102
Vxserver-xorg-input-vmmouse (<< 1:13.0.99)
p103
sVinstall-stem
p104
Vvmlinuz
p105
sstp106
Rp107
.