ccopy_reg
_reconstructor
p0
(cdebian_linux.config
ConfigCore
p1
c__builtin__
dict
p2
(dp3
(Vdescription
p4
Vamd64
p5
Vnone
p6
Vsiduction-amd64
p7
tp8
(dp9
Vparts
p10
(lp11
Vxen
p12
ass(Vbase
p13
tp14
(dp15
Varches
p16
(lp17
Vamd64
p18
asVcompiler
p19
Vgcc-7
p20
sVfeaturesets
p21
(lp22
Vnone
p23
ass(Vrelations
p24
tp25
(dp26
Vinitramfs-fallback
p27
Vlinux-initramfs-tool
p28
sVinitramfs-tools
p29
Vinitramfs-tools (>= 0.121~)
p30
sVgcc-7
p31
Vgcc-7
p32
ss(Vbase
p33
g5
tp34
(dp35
Vkernel-arch
p36
Vx86
p37
sVfeaturesets
p38
(lp39
Vnone
p40
ag6
ass(Vbase
p41
g5
g6
tp42
(dp43
Vimplicit-flavour
p44
I01
sVflavours
p45
(lp46
Vsiduction-amd64
p47
ass(Vimage
p48
g5
tp49
(dp50
Vbreaks
p51
Vxserver-xorg-input-vmmouse (<< 1:13.0.99)
p52
sVbootloaders
p53
(lp54
Vgrub-pc
p55
aVextlinux
p56
aVgrub-efi-amd64
p57
asVinstall-stem
p58
Vvmlinuz
p59
sVsuggests
p60
Vcrda
p61
ss(Vabi
p62
tp63
(dp64
Vabiname
p65
Vtowo.1
p66
ss(Vbuild
p67
g5
tp68
(dp69
Vdebug-info
p70
I00
sVimage-file
p71
Varch/x86/boot/bzImage
p72
ss(Vversion
p73
tp74
(dp75
Vabiname_base
p76
V4.13.4
p77
sVupstream
p78
V4.13
p79
sVabiname
p80
V4.13.4-towo.1
p81
sVsource
p82
V4.13-8
p83
ss(Vimage
p84
tp85
(dp86
Vinitramfs-generators
p87
(lp88
Vinitramfs-tools
p89
aVinitramfs-fallback
p90
ass(Vdescription
p91
g5
NVsiduction-amd64
p92
tp93
(dp94
Vhardware
p95
V64-bit PCs
p96
sVhardware-long
p97
VPCs with AMD64 or Intel 64 processors
p98
ss(Vdescription
p99
tp100
(dp101
Vpart-long-up
p102
VThis kernel is not suitable for SMP (multi-processor,\u000amulti-core or hyper-threaded) systems.
p103
sVpart-long-xen
p104
VThis kernel also runs on a Xen hypervisor.\u000aIt supports both privileged (dom0) and unprivileged (domU) operation.
p105
sstp106
Rp107
.