ccopy_reg
_reconstructor
p0
(cdebian_linux.config
ConfigCore
p1
c__builtin__
dict
p2
(dp3
(Vbase
p4
Vamd64
p5
tp6
(dp7
Vfeaturesets
p8
(lp9
Vnone
p10
aVnone
p11
asVkernel-arch
p12
Vx86
p13
ss(Vbase
p14
tp15
(dp16
Varches
p17
(lp18
Vamd64
p19
asVcompiler
p20
Vgcc-7
p21
sVfeaturesets
p22
(lp23
Vnone
p24
ass(Vdescription
p25
g5
g11
Vsiduction-amd64
p26
tp27
(dp28
Vparts
p29
(lp30
Vxen
p31
ass(Vimage
p32
g5
tp33
(dp34
Vsuggests
p35
Vcrda
p36
sVbreaks
p37
Vxserver-xorg-input-vmmouse (<< 1:13.0.99)
p38
sVbootloaders
p39
(lp40
Vgrub-pc
p41
aVextlinux
p42
aVgrub-efi-amd64
p43
asVinstall-stem
p44
Vvmlinuz
p45
ss(Vdescription
p46
g5
NVsiduction-amd64
p47
tp48
(dp49
Vhardware
p50
V64-bit PCs
p51
sVhardware-long
p52
VPCs with AMD64 or Intel 64 processors
p53
ss(Vbuild
p54
g5
tp55
(dp56
Vimage-file
p57
Varch/x86/boot/bzImage
p58
sVdebug-info
p59
I00
ss(Vimage
p60
tp61
(dp62
Vinitramfs-generators
p63
(lp64
Vinitramfs-tools
p65
aVinitramfs-fallback
p66
ass(Vversion
p67
tp68
(dp69
Vupstream
p70
V4.13
p71
sVabiname_base
p72
V4.13.2
p73
sVabiname
p74
V4.13.2-towo.2
p75
sVsource
p76
V4.13-6
p77
ss(Vbase
p78
g5
g11
tp79
(dp80
Vflavours
p81
(lp82
Vsiduction-amd64
p83
asVimplicit-flavour
p84
I01
ss(Vrelations
p85
tp86
(dp87
Vgcc-7
p88
Vgcc-7
p89
sVinitramfs-tools
p90
Vinitramfs-tools (>= 0.121~)
p91
sVinitramfs-fallback
p92
Vlinux-initramfs-tool
p93
ss(Vdescription
p94
tp95
(dp96
Vpart-long-up
p97
VThis kernel is not suitable for SMP (multi-processor,\u000amulti-core or hyper-threaded) systems.
p98
sVpart-long-xen
p99
VThis kernel also runs on a Xen hypervisor.\u000aIt supports both privileged (dom0) and unprivileged (domU) operation.
p100
ss(Vabi
p101
tp102
(dp103
Vabiname
p104
Vtowo.2
p105
sstp106
Rp107
.