ccopy_reg
_reconstructor
p0
(cdebian_linux.config
ConfigCore
p1
c__builtin__
dict
p2
(dp3
(Vdescription
p4
Vamd64
p5
NVsiduction-amd64
p6
tp7
(dp8
Vhardware-long
p9
VPCs with AMD64 or Intel 64 processors
p10
sVhardware
p11
V64-bit PCs
p12
ss(Vrelations
p13
tp14
(dp15
Vinitramfs-fallback
p16
Vlinux-initramfs-tool
p17
sVgcc-7
p18
Vgcc-7
p19
sVinitramfs-tools
p20
Vinitramfs-tools (>= 0.121~)
p21
ss(Vbuild
p22
g5
tp23
(dp24
Vimage-file
p25
Varch/x86/boot/bzImage
p26
sVdebug-info
p27
I00
ss(Vimage
p28
tp29
(dp30
Vinitramfs-generators
p31
(lp32
Vinitramfs-tools
p33
aVinitramfs-fallback
p34
ass(Vabi
p35
tp36
(dp37
Vabiname
p38
Vtowo.1
p39
ss(Vdescription
p40
tp41
(dp42
Vpart-long-up
p43
VThis kernel is not suitable for SMP (multi-processor,\u000amulti-core or hyper-threaded) systems.
p44
sVpart-long-xen
p45
VThis kernel also runs on a Xen hypervisor.\u000aIt supports both privileged (dom0) and unprivileged (domU) operation.
p46
ss(Vbase
p47
g5
tp48
(dp49
Vkernel-arch
p50
Vx86
p51
sVfeaturesets
p52
(lp53
Vnone
p54
aVnone
p55
ass(Vimage
p56
g5
tp57
(dp58
Vbootloaders
p59
(lp60
Vgrub-pc
p61
aVextlinux
p62
aVgrub-efi-amd64
p63
asVinstall-stem
p64
Vvmlinuz
p65
sVsuggests
p66
Vcrda
p67
sVbreaks
p68
Vxserver-xorg-input-vmmouse (<< 1:13.0.99)
p69
ss(Vbase
p70
tp71
(dp72
Varches
p73
(lp74
Vamd64
p75
asVfeaturesets
p76
(lp77
Vnone
p78
asVcompiler
p79
Vgcc-7
p80
ss(Vbase
p81
g5
g55
tp82
(dp83
Vimplicit-flavour
p84
I01
sVflavours
p85
(lp86
Vsiduction-amd64
p87
ass(Vdescription
p88
g5
g55
Vsiduction-amd64
p89
tp90
(dp91
Vparts
p92
(lp93
Vxen
p94
ass(Vversion
p95
tp96
(dp97
Vabiname_base
p98
V4.13.3
p99
sVupstream
p100
V4.13
p101
sVabiname
p102
V4.13.3-towo.1
p103
sVsource
p104
V4.13-7
p105
sstp106
Rp107
.