ccopy_reg
_reconstructor
p0
(cdebian_linux.config
ConfigCore
p1
c__builtin__
dict
p2
(dp3
(Vbase
p4
Vamd64
p5
tp6
(dp7
Vfeaturesets
p8
(lp9
Vnone
p10
aVnone
p11
asVkernel-arch
p12
Vx86
p13
ss(Vdescription
p14
g5
NVsiduction-amd64
p15
tp16
(dp17
Vhardware-long
p18
VPCs with AMD64 or Intel 64 processors
p19
sVhardware
p20
V64-bit PCs
p21
ss(Vabi
p22
tp23
(dp24
Vabiname
p25
Vtowo.2
p26
ss(Vimage
p27
tp28
(dp29
Vinitramfs-generators
p30
(lp31
Vinitramfs-tools
p32
aVinitramfs-fallback
p33
ass(Vbase
p34
g5
g11
tp35
(dp36
Vimplicit-flavour
p37
I01
sVflavours
p38
(lp39
Vsiduction-amd64
p40
ass(Vimage
p41
g5
tp42
(dp43
Vsuggests
p44
Vcrda
p45
sVbootloaders
p46
(lp47
Vgrub-pc
p48
aVextlinux
p49
aVgrub-efi-amd64
p50
asVinstall-stem
p51
Vvmlinuz
p52
sVbreaks
p53
Vxserver-xorg-input-vmmouse (<< 1:13.0.99)
p54
ss(Vversion
p55
tp56
(dp57
Vupstream
p58
V4.13
p59
sVabiname_base
p60
V4.13.9
p61
sVsource
p62
V4.13-18
p63
sVabiname
p64
V4.13.9-towo.2
p65
ss(Vrelations
p66
tp67
(dp68
Vinitramfs-fallback
p69
Vlinux-initramfs-tool
p70
sVinitramfs-tools
p71
Vinitramfs-tools (>= 0.121~)
p72
sVgcc-7
p73
Vgcc-7
p74
ss(Vdescription
p75
g5
g11
Vsiduction-amd64
p76
tp77
(dp78
Vparts
p79
(lp80
Vxen
p81
ass(Vdescription
p82
tp83
(dp84
Vpart-long-xen
p85
VThis kernel also runs on a Xen hypervisor.\u000aIt supports both privileged (dom0) and unprivileged (domU) operation.
p86
sVpart-long-up
p87
VThis kernel is not suitable for SMP (multi-processor,\u000amulti-core or hyper-threaded) systems.
p88
ss(Vbase
p89
tp90
(dp91
Vcompiler
p92
Vgcc-7
p93
sVfeaturesets
p94
(lp95
Vnone
p96
asVarches
p97
(lp98
Vamd64
p99
ass(Vbuild
p100
g5
tp101
(dp102
Vdebug-info
p103
I00
sVimage-file
p104
Varch/x86/boot/bzImage
p105
sstp106
Rp107
.