ccopy_reg
_reconstructor
p0
(cdebian_linux.config
ConfigCore
p1
c__builtin__
dict
p2
(dp3
(Vdescription
p4
tp5
(dp6
Vpart-long-up
p7
VThis kernel is not suitable for SMP (multi-processor,\u000amulti-core or hyper-threaded) systems.
p8
sVpart-long-xen
p9
VThis kernel also runs on a Xen hypervisor.\u000aIt supports both privileged (dom0) and unprivileged (domU) operation.
p10
ss(Vversion
p11
tp12
(dp13
Vabiname
p14
V4.13.9-towo.3
p15
sVsource
p16
V4.13-19
p17
sVupstream
p18
V4.13
p19
sVabiname_base
p20
V4.13.9
p21
ss(Vbuild
p22
Vamd64
p23
tp24
(dp25
Vdebug-info
p26
I00
sVimage-file
p27
Varch/x86/boot/bzImage
p28
ss(Vbase
p29
tp30
(dp31
Varches
p32
(lp33
Vamd64
p34
asVfeaturesets
p35
(lp36
Vnone
p37
asVcompiler
p38
Vgcc-7
p39
ss(Vbase
p40
g23
Vnone
p41
tp42
(dp43
Vimplicit-flavour
p44
I01
sVflavours
p45
(lp46
Vsiduction-amd64
p47
ass(Vdescription
p48
g23
g41
Vsiduction-amd64
p49
tp50
(dp51
Vparts
p52
(lp53
Vxen
p54
ass(Vdescription
p55
g23
NVsiduction-amd64
p56
tp57
(dp58
Vhardware-long
p59
VPCs with AMD64 or Intel 64 processors
p60
sVhardware
p61
V64-bit PCs
p62
ss(Vimage
p63
tp64
(dp65
Vinitramfs-generators
p66
(lp67
Vinitramfs-tools
p68
aVinitramfs-fallback
p69
ass(Vabi
p70
tp71
(dp72
Vabiname
p73
Vtowo.3
p74
ss(Vrelations
p75
tp76
(dp77
Vgcc-7
p78
Vgcc-7
p79
sVinitramfs-tools
p80
Vinitramfs-tools (>= 0.121~)
p81
sVinitramfs-fallback
p82
Vlinux-initramfs-tool
p83
ss(Vimage
p84
g23
tp85
(dp86
Vsuggests
p87
Vcrda
p88
sVbootloaders
p89
(lp90
Vgrub-pc
p91
aVextlinux
p92
aVgrub-efi-amd64
p93
asVinstall-stem
p94
Vvmlinuz
p95
sVbreaks
p96
Vxserver-xorg-input-vmmouse (<< 1:13.0.99)
p97
ss(Vbase
p98
g23
tp99
(dp100
Vkernel-arch
p101
Vx86
p102
sVfeaturesets
p103
(lp104
Vnone
p105
ag41
asstp106
Rp107
.