ccopy_reg
_reconstructor
p0
(cdebian_linux.config
ConfigCore
p1
c__builtin__
dict
p2
(dp3
(Vbase
p4
Vamd64
p5
Vnone
p6
tp7
(dp8
Vflavours
p9
(lp10
Vsiduction-amd64
p11
asVimplicit-flavour
p12
I01
ss(Vdescription
p13
g5
NVsiduction-amd64
p14
tp15
(dp16
Vhardware-long
p17
VPCs with AMD64 or Intel 64 processors
p18
sVhardware
p19
V64-bit PCs
p20
ss(Vimage
p21
g5
tp22
(dp23
Vbootloaders
p24
(lp25
Vgrub-pc
p26
aVextlinux
p27
aVgrub-efi-amd64
p28
asVinstall-stem
p29
Vvmlinuz
p30
sVsuggests
p31
Vcrda
p32
sVbreaks
p33
Vxserver-xorg-input-vmmouse (<< 1:13.0.99)
p34
ss(Vbase
p35
tp36
(dp37
Varches
p38
(lp39
Vamd64
p40
asVfeaturesets
p41
(lp42
Vnone
p43
asVcompiler
p44
Vgcc-7
p45
ss(Vbase
p46
g5
tp47
(dp48
Vkernel-arch
p49
Vx86
p50
sVfeaturesets
p51
(lp52
Vnone
p53
ag6
ass(Vimage
p54
tp55
(dp56
Vinitramfs-generators
p57
(lp58
Vinitramfs-tools
p59
aVinitramfs-fallback
p60
ass(Vrelations
p61
tp62
(dp63
Vinitramfs-tools
p64
Vinitramfs-tools (>= 0.121~)
p65
sVgcc-7
p66
Vgcc-7
p67
sVinitramfs-fallback
p68
Vlinux-initramfs-tool
p69
ss(Vabi
p70
tp71
(dp72
Vabiname
p73
Vtowo.1
p74
ss(Vbuild
p75
g5
tp76
(dp77
Vdebug-info
p78
I00
sVimage-file
p79
Varch/x86/boot/bzImage
p80
ss(Vdescription
p81
g5
g6
Vsiduction-amd64
p82
tp83
(dp84
Vparts
p85
(lp86
Vxen
p87
ass(Vversion
p88
tp89
(dp90
Vabiname_base
p91
V4.13.0
p92
sVabiname
p93
V4.13.0-towo.1
p94
sVupstream
p95
V4.13
p96
sVsource
p97
V4.13-1
p98
ss(Vdescription
p99
tp100
(dp101
Vpart-long-xen
p102
VThis kernel also runs on a Xen hypervisor.\u000aIt supports both privileged (dom0) and unprivileged (domU) operation.
p103
sVpart-long-up
p104
VThis kernel is not suitable for SMP (multi-processor,\u000amulti-core or hyper-threaded) systems.
p105
sstp106
Rp107
.